libQt3Support.so.4:_Z16qt_tryAccelEventP7QWidgetP9QKeyEvent
libQt3Support.so.4:_Z20qImageFromMimeSourceRK7QString
libQt3Support.so.4:_Z20qt_tryComposeUnicodeP7QWidgetP9QKeyEvent
libQt3Support.so.4:_Z21qPixmapFromMimeSourceRK7QString
libQt3Support.so.4:_Z21qt_dispatchAccelEventP7QWidgetP9QKeyEvent
libQt3Support.so.4:_Z22q3InitNetworkProtocolsv
libQt3Support.so.4:_Z27qt_set_accel_auto_shortcutsb
libQt3Support.so.4:_Z28qt_set_table_clipper_enabledb
libQt3Support.so.4:_Z2wsR12Q3TextStream
libQt3Support.so.4:_Z3binR12Q3TextStream
libQt3Support.so.4:_Z3decR12Q3TextStream
libQt3Support.so.4:_Z3hexR12Q3TextStream
libQt3Support.so.4:_Z3octR12Q3TextStream
libQt3Support.so.4:_Z4endlR12Q3TextStream
libQt3Support.so.4:_Z5flushR12Q3TextStream
libQt3Support.so.4:_Z5resetR12Q3TextStream
libQt3Support.so.4:_ZN10Q3ComboBox10changeItemERK7QPixmapRK7QStringi
libQt3Support.so.4:_ZN10Q3ComboBox10changeItemERK7QPixmapi
libQt3Support.so.4:_ZN10Q3ComboBox10changeItemERK7QStringi
libQt3Support.so.4:_ZN10Q3ComboBox10insertItemERK7QPixmapRK7QStringi
libQt3Support.so.4:_ZN10Q3ComboBox10insertItemERK7QPixmapi
libQt3Support.so.4:_ZN10Q3ComboBox10insertItemERK7QStringi
libQt3Support.so.4:_ZN10Q3ComboBox10paintEventEP11QPaintEvent
libQt3Support.so.4:_ZN10Q3ComboBox10removeItemEi
libQt3Support.so.4:_ZN10Q3ComboBox10setEnabledEb
libQt3Support.so.4:_ZN10Q3ComboBox10setListBoxEP9Q3ListBox
libQt3Support.so.4:_ZN10Q3ComboBox10setPaletteERK8QPalette
libQt3Support.so.4:_ZN10Q3ComboBox10updateMaskEv
libQt3Support.so.4:_ZN10Q3ComboBox10wheelEventEP11QWheelEvent
libQt3Support.so.4:_ZN10Q3ComboBox11eventFilterEP7QObjectP6QEvent
libQt3Support.so.4:_ZN10Q3ComboBox11highlightedERK7QString
libQt3Support.so.4:_ZN10Q3ComboBox11highlightedEi
libQt3Support.so.4:_ZN10Q3ComboBox11qt_metacallEN11QMetaObject4CallEiPPv
libQt3Support.so.4:_ZN10Q3ComboBox11qt_metacastEPKc
libQt3Support.so.4:_ZN10Q3ComboBox11resizeEventEP12QResizeEvent
libQt3Support.so.4:_ZN10Q3ComboBox11setEditTextERK7QString
libQt3Support.so.4:_ZN10Q3ComboBox11setEditableEb
libQt3Support.so.4:_ZN10Q3ComboBox11setLineEditEP9QLineEdit
libQt3Support.so.4:_ZN10Q3ComboBox11setMaxCountEi
libQt3Support.so.4:_ZN10Q3ComboBox11styleChangeER6QStyle
libQt3Support.so.4:_ZN10Q3ComboBox11textChangedERK7QString
libQt3Support.so.4:_ZN10Q3ComboBox12focusInEventEP11QFocusEvent
libQt3Support.so.4:_ZN10Q3ComboBox12setSizeLimitEi
libQt3Support.so.4:_ZN10Q3ComboBox12setUpListBoxEv
libQt3Support.so.4:_ZN10Q3ComboBox12setValidatorEPK10QValidator
libQt3Support.so.4:_ZN10Q3ComboBox13focusOutEventEP11QFocusEvent
libQt3Support.so.4:_ZN10Q3ComboBox13insertStrListEPK9Q3StrListi
libQt3Support.so.4:_ZN10Q3ComboBox13insertStrListEPPKcii
libQt3Support.so.4:_ZN10Q3ComboBox13insertStrListERK9Q3StrListi
libQt3Support.so.4:_ZN10Q3ComboBox13keyPressEventEP9QKeyEvent
libQt3Support.so.4:_ZN10Q3ComboBox13returnPressedEv
libQt3Support.so.4:_ZN10Q3ComboBox13setAutoResizeEb
libQt3Support.so.4:_ZN10Q3ComboBox13setUpLineEditEv
libQt3Support.so.4:_ZN10Q3ComboBox14clearValidatorEv
libQt3Support.so.4:_ZN10Q3ComboBox14currentChangedEv
libQt3Support.so.4:_ZN10Q3ComboBox14mouseMoveEventEP11QMouseEvent
libQt3Support.so.4:_ZN10Q3ComboBox14popDownListBoxEv
libQt3Support.so.4:_ZN10Q3ComboBox14setCurrentItemEi
libQt3Support.so.4:_ZN10Q3ComboBox14setCurrentTextERK7QString
libQt3Support.so.4:_ZN10Q3ComboBox15mousePressEventEP11QMouseEvent
libQt3Support.so.4:_ZN10Q3ComboBox16insertStringListERK11QStringListi
libQt3Support.so.4:_ZN10Q3ComboBox16internalActivateEi
libQt3Support.so.4:_ZN10Q3ComboBox17internalHighlightEi
libQt3Support.so.4:_ZN10Q3ComboBox17mouseReleaseEventEP11QMouseEvent
libQt3Support.so.4:_ZN10Q3ComboBox17setAutoCompletionEb
libQt3Support.so.4:_ZN10Q3ComboBox18setInsertionPolicyENS_6PolicyE
libQt3Support.so.4:_ZN10Q3ComboBox20internalClickTimeoutEv
libQt3Support.so.4:_ZN10Q3ComboBox20setDuplicatesEnabledEb
libQt3Support.so.4:_ZN10Q3ComboBox21mouseDoubleClickEventEP11QMouseEvent
libQt3Support.so.4:_ZN10Q3ComboBox4hideEv
libQt3Support.so.4:_ZN10Q3ComboBox5clearEv
libQt3Support.so.4:_ZN10Q3ComboBox5popupEv
libQt3Support.so.4:_ZN10Q3ComboBox7reIndexEv
libQt3Support.so.4:_ZN10Q3ComboBox7setFontERK5QFont
libQt3Support.so.4:_ZN10Q3ComboBox9activatedERK7QString
libQt3Support.so.4:_ZN10Q3ComboBox9activatedEi
libQt3Support.so.4:_ZN10Q3ComboBox9clearEditEv
libQt3Support.so.4:_ZN10Q3ComboBoxC1EP7QWidgetPKc
libQt3Support.so.4:_ZN10Q3ComboBoxC1EbP7QWidgetPKc
libQt3Support.so.4:_ZN10Q3ComboBoxC2EP7QWidgetPKc
libQt3Support.so.4:_ZN10Q3ComboBoxC2EbP7QWidgetPKc
libQt3Support.so.4:_ZN10Q3ComboBoxD0Ev
libQt3Support.so.4:_ZN10Q3ComboBoxD1Ev
libQt3Support.so.4:_ZN10Q3ComboBoxD2Ev
libQt3Support.so.4:_ZN10Q3DataView10readFieldsEv
libQt3Support.so.4:_ZN10Q3DataView11clearValuesEv
libQt3Support.so.4:_ZN10Q3DataView11qt_metacallEN11QMetaObject4CallEiPPv
libQt3Support.so.4:_ZN10Q3DataView11qt_metacastEPKc
libQt3Support.so.4:_ZN10Q3DataView11writeFieldsEv
libQt3Support.so.4:_ZN10Q3DataView4formEv
libQt3Support.so.4:_ZN10Q3DataView6recordEv
libQt3Support.so.4:_ZN10Q3DataView7refreshEP10QSqlRecord
libQt3Support.so.4:_ZN10Q3DataView7setFormEP9Q3SqlForm
libQt3Support.so.4:_ZN10Q3DataView9setRecordEP10QSqlRecord
libQt3Support.so.4:_ZN10Q3DataViewC1EP7QWidgetPKc6QFlagsIN2Qt10WindowTypeEE
libQt3Support.so.4:_ZN10Q3DataViewC2EP7QWidgetPKc6QFlagsIN2Qt10WindowTypeEE
libQt3Support.so.4:_ZN10Q3DataViewD0Ev
libQt3Support.so.4:_ZN10Q3DataViewD1Ev
libQt3Support.so.4:_ZN10Q3DataViewD2Ev
libQt3Support.so.4:_ZN10Q3DateEdit10timerEventEP11QTimerEvent
libQt3Support.so.4:_ZN10Q3DateEdit11qt_metacallEN11QMetaObject4CallEiPPv
libQt3Support.so.4:_ZN10Q3DateEdit11qt_metacastEPKc
libQt3Support.so.4:_ZN10Q3DateEdit11resizeEventEP12QResizeEvent
libQt3Support.so.4:_ZN10Q3DateEdit12setSeparatorERK7QString
libQt3Support.so.4:_ZN10Q3DateEdit12valueChangedERK5QDate
libQt3Support.so.4:_ZN10Q3DateEdit13updateButtonsEv
libQt3Support.so.4:_ZN10Q3DateEdit14setAutoAdvanceEb
libQt3Support.so.4:_ZN10Q3DateEdit15setFocusSectionEi
libQt3Support.so.4:_ZN10Q3DateEdit16removeLastNumberEi
libQt3Support.so.4:_ZN10Q3DateEdit17removeFirstNumberEi
libQt3Support.so.4:_ZN10Q3DateEdit20sectionFormattedTextEi
libQt3Support.so.4:_ZN10Q3DateEdit3fixEv
libQt3Support.so.4:_ZN10Q3DateEdit4initEv
libQt3Support.so.4:_ZN10Q3DateEdit5eventEP6QEvent
libQt3Support.so.4:_ZN10Q3DateEdit6setDayEi
libQt3Support.so.4:_ZN10Q3DateEdit6stepUpEv
libQt3Support.so.4:_ZN10Q3DateEdit7setDateERK5QDate
libQt3Support.so.4:_ZN10Q3DateEdit7setYearEi
libQt3Support.so.4:_ZN10Q3DateEdit8setMonthEi
libQt3Support.so.4:_ZN10Q3DateEdit8setOrderENS_5OrderE
libQt3Support.so.4:_ZN10Q3DateEdit8setRangeERK5QDateS2_
libQt3Support.so.4:_ZN10Q3DateEdit8stepDownEv
libQt3Support.so.4:_ZN10Q3DateEdit9addNumberEii
libQt3Support.so.4:_ZN10Q3DateEditC1EP7QWidgetPKc
libQt3Support.so.4:_ZN10Q3DateEditC1ERK5QDateP7QWidgetPKc
libQt3Support.so.4:_ZN10Q3DateEditC2EP7QWidgetPKc
libQt3Support.so.4:_ZN10Q3DateEditC2ERK5QDateP7QWidgetPKc
libQt3Support.so.4:_ZN10Q3DateEditD0Ev
libQt3Support.so.4:_ZN10Q3DateEditD1Ev
libQt3Support.so.4:_ZN10Q3DateEditD2Ev
libQt3Support.so.4:_ZN10Q3DockArea10dockWindowEP12Q3DockWindowPNS_14DockWindowDataE
libQt3Support.so.4:_ZN10Q3DockArea11eventFilterEP7QObjectP6QEvent
libQt3Support.so.4:_ZN10Q3DockArea11qt_metacallEN11QMetaObject4CallEiPPv
libQt3Support.so.4:_ZN10Q3DockArea11qt_metacastEPKc
libQt3Support.so.4:_ZN10Q3DockArea12updateLayoutEv
libQt3Support.so.4:_ZN10Q3DockArea13hasDockWindowEP12Q3DockWindowPi
libQt3Support.so.4:_ZN10Q3DockArea14dockWindowDataEP12Q3DockWindow
libQt3Support.so.4:_ZN10Q3DockArea14findDockWindowEP12Q3DockWindow
libQt3Support.so.4:_ZN10Q3DockArea14moveDockWindowEP12Q3DockWindowRK6QPointRK5QRectb
libQt3Support.so.4:_ZN10Q3DockArea14moveDockWindowEP12Q3DockWindowi
libQt3Support.so.4:_ZN10Q3DockArea14setFixedExtentEiP12Q3DockWindow
libQt3Support.so.4:_ZN10Q3DockArea16isLastDockWindowEP12Q3DockWindow
libQt3Support.so.4:_ZN10Q3DockArea16removeDockWindowEP12Q3DockWindowbbb
libQt3Support.so.4:_ZN10Q3DockArea17invalidNextOffsetEP12Q3DockWindow
libQt3Support.so.4:_ZN10Q3DockArea19setAcceptDockWindowEP12Q3DockWindowb
libQt3Support.so.4:_ZN10Q3DockArea20invalidateFixedSizesEv
libQt3Support.so.4:_ZN10Q3DockArea20isDockWindowAcceptedEP12Q3DockWindow
libQt3Support.so.4:_ZN10Q3DockArea6lineOfEi
libQt3Support.so.4:_ZN10Q3DockArea6lineUpEb
libQt3Support.so.4:_ZN10Q3DockArea8maxSpaceEiP12Q3DockWindow
libQt3Support.so.4:_ZN10Q3DockAreaC1EN2Qt11OrientationENS_14HandlePositionEP7QWidgetPKc
libQt3Support.so.4:_ZN10Q3DockAreaC2EN2Qt11OrientationENS_14HandlePositionEP7QWidgetPKc
libQt3Support.so.4:_ZN10Q3DockAreaD0Ev
libQt3Support.so.4:_ZN10Q3DockAreaD1Ev
libQt3Support.so.4:_ZN10Q3DockAreaD2Ev
libQt3Support.so.4:_ZN10Q3DropSiteC1EP7QWidget
libQt3Support.so.4:_ZN10Q3DropSiteC2EP7QWidget
libQt3Support.so.4:_ZN10Q3DropSiteD0Ev
libQt3Support.so.4:_ZN10Q3DropSiteD1Ev
libQt3Support.so.4:_ZN10Q3DropSiteD2Ev
libQt3Support.so.4:_ZN10Q3GridView10setNumColsEi
libQt3Support.so.4:_ZN10Q3GridView10setNumRowsEi
libQt3Support.so.4:_ZN10Q3GridView10updateCellEii
libQt3Support.so.4:_ZN10Q3GridView10updateGridEv
libQt3Support.so.4:_ZN10Q3GridView11qt_metacallEN11QMetaObject4CallEiPPv
libQt3Support.so.4:_ZN10Q3GridView11qt_metacastEPKc
libQt3Support.so.4:_ZN10Q3GridView11repaintCellEiib
libQt3Support.so.4:_ZN10Q3GridView12cellGeometryEii
libQt3Support.so.4:_ZN10Q3GridView12drawContentsEP8QPainter
libQt3Support.so.4:_ZN10Q3GridView12drawContentsEP8QPainteriiii
libQt3Support.so.4:_ZN10Q3GridView12setCellWidthEi
libQt3Support.so.4:_ZN10Q3GridView13setCellHeightEi
libQt3Support.so.4:_ZN10Q3GridView14paintEmptyAreaEP8QPainteriiii
libQt3Support.so.4:_ZN10Q3GridView15dimensionChangeEii
libQt3Support.so.4:_ZN10Q3GridView17ensureCellVisibleEii
libQt3Support.so.4:_ZN10Q3GridViewC1EP7QWidgetPKc6QFlagsIN2Qt10WindowTypeEE
libQt3Support.so.4:_ZN10Q3GridViewC2EP7QWidgetPKc6QFlagsIN2Qt10WindowTypeEE
libQt3Support.so.4:_ZN10Q3GridViewD0Ev
libQt3Support.so.4:_ZN10Q3GridViewD1Ev
libQt3Support.so.4:_ZN10Q3GridViewD2Ev
libQt3Support.so.4:_ZN10Q3GroupBox10childEventEP11QChildEvent
libQt3Support.so.4:_ZN10Q3GroupBox10setColumnsEi
libQt3Support.so.4:_ZN10Q3GroupBox11changeEventEP6QEvent
libQt3Support.so.4:_ZN10Q3GroupBox11qt_metacallEN11QMetaObject4CallEiPPv
libQt3Support.so.4:_ZN10Q3GroupBox11qt_metacastEPKc
libQt3Support.so.4:_ZN10Q3GroupBox11resizeEventEP12QResizeEvent
libQt3Support.so.4:_ZN10Q3GroupBox12setFrameRectE5QRect
libQt3Support.so.4:_ZN10Q3GroupBox12setLineWidthEi
libQt3Support.so.4:_ZN10Q3GroupBox13setFrameShapeENS_10DummyFrameE
libQt3Support.so.4:_ZN10Q3GroupBox13setFrameStyleEi
libQt3Support.so.4:_ZN10Q3GroupBox14setFrameShadowENS_10DummyFrameE
libQt3Support.so.4:_ZN10Q3GroupBox14setOrientationEN2Qt11OrientationE
libQt3Support.so.4:_ZN10Q3GroupBox15setColumnLayoutEiN2Qt11OrientationE
libQt3Support.so.4:_ZN10Q3GroupBox15setInsideMarginEi
libQt3Support.so.4:_ZN10Q3GroupBox15setMidLineWidthEi
libQt3Support.so.4:_ZN10Q3GroupBox16setInsideSpacingEi
libQt3Support.so.4:_ZN10Q3GroupBox4initEv
libQt3Support.so.4:_ZN10Q3GroupBox4skipEv
libQt3Support.so.4:_ZN10Q3GroupBox5eventEP6QEvent
libQt3Support.so.4:_ZN10Q3GroupBox8addSpaceEi
libQt3Support.so.4:_ZN10Q3GroupBox9drawFrameEP8QPainter
libQt3Support.so.4:_ZN10Q3GroupBox9insertWidEP7QWidget
libQt3Support.so.4:_ZN10Q3GroupBoxC1EP7QWidgetPKc
libQt3Support.so.4:_ZN10Q3GroupBoxC1ERK7QStringP7QWidgetPKc
libQt3Support.so.4:_ZN10Q3GroupBoxC1EiN2Qt11OrientationEP7QWidgetPKc
libQt3Support.so.4:_ZN10Q3GroupBoxC1EiN2Qt11OrientationERK7QStringP7QWidgetPKc
libQt3Support.so.4:_ZN10Q3GroupBoxC2EP7QWidgetPKc
libQt3Support.so.4:_ZN10Q3GroupBoxC2ERK7QStringP7QWidgetPKc
libQt3Support.so.4:_ZN10Q3GroupBoxC2EiN2Qt11OrientationEP7QWidgetPKc
libQt3Support.so.4:_ZN10Q3GroupBoxC2EiN2Qt11OrientationERK7QStringP7QWidgetPKc
libQt3Support.so.4:_ZN10Q3GroupBoxD0Ev
libQt3Support.so.4:_ZN10Q3GroupBoxD1Ev
libQt3Support.so.4:_ZN10Q3GroupBoxD2Ev
libQt3Support.so.4:_ZN10Q3IconDrag11qt_metacallEN11QMetaObject4CallEiPPv
libQt3Support.so.4:_ZN10Q3IconDrag11qt_metacastEPKc
libQt3Support.so.4:_ZN10Q3IconDrag6appendERK14Q3IconDragItemRK5QRectS5_
libQt3Support.so.4:_ZN10Q3IconDrag9canDecodeEP11QMimeSource
libQt3Support.so.4:_ZN10Q3IconDragC1EP7QWidgetPKc
libQt3Support.so.4:_ZN10Q3IconDragC2EP7QWidgetPKc
libQt3Support.so.4:_ZN10Q3IconDragD0Ev
libQt3Support.so.4:_ZN10Q3IconDragD1Ev
libQt3Support.so.4:_ZN10Q3IconDragD2Ev
libQt3Support.so.4:_ZN10Q3IconView10dragObjectEv
libQt3Support.so.4:_ZN10Q3IconView10drawRubberEP8QPainter
libQt3Support.so.4:_ZN10Q3IconView10enterEventEP6QEvent
libQt3Support.so.4:_ZN10Q3IconView10insertItemEP14Q3IconViewItemS1_
libQt3Support.so.4:_ZN10Q3IconView10onViewportEv
libQt3Support.so.4:_ZN10Q3IconView10setSortingEbb
libQt3Support.so.4:_ZN10Q3IconView10setSpacingEi
libQt3Support.so.4:_ZN10Q3IconView10slotUpdateEv
libQt3Support.so.4:_ZN10Q3IconView11adjustItemsEv
libQt3Support.so.4:_ZN10Q3IconView11changeEventEP6QEvent
libQt3Support.so.4:_ZN10Q3IconView11emitRenamedEP14Q3IconViewItem
libQt3Support.so.4:_ZN10Q3IconView11eventFilterEP7QObjectP6QEvent
libQt3Support.so.4:_ZN10Q3IconView11itemRenamedEP14Q3IconViewItem
libQt3Support.so.4:_ZN10Q3IconView11itemRenamedEP14Q3IconViewItemRK7QString
libQt3Support.so.4:_ZN10Q3IconView11qt_metacallEN11QMetaObject4CallEiPPv
libQt3Support.so.4:_ZN10Q3IconView11qt_metacastEPKc
libQt3Support.so.4:_ZN10Q3IconView11repaintItemEP14Q3IconViewItem
libQt3Support.so.4:_ZN10Q3IconView11resizeEventEP12QResizeEvent
libQt3Support.so.4:_ZN10Q3IconView11setSelectedEP14Q3IconViewItembb
libQt3Support.so.4:_ZN10Q3IconView12doAutoScrollEv
libQt3Support.so.4:_ZN10Q3IconView12drawContentsEP8QPainteriiii
libQt3Support.so.4:_ZN10Q3IconView12focusInEventEP11QFocusEvent
libQt3Support.so.4:_ZN10Q3IconView12insertInGridEP14Q3IconViewItem
libQt3Support.so.4:_ZN10Q3IconView13doubleClickedEP14Q3IconViewItem
libQt3Support.so.4:_ZN10Q3IconView13focusOutEventEP11QFocusEvent
libQt3Support.so.4:_ZN10Q3IconView13initDragEnterEP10QDropEvent
libQt3Support.so.4:_ZN10Q3IconView13keyPressEventEP9QKeyEvent
libQt3Support.so.4:_ZN10Q3IconView13makeRowLayoutEP14Q3IconViewItemRiRb
libQt3Support.so.4:_ZN10Q3IconView13movedContentsEii
libQt3Support.so.4:_ZN10Q3IconView13returnPressedEP14Q3IconViewItem
libQt3Support.so.4:_ZN10Q3IconView13setResizeModeENS_10ResizeModeE
libQt3Support.so.4:_ZN10Q3IconView14clearSelectionEv
libQt3Support.so.4:_ZN10Q3IconView14currentChangedEP14Q3IconViewItem
libQt3Support.so.4:_ZN10Q3IconView14drawBackgroundEP8QPainterRK5QRect
libQt3Support.so.4:_ZN10Q3IconView14drawDragShapesERK6QPoint
libQt3Support.so.4:_ZN10Q3IconView14findItemByNameEP14Q3IconViewItem
libQt3Support.so.4:_ZN10Q3IconView14setArrangementENS_11ArrangementE
libQt3Support.so.4:_ZN10Q3IconView14setAutoArrangeEb
libQt3Support.so.4:_ZN10Q3IconView14setContentsPosEii
libQt3Support.so.4:_ZN10Q3IconView14setCurrentItemEP14Q3IconViewItem
libQt3Support.so.4:_ZN10Q3IconView14setItemTextPosENS_11ItemTextPosE
libQt3Support.so.4:_ZN10Q3IconView14updateContentsEv
libQt3Support.so.4:_ZN10Q3IconView15invertSelectionEv
libQt3Support.so.4:_ZN10Q3IconView15setItemsMovableEb
libQt3Support.so.4:_ZN10Q3IconView15setMaxItemWidthEi
libQt3Support.so.4:_ZN10Q3IconView15setShowToolTipsEb
libQt3Support.so.4:_ZN10Q3IconView16handleItemChangeEP14Q3IconViewItembbb
libQt3Support.so.4:_ZN10Q3IconView16selectionChangedEP14Q3IconViewItem
libQt3Support.so.4:_ZN10Q3IconView16selectionChangedEv
libQt3Support.so.4:_ZN10Q3IconView16setSelectionModeENS_13SelectionModeE
libQt3Support.so.4:_ZN10Q3IconView17contentsDropEventEP10QDropEvent
libQt3Support.so.4:_ZN10Q3IconView17ensureItemVisibleEP14Q3IconViewItem
libQt3Support.so.4:_ZN10Q3IconView17rebuildContainersEv
libQt3Support.so.4:_ZN10Q3IconView18arrangeItemsInGridERK5QSizeb
libQt3Support.so.4:_ZN10Q3IconView18arrangeItemsInGridEb
libQt3Support.so.4:_ZN10Q3IconView18mouseButtonClickedEiP14Q3IconViewItemRK6QPoint
libQt3Support.so.4:_ZN10Q3IconView18mouseButtonPressedEiP14Q3IconViewItemRK6QPoint
libQt3Support.so.4:_ZN10Q3IconView18rightButtonClickedEP14Q3IconViewItemRK6QPoint
libQt3Support.so.4:_ZN10Q3IconView18rightButtonPressedEP14Q3IconViewItemRK6QPoint
libQt3Support.so.4:_ZN10Q3IconView19appendItemContainerEv
libQt3Support.so.4:_ZN10Q3IconView19setWordWrapIconTextEb
libQt3Support.so.4:_ZN10Q3IconView19updateItemContainerEP14Q3IconViewItem
libQt3Support.so.4:_ZN10Q3IconView20contextMenuRequestedEP14Q3IconViewItemRK6QPoint
libQt3Support.so.4:_ZN10Q3IconView20emitSelectionChangedEP14Q3IconViewItem
libQt3Support.so.4:_ZN10Q3IconView20repaintSelectedItemsEv
libQt3Support.so.4:_ZN10Q3IconView20setMaxItemTextLengthEi
libQt3Support.so.4:_ZN10Q3IconView21contentsDragMoveEventEP14QDragMoveEvent
libQt3Support.so.4:_ZN10Q3IconView21setItemTextBackgroundERK6QBrush
libQt3Support.so.4:_ZN10Q3IconView22contentsDragEnterEventEP15QDragEnterEvent
libQt3Support.so.4:_ZN10Q3IconView22contentsDragLeaveEventEP15QDragLeaveEvent
libQt3Support.so.4:_ZN10Q3IconView22contentsMouseMoveEventEP11QMouseEvent
libQt3Support.so.4:_ZN10Q3IconView23contentsMousePressEventEP11QMouseEvent
libQt3Support.so.4:_ZN10Q3IconView24contentsContextMenuEventEP17QContextMenuEvent
libQt3Support.so.4:_ZN10Q3IconView25contentsMousePressEventExEP11QMouseEvent
libQt3Support.so.4:_ZN10Q3IconView25contentsMouseReleaseEventEP11QMouseEvent
libQt3Support.so.4:_ZN10Q3IconView29contentsMouseDoubleClickEventEP11QMouseEvent
libQt3Support.so.4:_ZN10Q3IconView4sortEb
libQt3Support.so.4:_ZN10Q3IconView5clearEv
libQt3Support.so.4:_ZN10Q3IconView5movedEv
libQt3Support.so.4:_ZN10Q3IconView6onItemEP14Q3IconViewItem
libQt3Support.so.4:_ZN10Q3IconView7clickedEP14Q3IconViewItem
libQt3Support.so.4:_ZN10Q3IconView7clickedEP14Q3IconViewItemRK6QPoint
libQt3Support.so.4:_ZN10Q3IconView7droppedEP10QDropEventRK11Q3ValueListI14Q3IconDragItemE
libQt3Support.so.4:_ZN10Q3IconView7pressedEP14Q3IconViewItem
libQt3Support.so.4:_ZN10Q3IconView7pressedEP14Q3IconViewItemRK6QPoint
libQt3Support.so.4:_ZN10Q3IconView8setGridXEi
libQt3Support.so.4:_ZN10Q3IconView8setGridYEi
libQt3Support.so.4:_ZN10Q3IconView8takeItemEP14Q3IconViewItem
libQt3Support.so.4:_ZN10Q3IconView9selectAllEb
libQt3Support.so.4:_ZN10Q3IconView9showEventEP10QShowEvent
libQt3Support.so.4:_ZN10Q3IconView9startDragEv
libQt3Support.so.4:_ZN10Q3IconViewC1EP7QWidgetPKc6QFlagsIN2Qt10WindowTypeEE
libQt3Support.so.4:_ZN10Q3IconViewC2EP7QWidgetPKc6QFlagsIN2Qt10WindowTypeEE
libQt3Support.so.4:_ZN10Q3IconViewD0Ev
libQt3Support.so.4:_ZN10Q3IconViewD1Ev
libQt3Support.so.4:_ZN10Q3IconViewD2Ev
libQt3Support.so.4:_ZN10Q3ListView10clearRangeEP14Q3ListViewItemS1_b
libQt3Support.so.4:_ZN10Q3ListView10dragObjectEv
libQt3Support.so.4:_ZN10Q3ListView10hideColumnEi
libQt3Support.so.4:_ZN10Q3ListView10insertItemEP14Q3ListViewItem
libQt3Support.so.4:_ZN10Q3ListView10onViewportEv
libQt3Support.so.4:_ZN10Q3ListView10setSortingEib
libQt3Support.so.4:_ZN10Q3ListView11changeEventEP6QEvent
libQt3Support.so.4:_ZN10Q3ListView11eventFilterEP7QObjectP6QEvent
libQt3Support.so.4:_ZN10Q3ListView11itemRenamedEP14Q3ListViewItemi
libQt3Support.so.4:_ZN10Q3ListView11itemRenamedEP14Q3ListViewItemiRK7QString
libQt3Support.so.4:_ZN10Q3ListView11makeVisibleEv
libQt3Support.so.4:_ZN10Q3ListView11qt_metacallEN11QMetaObject4CallEiPPv
libQt3Support.so.4:_ZN10Q3ListView11qt_metacastEPKc
libQt3Support.so.4:_ZN10Q3ListView11resizeEventEP12QResizeEvent
libQt3Support.so.4:_ZN10Q3ListView11selectRangeEP14Q3ListViewItemS1_S1_
libQt3Support.so.4:_ZN10Q3ListView11selectRangeEP14Q3ListViewItemS1_bbb
libQt3Support.so.4:_ZN10Q3ListView11setSelectedEP14Q3ListViewItemb
libQt3Support.so.4:_ZN10Q3ListView11startRenameEv
libQt3Support.so.4:_ZN10Q3ListView12adjustColumnEi
libQt3Support.so.4:_ZN10Q3ListView12doAutoScrollERK6QPoint
libQt3Support.so.4:_ZN10Q3ListView12doAutoScrollEv
libQt3Support.so.4:_ZN10Q3ListView12focusInEventEP11QFocusEvent
libQt3Support.so.4:_ZN10Q3ListView12removeColumnEi
libQt3Support.so.4:_ZN10Q3ListView12setSortOrderEN2Qt9SortOrderE
libQt3Support.so.4:_ZN10Q3ListView12spacePressedEP14Q3ListViewItem
libQt3Support.so.4:_ZN10Q3ListView12widthChangedEPK14Q3ListViewItemi
libQt3Support.so.4:_ZN10Q3ListView13doubleClickedEP14Q3ListViewItem
libQt3Support.so.4:_ZN10Q3ListView13doubleClickedEP14Q3ListViewItemRK6QPointi
libQt3Support.so.4:_ZN10Q3ListView13focusOutEventEP11QFocusEvent
libQt3Support.so.4:_ZN10Q3ListView13keyPressEventEP9QKeyEvent
libQt3Support.so.4:_ZN10Q3ListView13openFocusItemEv
libQt3Support.so.4:_ZN10Q3ListView13returnPressedEP14Q3ListViewItem
libQt3Support.so.4:_ZN10Q3ListView13setColumnTextEiRK5QIconRK7QString
libQt3Support.so.4:_ZN10Q3ListView13setColumnTextEiRK7QString
libQt3Support.so.4:_ZN10Q3ListView13setItemMarginEi
libQt3Support.so.4:_ZN10Q3ListView13setResizeModeENS_10ResizeModeE
libQt3Support.so.4:_ZN10Q3ListView13setSortColumnEi
libQt3Support.so.4:_ZN10Q3ListView13triggerUpdateEv
libQt3Support.so.4:_ZN10Q3ListView14clearSelectionEv
libQt3Support.so.4:_ZN10Q3ListView14currentChangedEP14Q3ListViewItem
libQt3Support.so.4:_ZN10Q3ListView14paintEmptyAreaEP8QPainterRK5QRect
libQt3Support.so.4:_ZN10Q3ListView14setColumnWidthEii
libQt3Support.so.4:_ZN10Q3ListView14setContentsPosEii
libQt3Support.so.4:_ZN10Q3ListView14setCurrentItemEP14Q3ListViewItem
libQt3Support.so.4:_ZN10Q3ListView14updateContentsEv
libQt3Support.so.4:_ZN10Q3ListView15invertSelectionEv
libQt3Support.so.4:_ZN10Q3ListView15setShowToolTipsEb
libQt3Support.so.4:_ZN10Q3ListView15setTreeStepSizeEi
libQt3Support.so.4:_ZN10Q3ListView16changeSortColumnEi
libQt3Support.so.4:_ZN10Q3ListView16handleItemChangeEP14Q3ListViewItembb
libQt3Support.so.4:_ZN10Q3ListView16handleSizeChangeEiii
libQt3Support.so.4:_ZN10Q3ListView16reconfigureItemsEv
libQt3Support.so.4:_ZN10Q3ListView16selectionChangedEP14Q3ListViewItem
libQt3Support.so.4:_ZN10Q3ListView16selectionChangedEv
libQt3Support.so.4:_ZN10Q3ListView16setSelectionModeENS_13SelectionModeE
libQt3Support.so.4:_ZN10Q3ListView16updateDirtyItemsEv
libQt3Support.so.4:_ZN10Q3ListView16updateGeometriesEv
libQt3Support.so.4:_ZN10Q3ListView17contentsDropEventEP10QDropEvent
libQt3Support.so.4:_ZN10Q3ListView17ensureItemVisibleEPK14Q3ListViewItem
libQt3Support.so.4:_ZN10Q3ListView17handleIndexChangeEv
libQt3Support.so.4:_ZN10Q3ListView17setMultiSelectionEb
libQt3Support.so.4:_ZN10Q3ListView18drawContentsOffsetEP8QPainteriiiiii
libQt3Support.so.4:_ZN10Q3ListView18mouseButtonClickedEiP14Q3ListViewItemRK6QPointi
libQt3Support.so.4:_ZN10Q3ListView18mouseButtonPressedEiP14Q3ListViewItemRK6QPointi
libQt3Support.so.4:_ZN10Q3ListView18rightButtonClickedEP14Q3ListViewItemRK6QPointi
libQt3Support.so.4:_ZN10Q3ListView18rightButtonPressedEP14Q3ListViewItemRK6QPointi
libQt3Support.so.4:_ZN10Q3ListView18setColumnAlignmentEii
libQt3Support.so.4:_ZN10Q3ListView18setColumnWidthModeEiNS_9WidthModeE
libQt3Support.so.4:_ZN10Q3ListView18setRootIsDecoratedEb
libQt3Support.so.4:_ZN10Q3ListView18setSelectionAnchorEP14Q3ListViewItem
libQt3Support.so.4:_ZN10Q3ListView19viewportResizeEventEP12QResizeEvent
libQt3Support.so.4:_ZN10Q3ListView20contextMenuRequestedEP14Q3ListViewItemRK6QPointi
libQt3Support.so.4:_ZN10Q3ListView20setShowSortIndicatorEb
libQt3Support.so.4:_ZN10Q3ListView21contentsDragMoveEventEP14QDragMoveEvent
libQt3Support.so.4:_ZN10Q3ListView22contentsDragEnterEventEP15QDragEnterEvent
libQt3Support.so.4:_ZN10Q3ListView22contentsDragLeaveEventEP15QDragLeaveEvent
libQt3Support.so.4:_ZN10Q3ListView22contentsMouseMoveEventEP11QMouseEvent
libQt3Support.so.4:_ZN10Q3ListView22setAllColumnsShowFocusEb
libQt3Support.so.4:_ZN10Q3ListView22setDefaultRenameActionENS_12RenameActionE
libQt3Support.so.4:_ZN10Q3ListView23contentsMousePressEventEP11QMouseEvent
libQt3Support.so.4:_ZN10Q3ListView24contentsContextMenuEventEP17QContextMenuEvent
libQt3Support.so.4:_ZN10Q3ListView25contentsMousePressEventExEP11QMouseEvent
libQt3Support.so.4:_ZN10Q3ListView25contentsMouseReleaseEventEP11QMouseEvent
libQt3Support.so.4:_ZN10Q3ListView27contentsMouseReleaseEventExEP11QMouseEvent
libQt3Support.so.4:_ZN10Q3ListView29contentsMouseDoubleClickEventEP11QMouseEvent
libQt3Support.so.4:_ZN10Q3ListView4initEv
libQt3Support.so.4:_ZN10Q3ListView4showEv
libQt3Support.so.4:_ZN10Q3ListView4sortEv
libQt3Support.so.4:_ZN10Q3ListView5clearEv
libQt3Support.so.4:_ZN10Q3ListView6onItemEP14Q3ListViewItem
libQt3Support.so.4:_ZN10Q3ListView7clickedEP14Q3ListViewItem
libQt3Support.so.4:_ZN10Q3ListView7clickedEP14Q3ListViewItemRK6QPointi
libQt3Support.so.4:_ZN10Q3ListView7droppedEP10QDropEvent
libQt3Support.so.4:_ZN10Q3ListView7itemPosEPK14Q3ListViewItem
libQt3Support.so.4:_ZN10Q3ListView7pressedEP14Q3ListViewItem
libQt3Support.so.4:_ZN10Q3ListView7pressedEP14Q3ListViewItemRK6QPointi
libQt3Support.so.4:_ZN10Q3ListView7setOpenEP14Q3ListViewItemb
libQt3Support.so.4:_ZN10Q3ListView8expandedEP14Q3ListViewItem
libQt3Support.so.4:_ZN10Q3ListView8takeItemEP14Q3ListViewItem
libQt3Support.so.4:_ZN10Q3ListView9addColumnERK5QIconRK7QStringi
libQt3Support.so.4:_ZN10Q3ListView9addColumnERK7QStringi
libQt3Support.so.4:_ZN10Q3ListView9collapsedEP14Q3ListViewItem
libQt3Support.so.4:_ZN10Q3ListView9selectAllEb
libQt3Support.so.4:_ZN10Q3ListView9showEventEP10QShowEvent
libQt3Support.so.4:_ZN10Q3ListView9startDragEv
libQt3Support.so.4:_ZN10Q3ListViewC1EP7QWidgetPKc6QFlagsIN2Qt10WindowTypeEE
libQt3Support.so.4:_ZN10Q3ListViewC2EP7QWidgetPKc6QFlagsIN2Qt10WindowTypeEE
libQt3Support.so.4:_ZN10Q3ListViewD0Ev
libQt3Support.so.4:_ZN10Q3ListViewD1Ev
libQt3Support.so.4:_ZN10Q3ListViewD2Ev
libQt3Support.so.4:_ZN10Q3TextDrag10setSubtypeERK7QString
libQt3Support.so.4:_ZN10Q3TextDrag11qt_metacallEN11QMetaObject4CallEiPPv
libQt3Support.so.4:_ZN10Q3TextDrag11qt_metacastEPKc
libQt3Support.so.4:_ZN10Q3TextDrag6decodeEPK11QMimeSourceR7QString
libQt3Support.so.4:_ZN10Q3TextDrag6decodeEPK11QMimeSourceR7QStringS4_
libQt3Support.so.4:_ZN10Q3TextDrag7setTextERK7QString
libQt3Support.so.4:_ZN10Q3TextDrag9canDecodeEPK11QMimeSource
libQt3Support.so.4:_ZN10Q3TextDragC1EP7QWidgetPKc
libQt3Support.so.4:_ZN10Q3TextDragC1ER17Q3TextDragPrivateP7QWidget
libQt3Support.so.4:_ZN10Q3TextDragC1ERK7QStringP7QWidgetPKc
libQt3Support.so.4:_ZN10Q3TextDragC2EP7QWidgetPKc
libQt3Support.so.4:_ZN10Q3TextDragC2ER17Q3TextDragPrivateP7QWidget
libQt3Support.so.4:_ZN10Q3TextDragC2ERK7QStringP7QWidgetPKc
libQt3Support.so.4:_ZN10Q3TextDragD0Ev
libQt3Support.so.4:_ZN10Q3TextDragD1Ev
libQt3Support.so.4:_ZN10Q3TextDragD2Ev
libQt3Support.so.4:_ZN10Q3TextEdit10drawCursorEb
libQt3Support.so.4:_ZN10Q3TextEdit10formatMoreEv
libQt3Support.so.4:_ZN10Q3TextEdit10lineOfCharEii
libQt3Support.so.4:_ZN10Q3TextEdit10moveCursorENS_12CursorActionE
libQt3Support.so.4:_ZN10Q3TextEdit10moveCursorENS_12CursorActionEb
libQt3Support.so.4:_ZN10Q3TextEdit10normalCopyEv
libQt3Support.so.4:_ZN10Q3TextEdit11blinkCursorEv
libQt3Support.so.4:_ZN10Q3TextEdit11changeEventEP6QEvent
libQt3Support.so.4:_ZN10Q3TextEdit11eventFilterEP7QObjectP6QEvent
libQt3Support.so.4:_ZN10Q3TextEdit11optimAppendERK7QString
libQt3Support.so.4:_ZN10Q3TextEdit11optimInsertERK7QStringii
libQt3Support.so.4:_ZN10Q3TextEdit11pickSpecialEP11QMimeSourcebRK6QPoint
libQt3Support.so.4:_ZN10Q3TextEdit11placeCursorERK6QPointP12Q3TextCursor
libQt3Support.so.4:_ZN10Q3TextEdit11placeCursorERK6QPointP12Q3TextCursorb
libQt3Support.so.4:_ZN10Q3TextEdit11polishEventEP6QEvent
libQt3Support.so.4:_ZN10Q3TextEdit11qt_metacallEN11QMetaObject4CallEiPPv
libQt3Support.so.4:_ZN10Q3TextEdit11qt_metacastEPKc
libQt3Support.so.4:_ZN10Q3TextEdit11readFormatsER12Q3TextCursorS1_R12Q3TextStringb
libQt3Support.so.4:_ZN10Q3TextEdit11resetFormatEv
libQt3Support.so.4:_ZN10Q3TextEdit11resizeEventEP12QResizeEvent
libQt3Support.so.4:_ZN10Q3TextEdit11setDocumentEP14Q3TextDocument
libQt3Support.so.4:_ZN10Q3TextEdit11setModifiedEb
libQt3Support.so.4:_ZN10Q3TextEdit11setModifiedEv
libQt3Support.so.4:_ZN10Q3TextEdit11setReadOnlyEb
libQt3Support.so.4:_ZN10Q3TextEdit11setWordWrapENS_8WordWrapE
libQt3Support.so.4:_ZN10Q3TextEdit11textChangedEv
libQt3Support.so.4:_ZN10Q3TextEdit12UndoRedoInfo5clearEv
libQt3Support.so.4:_ZN10Q3TextEdit12UndoRedoInfoC1EP14Q3TextDocument
libQt3Support.so.4:_ZN10Q3TextEdit12UndoRedoInfoC2EP14Q3TextDocument
libQt3Support.so.4:_ZN10Q3TextEdit12UndoRedoInfoD1Ev
libQt3Support.so.4:_ZN10Q3TextEdit12UndoRedoInfoD2Ev
libQt3Support.so.4:_ZN10Q3TextEdit12drawContentsEP8QPainter
libQt3Support.so.4:_ZN10Q3TextEdit12drawContentsEP8QPainteriiii
libQt3Support.so.4:_ZN10Q3TextEdit12optimSetTextERK7QString
libQt3Support.so.4:_ZN10Q3TextEdit12pasteSpecialERK6QPoint
libQt3Support.so.4:_ZN10Q3TextEdit12pasteSubTypeERK10QByteArray
libQt3Support.so.4:_ZN10Q3TextEdit12pasteSubTypeERK10QByteArrayP11QMimeSource
libQt3Support.so.4:_ZN10Q3TextEdit12setAlignmentEi
libQt3Support.so.4:_ZN10Q3TextEdit12setParagTypeEN16Q3StyleSheetItem11DisplayModeENS0_9ListStyleE
libQt3Support.so.4:_ZN10Q3TextEdit12setPointSizeEi
libQt3Support.so.4:_ZN10Q3TextEdit12setSelectionEiiiii
libQt3Support.so.4:_ZN10Q3TextEdit12setUnderlineEb
libQt3Support.so.4:_ZN10Q3TextEdit12setUndoDepthEi
libQt3Support.so.4:_ZN10Q3TextEdit12updateCursorERK6QPoint
libQt3Support.so.4:_ZN10Q3TextEdit12updateStylesEv
libQt3Support.so.4:_ZN10Q3TextEdit13clearUndoRedoEv
libQt3Support.so.4:_ZN10Q3TextEdit13copyAvailableEb
libQt3Support.so.4:_ZN10Q3TextEdit13doubleClickedEii
libQt3Support.so.4:_ZN10Q3TextEdit13keyPressEventEP9QKeyEvent
libQt3Support.so.4:_ZN10Q3TextEdit13paintDocumentEbP8QPainteriiii
libQt3Support.so.4:_ZN10Q3TextEdit13redoAvailableEb
libQt3Support.so.4:_ZN10Q3TextEdit13returnPressedEv
libQt3Support.so.4:_ZN10Q3TextEdit13setStyleSheetEP12Q3StyleSheet
libQt3Support.so.4:_ZN10Q3TextEdit13setTextFormatEN2Qt10TextFormatE
libQt3Support.so.4:_ZN10Q3TextEdit13setWrapPolicyENS_10WrapPolicyE
libQt3Support.so.4:_ZN10Q3TextEdit13undoAvailableEb
libQt3Support.so.4:_ZN10Q3TextEdit14checkOptimModeEv
libQt3Support.so.4:_ZN10Q3TextEdit14optimAppendTagEiRK7QString
libQt3Support.so.4:_ZN10Q3TextEdit14optimInsertTagEiiRK7QString
libQt3Support.so.4:_ZN10Q3TextEdit14optimParseTagsEP7QStringii
libQt3Support.so.4:_ZN10Q3TextEdit14optimSelectAllEv
libQt3Support.so.4:_ZN10Q3TextEdit14repaintChangedEv
libQt3Support.so.4:_ZN10Q3TextEdit14scrollToAnchorERK7QString
libQt3Support.so.4:_ZN10Q3TextEdit14scrollToBottomEv
libQt3Support.so.4:_ZN10Q3TextEdit14setMaxLogLinesEi
libQt3Support.so.4:_ZN10Q3TextEdit14sliderReleasedEv
libQt3Support.so.4:_ZN10Q3TextEdit15copyToClipboardEv
libQt3Support.so.4:_ZN10Q3TextEdit15createPopupMenuERK6QPoint
libQt3Support.so.4:_ZN10Q3TextEdit15createPopupMenuEv
libQt3Support.so.4:_ZN10Q3TextEdit15ensureFormattedEP15Q3TextParagraph
libQt3Support.so.4:_ZN10Q3TextEdit15handleMouseMoveERK6QPoint
libQt3Support.so.4:_ZN10Q3TextEdit15insertParagraphERK7QStringi
libQt3Support.so.4:_ZN10Q3TextEdit15optimCheckLimitERK7QString
libQt3Support.so.4:_ZN10Q3TextEdit15removeParagraphEi
libQt3Support.so.4:_ZN10Q3TextEdit15removeSelectionEi
libQt3Support.so.4:_ZN10Q3TextEdit15setFontInternalERK5QFont
libQt3Support.so.4:_ZN10Q3TextEdit15setTabStopWidthEi
libQt3Support.so.4:_ZN10Q3TextEdit16clipboardChangedEv
libQt3Support.so.4:_ZN10Q3TextEdit16doChangeIntervalEv
libQt3Support.so.4:_ZN10Q3TextEdit16doKeyboardActionENS_14KeyboardActionE
libQt3Support.so.4:_ZN10Q3TextEdit16inputMethodEventEP17QInputMethodEvent
libQt3Support.so.4:_ZN10Q3TextEdit16makeParagVisibleEP15Q3TextParagraph
libQt3Support.so.4:_ZN10Q3TextEdit16selectionChangedEv
libQt3Support.so.4:_ZN10Q3TextEdit16setLinkUnderlineEb
libQt3Support.so.4:_ZN10Q3TextEdit17checkUndoRedoInfoENS_12UndoRedoInfo4TypeE
libQt3Support.so.4:_ZN10Q3TextEdit17contentsDropEventEP10QDropEvent
libQt3Support.so.4:_ZN10Q3TextEdit17optimDoAutoScrollEv
libQt3Support.so.4:_ZN10Q3TextEdit17optimDrawContentsEP8QPainteriiii
libQt3Support.so.4:_ZN10Q3TextEdit17optimSetSelectionEiiii
libQt3Support.so.4:_ZN10Q3TextEdit17setAutoFormattingE6QFlagsINS_18AutoFormattingFlagEE
libQt3Support.so.4:_ZN10Q3TextEdit17setCursorPositionEii
libQt3Support.so.4:_ZN10Q3TextEdit18contentsWheelEventEP11QWheelEvent
libQt3Support.so.4:_ZN10Q3TextEdit18currentFontChangedERK5QFont
libQt3Support.so.4:_ZN10Q3TextEdit18focusNextPrevChildEb
libQt3Support.so.4:_ZN10Q3TextEdit18getParagraphFormatEiP5QFontP6QColorPNS_17VerticalAlignmentEPiPN16Q3StyleSheetItem11DisplayModeEPNS7_9ListStyleES6_
libQt3Support.so.4:_ZN10Q3TextEdit18optimSetTextFormatEP14Q3TextDocumentP12Q3TextCursorP12Q3TextFormatiiPN22Q3TextEditOptimPrivate3TagE
libQt3Support.so.4:_ZN10Q3TextEdit18removeSelectedTextEi
libQt3Support.so.4:_ZN10Q3TextEdit18setTabChangesFocusEb
libQt3Support.so.4:_ZN10Q3TextEdit18setUndoRedoEnabledEb
libQt3Support.so.4:_ZN10Q3TextEdit19autoScrollTimerDoneEv
libQt3Support.so.4:_ZN10Q3TextEdit19currentColorChangedERK6QColor
libQt3Support.so.4:_ZN10Q3TextEdit19ensureCursorVisibleEv
libQt3Support.so.4:_ZN10Q3TextEdit19modificationChangedEb
libQt3Support.so.4:_ZN10Q3TextEdit19optimHasBoldMetricsEi
libQt3Support.so.4:_ZN10Q3TextEdit19optimMouseMoveEventEP11QMouseEvent
libQt3Support.so.4:_ZN10Q3TextEdit19updateCurrentFormatEv
libQt3Support.so.4:_ZN10Q3TextEdit19viewportResizeEventEP12QResizeEvent
libQt3Support.so.4:_ZN10Q3TextEdit20documentWidthChangedEi
libQt3Support.so.4:_ZN10Q3TextEdit20optimMousePressEventEP11QMouseEvent
libQt3Support.so.4:_ZN10Q3TextEdit20optimPreviousLeftTagEi
libQt3Support.so.4:_ZN10Q3TextEdit20optimRemoveSelectionEv
libQt3Support.so.4:_ZN10Q3TextEdit20setMimeSourceFactoryEP19Q3MimeSourceFactory
libQt3Support.so.4:_ZN10Q3TextEdit20setVerticalAlignmentENS_17VerticalAlignmentE
libQt3Support.so.4:_ZN10Q3TextEdit20setWrapColumnOrWidthEi
libQt3Support.so.4:_ZN10Q3TextEdit21contentsDragMoveEventEP14QDragMoveEvent
libQt3Support.so.4:_ZN10Q3TextEdit21cursorPositionChangedEP12Q3TextCursor
libQt3Support.so.4:_ZN10Q3TextEdit21cursorPositionChangedEii
libQt3Support.so.4:_ZN10Q3TextEdit22contentsDragEnterEventEP15QDragEnterEvent
libQt3Support.so.4:_ZN10Q3TextEdit22contentsDragLeaveEventEP15QDragLeaveEvent
libQt3Support.so.4:_ZN10Q3TextEdit22contentsMouseMoveEventEP11QMouseEvent
libQt3Support.so.4:_ZN10Q3TextEdit22handleReadOnlyKeyEventEP9QKeyEvent
libQt3Support.so.4:_ZN10Q3TextEdit22optimMouseReleaseEventEP11QMouseEvent
libQt3Support.so.4:_ZN10Q3TextEdit22setSelectionAttributesEiRK6QColorb
libQt3Support.so.4:_ZN10Q3TextEdit23contentsMousePressEventEP11QMouseEvent
libQt3Support.so.4:_ZN10Q3TextEdit23currentAlignmentChangedEi
libQt3Support.so.4:_ZN10Q3TextEdit24clearParagraphBackgroundEi
libQt3Support.so.4:_ZN10Q3TextEdit24contentsContextMenuEventEP17QContextMenuEvent
libQt3Support.so.4:_ZN10Q3TextEdit25contentsMouseReleaseEventEP11QMouseEvent
libQt3Support.so.4:_ZN10Q3TextEdit27setParagraphBackgroundColorEiRK6QColor
libQt3Support.so.4:_ZN10Q3TextEdit29contentsMouseDoubleClickEventEP11QMouseEvent
libQt3Support.so.4:_ZN10Q3TextEdit31currentVerticalAlignmentChangedENS_17VerticalAlignmentE
libQt3Support.so.4:_ZN10Q3TextEdit3cutEv
libQt3Support.so.4:_ZN10Q3TextEdit3delEv
libQt3Support.so.4:_ZN10Q3TextEdit4copyEv
libQt3Support.so.4:_ZN10Q3TextEdit4findERK7QStringbbbPiS3_
libQt3Support.so.4:_ZN10Q3TextEdit4initEv
libQt3Support.so.4:_ZN10Q3TextEdit4redoEv
libQt3Support.so.4:_ZN10Q3TextEdit4syncEv
libQt3Support.so.4:_ZN10Q3TextEdit4undoEv
libQt3Support.so.4:_ZN10Q3TextEdit5clearEv
libQt3Support.so.4:_ZN10Q3TextEdit5eventEP6QEvent
libQt3Support.so.4:_ZN10Q3TextEdit5pasteEv
libQt3Support.so.4:_ZN10Q3TextEdit6appendERK7QString
libQt3Support.so.4:_ZN10Q3TextEdit6indentEv
libQt3Support.so.4:_ZN10Q3TextEdit6insertERK7QStringbbb
libQt3Support.so.4:_ZN10Q3TextEdit6insertERK7QStringj
libQt3Support.so.4:_ZN10Q3TextEdit6zoomInEi
libQt3Support.so.4:_ZN10Q3TextEdit6zoomToEi
libQt3Support.so.4:_ZN10Q3TextEdit7clickedEii
libQt3Support.so.4:_ZN10Q3TextEdit7setBoldEb
libQt3Support.so.4:_ZN10Q3TextEdit7setTextERK7QStringS2_
libQt3Support.so.4:_ZN10Q3TextEdit7zoomOutEi
libQt3Support.so.4:_ZN10Q3TextEdit8anchorAtERK6QPointN2Qt15AnchorAttributeE
libQt3Support.so.4:_ZN10Q3TextEdit8doResizeEv
libQt3Support.so.4:_ZN10Q3TextEdit8insertAtERK7QStringii
libQt3Support.so.4:_ZN10Q3TextEdit8setColorERK6QColor
libQt3Support.so.4:_ZN10Q3TextEdit8setPaperERK6QBrush
libQt3Support.so.4:_ZN10Q3TextEdit9getFormatEiiP5QFontP6QColorPNS_17VerticalAlignmentE
libQt3Support.so.4:_ZN10Q3TextEdit9optimFindERK7QStringbbbPiS3_
libQt3Support.so.4:_ZN10Q3TextEdit9selectAllEb
libQt3Support.so.4:_ZN10Q3TextEdit9setFamilyERK7QString
libQt3Support.so.4:_ZN10Q3TextEdit9setFormatEP12Q3TextFormati
libQt3Support.so.4:_ZN10Q3TextEdit9setItalicEb
libQt3Support.so.4:_ZN10Q3TextEdit9startDragEv
libQt3Support.so.4:_ZN10Q3TextEditC1EP7QWidgetPKc
libQt3Support.so.4:_ZN10Q3TextEditC1ERK7QStringS2_P7QWidgetPKc
libQt3Support.so.4:_ZN10Q3TextEditC2EP7QWidgetPKc
libQt3Support.so.4:_ZN10Q3TextEditC2ERK7QStringS2_P7QWidgetPKc
libQt3Support.so.4:_ZN10Q3TextEditD0Ev
libQt3Support.so.4:_ZN10Q3TextEditD1Ev
libQt3Support.so.4:_ZN10Q3TextEditD2Ev
libQt3Support.so.4:_ZN10Q3TextFlow10adjustFlowEiii
libQt3Support.so.4:_ZN10Q3TextFlow11setPageSizeEi
libQt3Support.so.4:_ZN10Q3TextFlow13adjustLMarginEiiii
libQt3Support.so.4:_ZN10Q3TextFlow13adjustRMarginEiiii
libQt3Support.so.4:_ZN10Q3TextFlow17drawFloatingItemsEP8QPainteriiiiRK8QPaletteb
libQt3Support.so.4:_ZN10Q3TextFlow20registerFloatingItemEP16Q3TextCustomItem
libQt3Support.so.4:_ZN10Q3TextFlow22unregisterFloatingItemEP16Q3TextCustomItem
libQt3Support.so.4:_ZN10Q3TextFlow5clearEv
libQt3Support.so.4:_ZN10Q3TextFlow7isEmptyEv
libQt3Support.so.4:_ZN10Q3TextFlow8setWidthEi
libQt3Support.so.4:_ZN10Q3TextFlowC1Ev
libQt3Support.so.4:_ZN10Q3TextFlowC2Ev
libQt3Support.so.4:_ZN10Q3TextFlowD0Ev
libQt3Support.so.4:_ZN10Q3TextFlowD1Ev
libQt3Support.so.4:_ZN10Q3TextFlowD2Ev
libQt3Support.so.4:_ZN10Q3TextView11qt_metacallEN11QMetaObject4CallEiPPv
libQt3Support.so.4:_ZN10Q3TextView11qt_metacastEPKc
libQt3Support.so.4:_ZN10Q3TextViewC1EP7QWidgetPKc
libQt3Support.so.4:_ZN10Q3TextViewC1ERK7QStringS2_P7QWidgetPKc
libQt3Support.so.4:_ZN10Q3TextViewC2EP7QWidgetPKc
libQt3Support.so.4:_ZN10Q3TextViewC2ERK7QStringS2_P7QWidgetPKc
libQt3Support.so.4:_ZN10Q3TextViewD0Ev
libQt3Support.so.4:_ZN10Q3TextViewD1Ev
libQt3Support.so.4:_ZN10Q3TextViewD2Ev
libQt3Support.so.4:_ZN10Q3TimeEdit10setDisplayEj
libQt3Support.so.4:_ZN10Q3TimeEdit10timerEventEP11QTimerEvent
libQt3Support.so.4:_ZN10Q3TimeEdit11qt_metacallEN11QMetaObject4CallEiPPv
libQt3Support.so.4:_ZN10Q3TimeEdit11qt_metacastEPKc
libQt3Support.so.4:_ZN10Q3TimeEdit11resizeEventEP12QResizeEvent
libQt3Support.so.4:_ZN10Q3TimeEdit11sectionTextEi
libQt3Support.so.4:_ZN10Q3TimeEdit12setSeparatorERK7QString
libQt3Support.so.4:_ZN10Q3TimeEdit12valueChangedERK5QTime
libQt3Support.so.4:_ZN10Q3TimeEdit13updateButtonsEv
libQt3Support.so.4:_ZN10Q3TimeEdit14setAutoAdvanceEb
libQt3Support.so.4:_ZN10Q3TimeEdit15setFocusSectionEi
libQt3Support.so.4:_ZN10Q3TimeEdit16removeLastNumberEi
libQt3Support.so.4:_ZN10Q3TimeEdit17removeFirstNumberEi
libQt3Support.so.4:_ZN10Q3TimeEdit20sectionFormattedTextEi
libQt3Support.so.4:_ZN10Q3TimeEdit4initEv
libQt3Support.so.4:_ZN10Q3TimeEdit5eventEP6QEvent
libQt3Support.so.4:_ZN10Q3TimeEdit6stepUpEv
libQt3Support.so.4:_ZN10Q3TimeEdit7setHourEi
libQt3Support.so.4:_ZN10Q3TimeEdit7setTimeERK5QTime
libQt3Support.so.4:_ZN10Q3TimeEdit8setRangeERK5QTimeS2_
libQt3Support.so.4:_ZN10Q3TimeEdit8stepDownEv
libQt3Support.so.4:_ZN10Q3TimeEdit9addNumberEii
libQt3Support.so.4:_ZN10Q3TimeEdit9setMinuteEi
libQt3Support.so.4:_ZN10Q3TimeEdit9setSecondEi
libQt3Support.so.4:_ZN10Q3TimeEditC1EP7QWidgetPKc
libQt3Support.so.4:_ZN10Q3TimeEditC1ERK5QTimeP7QWidgetPKc
libQt3Support.so.4:_ZN10Q3TimeEditC2EP7QWidgetPKc
libQt3Support.so.4:_ZN10Q3TimeEditC2ERK5QTimeP7QWidgetPKc
libQt3Support.so.4:_ZN10Q3TimeEditD0Ev
libQt3Support.so.4:_ZN10Q3TimeEditD1Ev
libQt3Support.so.4:_ZN10Q3TimeEditD2Ev
libQt3Support.so.4:_ZN10Q3TitleBar10doActivateEv
libQt3Support.so.4:_ZN10Q3TitleBar10doMaximizeEv
libQt3Support.so.4:_ZN10Q3TitleBar10doMinimizeEv
libQt3Support.so.4:_ZN10Q3TitleBar10enterEventEP6QEvent
libQt3Support.so.4:_ZN10Q3TitleBar10leaveEventEP6QEvent
libQt3Support.so.4:_ZN10Q3TitleBar10paintEventEP11QPaintEvent
libQt3Support.so.4:_ZN10Q3TitleBar10setMovableEb
libQt3Support.so.4:_ZN10Q3TitleBar11changeEventEP6QEvent
libQt3Support.so.4:_ZN10Q3TitleBar11qt_metacallEN11QMetaObject4CallEiPPv
libQt3Support.so.4:_ZN10Q3TitleBar11qt_metacastEPKc
libQt3Support.so.4:_ZN10Q3TitleBar11resizeEventEP12QResizeEvent
libQt3Support.so.4:_ZN10Q3TitleBar12setAutoRaiseEb
libQt3Support.so.4:_ZN10Q3TitleBar13doubleClickedEv
libQt3Support.so.4:_ZN10Q3TitleBar14mouseMoveEventEP11QMouseEvent
libQt3Support.so.4:_ZN10Q3TitleBar15mousePressEventEP11QMouseEvent
libQt3Support.so.4:_ZN10Q3TitleBar16contextMenuEventEP17QContextMenuEvent
libQt3Support.so.4:_ZN10Q3TitleBar17mouseReleaseEventEP11QMouseEvent
libQt3Support.so.4:_ZN10Q3TitleBar17showOperationMenuEv
libQt3Support.so.4:_ZN10Q3TitleBar18popupOperationMenuERK6QPoint
libQt3Support.so.4:_ZN10Q3TitleBar18setFakeWindowFlagsE6QFlagsIN2Qt10WindowTypeEE
libQt3Support.so.4:_ZN10Q3TitleBar21mouseDoubleClickEventEP11QMouseEvent
libQt3Support.so.4:_ZN10Q3TitleBar5eventEP6QEvent
libQt3Support.so.4:_ZN10Q3TitleBar7cutTextEv
libQt3Support.so.4:_ZN10Q3TitleBar7doCloseEv
libQt3Support.so.4:_ZN10Q3TitleBar7doShadeEv
libQt3Support.so.4:_ZN10Q3TitleBar8doNormalEv
libQt3Support.so.4:_ZN10Q3TitleBar9setActiveEb
libQt3Support.so.4:_ZN10Q3TitleBarC1EP7QWidgetS1_6QFlagsIN2Qt10WindowTypeEE
libQt3Support.so.4:_ZN10Q3TitleBarC2EP7QWidgetS1_6QFlagsIN2Qt10WindowTypeEE
libQt3Support.so.4:_ZN10Q3TitleBarD0Ev
libQt3Support.so.4:_ZN10Q3TitleBarD1Ev
libQt3Support.so.4:_ZN10Q3TitleBarD2Ev
libQt3Support.so.4:_ZN11Q3ColorDrag11qt_metacallEN11QMetaObject4CallEiPPv
libQt3Support.so.4:_ZN11Q3ColorDrag11qt_metacastEPKc
libQt3Support.so.4:_ZN11Q3ColorDrag6decodeEP11QMimeSourceR6QColor
libQt3Support.so.4:_ZN11Q3ColorDrag8setColorERK6QColor
libQt3Support.so.4:_ZN11Q3ColorDrag9canDecodeEP11QMimeSource
libQt3Support.so.4:_ZN11Q3ColorDragC1EP7QWidgetPKc
libQt3Support.so.4:_ZN11Q3ColorDragC1ERK6QColorP7QWidgetPKc
libQt3Support.so.4:_ZN11Q3ColorDragC2EP7QWidgetPKc
libQt3Support.so.4:_ZN11Q3ColorDragC2ERK6QColorP7QWidgetPKc
libQt3Support.so.4:_ZN11Q3DataTable10findBufferERK9QSqlIndexi
libQt3Support.so.4:_ZN11Q3DataTable10hideColumnEi
libQt3Support.so.4:_ZN11Q3DataTable10paintFieldEP8QPainterPK9QSqlFieldRK5QRectb
libQt3Support.so.4:_ZN11Q3DataTable10resizeDataEi
libQt3Support.so.4:_ZN11Q3DataTable10setNumColsEi
libQt3Support.so.4:_ZN11Q3DataTable10setNumRowsEi
libQt3Support.so.4:_ZN11Q3DataTable10showColumnEi
libQt3Support.so.4:_ZN11Q3DataTable10sortColumnEibb
libQt3Support.so.4:_ZN11Q3DataTable11beginInsertEv
libQt3Support.so.4:_ZN11Q3DataTable11beginUpdateEiib
libQt3Support.so.4:_ZN11Q3DataTable11confirmEditEN4QSql2OpE
libQt3Support.so.4:_ZN11Q3DataTable11eventFilterEP7QObjectP6QEvent
libQt3Support.so.4:_ZN11Q3DataTable11handleErrorERK9QSqlError
libQt3Support.so.4:_ZN11Q3DataTable11primeDeleteEP10QSqlRecord
libQt3Support.so.4:_ZN11Q3DataTable11primeInsertEP10QSqlRecord
libQt3Support.so.4:_ZN11Q3DataTable11primeUpdateEP10QSqlRecord
libQt3Support.so.4:_ZN11Q3DataTable11qt_metacallEN11QMetaObject4CallEiPPv
libQt3Support.so.4:_ZN11Q3DataTable11qt_metacastEPKc
libQt3Support.so.4:_ZN11Q3DataTable11repaintCellEii
libQt3Support.so.4:_ZN11Q3DataTable11resizeEventEP12QResizeEvent
libQt3Support.so.4:_ZN11Q3DataTable11setAutoEditEb
libQt3Support.so.4:_ZN11Q3DataTable11setNullTextERK7QString
libQt3Support.so.4:_ZN11Q3DataTable11setTrueTextERK7QString
libQt3Support.so.4:_ZN11Q3DataTable11swapColumnsEiib
libQt3Support.so.4:_ZN11Q3DataTable12adjustColumnEi
libQt3Support.so.4:_ZN11Q3DataTable12beforeDeleteEP10QSqlRecord
libQt3Support.so.4:_ZN11Q3DataTable12beforeInsertEP10QSqlRecord
libQt3Support.so.4:_ZN11Q3DataTable12beforeUpdateEP10QSqlRecord
libQt3Support.so.4:_ZN11Q3DataTable12drawContentsEP8QPainter
libQt3Support.so.4:_ZN11Q3DataTable12drawContentsEP8QPainteriiii
libQt3Support.so.4:_ZN11Q3DataTable12loadNextPageEv
libQt3Support.so.4:_ZN11Q3DataTable12removeColumnEi
libQt3Support.so.4:_ZN11Q3DataTable12setFalseTextERK7QString
libQt3Support.so.4:_ZN11Q3DataTable12setSqlCursorEP11Q3SqlCursorbb
libQt3Support.so.4:_ZN11Q3DataTable13columnClickedEi
libQt3Support.so.4:_ZN11Q3DataTable13confirmCancelEN4QSql2OpE
libQt3Support.so.4:_ZN11Q3DataTable13cursorChangedEN4QSql2OpE
libQt3Support.so.4:_ZN11Q3DataTable13deleteCurrentEv
libQt3Support.so.4:_ZN11Q3DataTable13fieldToStringEPK9QSqlField
libQt3Support.so.4:_ZN11Q3DataTable13insertCurrentEv
libQt3Support.so.4:_ZN11Q3DataTable13keyPressEventEP9QKeyEvent
libQt3Support.so.4:_ZN11Q3DataTable13setAutoDeleteEb
libQt3Support.so.4:_ZN11Q3DataTable13setDateFormatEN2Qt10DateFormatE
libQt3Support.so.4:_ZN11Q3DataTable13sliderPressedEv
libQt3Support.so.4:_ZN11Q3DataTable13sortAscendingEi
libQt3Support.so.4:_ZN11Q3DataTable13updateCurrentEv
libQt3Support.so.4:_ZN11Q3DataTable14currentChangedEP10QSqlRecord
libQt3Support.so.4:_ZN11Q3DataTable14fieldAlignmentEPK9QSqlField
libQt3Support.so.4:_ZN11Q3DataTable14setColumnWidthEii
libQt3Support.so.4:_ZN11Q3DataTable14sliderReleasedEv
libQt3Support.so.4:_ZN11Q3DataTable14sortDescendingEi
libQt3Support.so.4:_ZN11Q3DataTable15doInsertCurrentEv
libQt3Support.so.4:_ZN11Q3DataTable15doUpdateCurrentEv
libQt3Support.so.4:_ZN11Q3DataTable15setConfirmEditsEb
libQt3Support.so.4:_ZN11Q3DataTable16activateNextCellEv
libQt3Support.so.4:_ZN11Q3DataTable16setConfirmDeleteEb
libQt3Support.so.4:_ZN11Q3DataTable16setConfirmInsertEb
libQt3Support.so.4:_ZN11Q3DataTable16setConfirmUpdateEb
libQt3Support.so.4:_ZN11Q3DataTable17setConfirmCancelsEb
libQt3Support.so.4:_ZN11Q3DataTable18installPropertyMapEP16Q3SqlPropertyMap
libQt3Support.so.4:_ZN11Q3DataTable19setCurrentSelectionEii
libQt3Support.so.4:_ZN11Q3DataTable20installEditorFactoryEP18Q3SqlEditorFactory
libQt3Support.so.4:_ZN11Q3DataTable20setColumnStretchableEib
libQt3Support.so.4:_ZN11Q3DataTable22updateCurrentSelectionEv
libQt3Support.so.4:_ZN11Q3DataTable23contentsMousePressEventEP11QMouseEvent
libQt3Support.so.4:_ZN11Q3DataTable24contentsContextMenuEventEP17QContextMenuEvent
libQt3Support.so.4:_ZN11Q3DataTable4findERK7QStringbb
libQt3Support.so.4:_ZN11Q3DataTable4initEv
libQt3Support.so.4:_ZN11Q3DataTable5resetEv
libQt3Support.so.4:_ZN11Q3DataTable7endEditEiibb
libQt3Support.so.4:_ZN11Q3DataTable7refreshENS_7RefreshE
libQt3Support.so.4:_ZN11Q3DataTable7refreshEv
libQt3Support.so.4:_ZN11Q3DataTable7setItemEiiP11Q3TableItem
libQt3Support.so.4:_ZN11Q3DataTable7setSizeEP11Q3SqlCursor
libQt3Support.so.4:_ZN11Q3DataTable7setSortERK11QStringList
libQt3Support.so.4:_ZN11Q3DataTable7setSortERK9QSqlIndex
libQt3Support.so.4:_ZN11Q3DataTable8takeItemEP11Q3TableItem
libQt3Support.so.4:_ZN11Q3DataTable9addColumnERK7QStringS2_iRK5QIcon
libQt3Support.so.4:_ZN11Q3DataTable9beginEditEiib
libQt3Support.so.4:_ZN11Q3DataTable9clearCellEii
libQt3Support.so.4:_ZN11Q3DataTable9endInsertEv
libQt3Support.so.4:_ZN11Q3DataTable9endUpdateEv
libQt3Support.so.4:_ZN11Q3DataTable9paintCellEP8QPainteriiRK5QRectbRK11QColorGroup
libQt3Support.so.4:_ZN11Q3DataTable9selectRowEi
libQt3Support.so.4:_ZN11Q3DataTable9setColumnEjRK7QStringS2_iRK5QIcon
libQt3Support.so.4:_ZN11Q3DataTable9setFilterERK7QString
libQt3Support.so.4:_ZN11Q3DataTable9setPixmapEiiRK7QPixmap
libQt3Support.so.4:_ZN11Q3DataTable9updateRowEi
libQt3Support.so.4:_ZN11Q3DataTableC1EP11Q3SqlCursorbP7QWidgetPKc
libQt3Support.so.4:_ZN11Q3DataTableC1EP7QWidgetPKc
libQt3Support.so.4:_ZN11Q3DataTableC2EP11Q3SqlCursorbP7QWidgetPKc
libQt3Support.so.4:_ZN11Q3DataTableC2EP7QWidgetPKc
libQt3Support.so.4:_ZN11Q3DataTableD0Ev
libQt3Support.so.4:_ZN11Q3DataTableD1Ev
libQt3Support.so.4:_ZN11Q3DataTableD2Ev
libQt3Support.so.4:_ZN11Q3HGroupBox11qt_metacallEN11QMetaObject4CallEiPPv
libQt3Support.so.4:_ZN11Q3HGroupBox11qt_metacastEPKc
libQt3Support.so.4:_ZN11Q3HGroupBoxC1EP7QWidgetPKc
libQt3Support.so.4:_ZN11Q3HGroupBoxC1ERK7QStringP7QWidgetPKc
libQt3Support.so.4:_ZN11Q3HGroupBoxC2EP7QWidgetPKc
libQt3Support.so.4:_ZN11Q3HGroupBoxC2ERK7QStringP7QWidgetPKc
libQt3Support.so.4:_ZN11Q3HGroupBoxD0Ev
libQt3Support.so.4:_ZN11Q3HGroupBoxD1Ev
libQt3Support.so.4:_ZN11Q3HGroupBoxD2Ev
libQt3Support.so.4:_ZN11Q3ImageDrag11qt_metacallEN11QMetaObject4CallEiPPv
libQt3Support.so.4:_ZN11Q3ImageDrag11qt_metacastEPKc
libQt3Support.so.4:_ZN11Q3ImageDrag6decodeEPK11QMimeSourceR6QImage
libQt3Support.so.4:_ZN11Q3ImageDrag6decodeEPK11QMimeSourceR7QPixmap
libQt3Support.so.4:_ZN11Q3ImageDrag8setImageE6QImage
libQt3Support.so.4:_ZN11Q3ImageDrag9canDecodeEPK11QMimeSource
libQt3Support.so.4:_ZN11Q3ImageDragC1E6QImageP7QWidgetPKc
libQt3Support.so.4:_ZN11Q3ImageDragC1EP7QWidgetPKc
libQt3Support.so.4:_ZN11Q3ImageDragC1ER18Q3ImageDragPrivateP7QWidget
libQt3Support.so.4:_ZN11Q3ImageDragC2E6QImageP7QWidgetPKc
libQt3Support.so.4:_ZN11Q3ImageDragC2EP7QWidgetPKc
libQt3Support.so.4:_ZN11Q3ImageDragC2ER18Q3ImageDragPrivateP7QWidget
libQt3Support.so.4:_ZN11Q3ImageDragD0Ev
libQt3Support.so.4:_ZN11Q3ImageDragD1Ev
libQt3Support.so.4:_ZN11Q3ImageDragD2Ev
libQt3Support.so.4:_ZN11Q3PopupMenu11qt_metacallEN11QMetaObject4CallEiPPv
libQt3Support.so.4:_ZN11Q3PopupMenu11qt_metacastEPKc
libQt3Support.so.4:_ZN11Q3Semaphore9tryAccessEi
libQt3Support.so.4:_ZN11Q3SemaphoreC1Ei
libQt3Support.so.4:_ZN11Q3SemaphoreC2Ei
libQt3Support.so.4:_ZN11Q3SemaphoreD0Ev
libQt3Support.so.4:_ZN11Q3SemaphoreD1Ev
libQt3Support.so.4:_ZN11Q3SemaphoreD2Ev
libQt3Support.so.4:_ZN11Q3SemaphoremIEi
libQt3Support.so.4:_ZN11Q3SemaphoremmEi
libQt3Support.so.4:_ZN11Q3SemaphorepLEi
libQt3Support.so.4:_ZN11Q3SemaphoreppEi
libQt3Support.so.4:_ZN11Q3SqlCursor10editBufferEb
libQt3Support.so.4:_ZN11Q3SqlCursor10setTrimmedERK7QStringb
libQt3Support.so.4:_ZN11Q3SqlCursor11primeDeleteEv
libQt3Support.so.4:_ZN11Q3SqlCursor11primeInsertEv
libQt3Support.so.4:_ZN11Q3SqlCursor11primeUpdateEv
libQt3Support.so.4:_ZN11Q3SqlCursor12setGeneratedERK7QStringb
libQt3Support.so.4:_ZN11Q3SqlCursor12setGeneratedEib
libQt3Support.so.4:_ZN11Q3SqlCursor13applyPreparedERK7QStringb
libQt3Support.so.4:_ZN11Q3SqlCursor13setCalculatedERK7QStringb
libQt3Support.so.4:_ZN11Q3SqlCursor14calculateFieldERK7QString
libQt3Support.so.4:_ZN11Q3SqlCursor15setPrimaryIndexERK9QSqlIndex
libQt3Support.so.4:_ZN11Q3SqlCursor3delERK7QStringb
libQt3Support.so.4:_ZN11Q3SqlCursor3delEb
libQt3Support.so.4:_ZN11Q3SqlCursor4execERK7QString
libQt3Support.so.4:_ZN11Q3SqlCursor4lastEv
libQt3Support.so.4:_ZN11Q3SqlCursor4nextEv
libQt3Support.so.4:_ZN11Q3SqlCursor4prevEv
libQt3Support.so.4:_ZN11Q3SqlCursor4seekEib
libQt3Support.so.4:_ZN11Q3SqlCursor4syncEv
libQt3Support.so.4:_ZN11Q3SqlCursor5applyERK7QStringb
libQt3Support.so.4:_ZN11Q3SqlCursor5clearEv
libQt3Support.so.4:_ZN11Q3SqlCursor5firstEv
libQt3Support.so.4:_ZN11Q3SqlCursor6appendERK14Q3SqlFieldInfo
libQt3Support.so.4:_ZN11Q3SqlCursor6appendERK9QSqlField
libQt3Support.so.4:_ZN11Q3SqlCursor6insertEb
libQt3Support.so.4:_ZN11Q3SqlCursor6insertEiRK14Q3SqlFieldInfo
libQt3Support.so.4:_ZN11Q3SqlCursor6removeEi
libQt3Support.so.4:_ZN11Q3SqlCursor6selectERK7QStringRK9QSqlIndex
libQt3Support.so.4:_ZN11Q3SqlCursor6selectERK9QSqlIndex
libQt3Support.so.4:_ZN11Q3SqlCursor6selectERK9QSqlIndexS2_
libQt3Support.so.4:_ZN11Q3SqlCursor6selectEv
libQt3Support.so.4:_ZN11Q3SqlCursor6updateERK7QStringb
libQt3Support.so.4:_ZN11Q3SqlCursor6updateEb
libQt3Support.so.4:_ZN11Q3SqlCursor7setModeEi
libQt3Support.so.4:_ZN11Q3SqlCursor7setNameERK7QStringb
libQt3Support.so.4:_ZN11Q3SqlCursor7setSortERK9QSqlIndex
libQt3Support.so.4:_ZN11Q3SqlCursor8setValueEiRK8QVariant
libQt3Support.so.4:_ZN11Q3SqlCursor9setFilterERK7QString
libQt3Support.so.4:_ZN11Q3SqlCursorC1ERK7QStringb12QSqlDatabase
libQt3Support.so.4:_ZN11Q3SqlCursorC1ERKS_
libQt3Support.so.4:_ZN11Q3SqlCursorC2ERK7QStringb12QSqlDatabase
libQt3Support.so.4:_ZN11Q3SqlCursorC2ERKS_
libQt3Support.so.4:_ZN11Q3SqlCursorD0Ev
libQt3Support.so.4:_ZN11Q3SqlCursorD1Ev
libQt3Support.so.4:_ZN11Q3SqlCursorD2Ev
libQt3Support.so.4:_ZN11Q3SqlCursoraSERK10QSqlRecord
libQt3Support.so.4:_ZN11Q3SqlCursoraSERKS_
libQt3Support.so.4:_ZN11Q3TabDialog10paintEventEP11QPaintEvent
libQt3Support.so.4:_ZN11Q3TabDialog10removePageEP7QWidget
libQt3Support.so.4:_ZN11Q3TabDialog11aboutToShowEv
libQt3Support.so.4:_ZN11Q3TabDialog11qt_metacallEN11QMetaObject4CallEiPPv
libQt3Support.so.4:_ZN11Q3TabDialog11qt_metacastEPKc
libQt3Support.so.4:_ZN11Q3TabDialog11resizeEventEP12QResizeEvent
libQt3Support.so.4:_ZN11Q3TabDialog11setOKButtonERK7QString
libQt3Support.so.4:_ZN11Q3TabDialog11setOkButtonERK7QString
libQt3Support.so.4:_ZN11Q3TabDialog11setOkButtonEv
libQt3Support.so.4:_ZN11Q3TabDialog11setUpLayoutEv
libQt3Support.so.4:_ZN11Q3TabDialog11styleChangeER6QStyle
libQt3Support.so.4:_ZN11Q3TabDialog13setHelpButtonERK7QString
libQt3Support.so.4:_ZN11Q3TabDialog13setHelpButtonEv
libQt3Support.so.4:_ZN11Q3TabDialog13setTabEnabledEP7QWidgetb
libQt3Support.so.4:_ZN11Q3TabDialog13setTabEnabledEPKcb
libQt3Support.so.4:_ZN11Q3TabDialog14currentChangedEP7QWidget
libQt3Support.so.4:_ZN11Q3TabDialog14setApplyButtonERK7QString
libQt3Support.so.4:_ZN11Q3TabDialog14setApplyButtonEv
libQt3Support.so.4:_ZN11Q3TabDialog15setCancelButtonERK7QString
libQt3Support.so.4:_ZN11Q3TabDialog15setCancelButtonEv
libQt3Support.so.4:_ZN11Q3TabDialog16setDefaultButtonERK7QString
libQt3Support.so.4:_ZN11Q3TabDialog16setDefaultButtonEv
libQt3Support.so.4:_ZN11Q3TabDialog17helpButtonPressedEv
libQt3Support.so.4:_ZN11Q3TabDialog18applyButtonPressedEv
libQt3Support.so.4:_ZN11Q3TabDialog19cancelButtonPressedEv
libQt3Support.so.4:_ZN11Q3TabDialog20defaultButtonPressedEv
libQt3Support.so.4:_ZN11Q3TabDialog4showEv
libQt3Support.so.4:_ZN11Q3TabDialog6addTabEP7QWidgetRK5QIconRK7QString
libQt3Support.so.4:_ZN11Q3TabDialog6addTabEP7QWidgetRK7QString
libQt3Support.so.4:_ZN11Q3TabDialog7setFontERK5QFont
libQt3Support.so.4:_ZN11Q3TabDialog8selectedERK7QString
libQt3Support.so.4:_ZN11Q3TabDialog8setSizesEv
libQt3Support.so.4:_ZN11Q3TabDialog8showPageEP7QWidget
libQt3Support.so.4:_ZN11Q3TabDialog8tabLabelEP7QWidget
libQt3Support.so.4:_ZN11Q3TabDialog9changeTabEP7QWidgetRK5QIconRK7QString
libQt3Support.so.4:_ZN11Q3TabDialog9changeTabEP7QWidgetRK7QString
libQt3Support.so.4:_ZN11Q3TabDialog9insertTabEP7QWidgetRK5QIconRK7QStringi
libQt3Support.so.4:_ZN11Q3TabDialog9insertTabEP7QWidgetRK7QStringi
libQt3Support.so.4:_ZN11Q3TabDialog9setTabBarEP7QTabBar
libQt3Support.so.4:_ZN11Q3TabDialog9showEventEP10QShowEvent
libQt3Support.so.4:_ZN11Q3TabDialogC1EP7QWidgetPKcb6QFlagsIN2Qt10WindowTypeEE
libQt3Support.so.4:_ZN11Q3TabDialogC2EP7QWidgetPKcb6QFlagsIN2Qt10WindowTypeEE
libQt3Support.so.4:_ZN11Q3TabDialogD0Ev
libQt3Support.so.4:_ZN11Q3TabDialogD1Ev
libQt3Support.so.4:_ZN11Q3TabDialogD2Ev
libQt3Support.so.4:_ZN11Q3TableItem10setEnabledEb
libQt3Support.so.4:_ZN11Q3TableItem11setWordWrapEb
libQt3Support.so.4:_ZN11Q3TableItem12updateEditorEii
libQt3Support.so.4:_ZN11Q3TableItem14setReplaceableEb
libQt3Support.so.4:_ZN11Q3TableItem20setContentFromEditorEP7QWidget
libQt3Support.so.4:_ZN11Q3TableItem5paintEP8QPainterRK11QColorGroupRK5QRectb
libQt3Support.so.4:_ZN11Q3TableItem6setColEi
libQt3Support.so.4:_ZN11Q3TableItem6setRowEi
libQt3Support.so.4:_ZN11Q3TableItem7setSpanEii
libQt3Support.so.4:_ZN11Q3TableItem7setTextERK7QString
libQt3Support.so.4:_ZN11Q3TableItem9setPixmapERK7QPixmap
libQt3Support.so.4:_ZN11Q3TableItemC1EP7Q3TableNS_8EditTypeE
libQt3Support.so.4:_ZN11Q3TableItemC1EP7Q3TableNS_8EditTypeERK7QString
libQt3Support.so.4:_ZN11Q3TableItemC1EP7Q3TableNS_8EditTypeERK7QStringRK7QPixmap
libQt3Support.so.4:_ZN11Q3TableItemC2EP7Q3TableNS_8EditTypeE
libQt3Support.so.4:_ZN11Q3TableItemC2EP7Q3TableNS_8EditTypeERK7QString
libQt3Support.so.4:_ZN11Q3TableItemC2EP7Q3TableNS_8EditTypeERK7QStringRK7QPixmap
libQt3Support.so.4:_ZN11Q3TableItemD0Ev
libQt3Support.so.4:_ZN11Q3TableItemD1Ev
libQt3Support.so.4:_ZN11Q3TableItemD2Ev
libQt3Support.so.4:_ZN11Q3TextImage15adjustToPainterEP8QPainter
libQt3Support.so.4:_ZN11Q3TextImage4drawEP8QPainteriiiiiiRK8QPaletteb
libQt3Support.so.4:_ZN11Q3TextImageC1EP14Q3TextDocumentRK4QMapI7QStringS3_ERKS3_R19Q3MimeSourceFactory
libQt3Support.so.4:_ZN11Q3TextImageC2EP14Q3TextDocumentRK4QMapI7QStringS3_ERKS3_R19Q3MimeSourceFactory
libQt3Support.so.4:_ZN11Q3TextImageD0Ev
libQt3Support.so.4:_ZN11Q3TextImageD1Ev
libQt3Support.so.4:_ZN11Q3TextImageD2Ev
libQt3Support.so.4:_ZN11Q3TextTable10invalidateEv
libQt3Support.so.4:_ZN11Q3TextTable11adjustCellsEii
libQt3Support.so.4:_ZN11Q3TextTable15adjustToPainterEP8QPainter
libQt3Support.so.4:_ZN11Q3TextTable2upEP12Q3TextCursorRP14Q3TextDocumentRP15Q3TextParagraphRiS8_S8_
libQt3Support.so.4:_ZN11Q3TextTable4downEP12Q3TextCursorRP14Q3TextDocumentRP15Q3TextParagraphRiS8_S8_
libQt3Support.so.4:_ZN11Q3TextTable4drawEP8QPainteriiiiiiRK8QPaletteb
libQt3Support.so.4:_ZN11Q3TextTable4nextEP12Q3TextCursorRP14Q3TextDocumentRP15Q3TextParagraphRiS8_S8_
libQt3Support.so.4:_ZN11Q3TextTable4prevEP12Q3TextCursorRP14Q3TextDocumentRP15Q3TextParagraphRiS8_S8_
libQt3Support.so.4:_ZN11Q3TextTable5enterEP12Q3TextCursorRP14Q3TextDocumentRP15Q3TextParagraphRiS8_S8_b
libQt3Support.so.4:_ZN11Q3TextTable6formatEi
libQt3Support.so.4:_ZN11Q3TextTable6resizeEi
libQt3Support.so.4:_ZN11Q3TextTable7addCellEP15Q3TextTableCell
libQt3Support.so.4:_ZN11Q3TextTable7enterAtEP12Q3TextCursorRP14Q3TextDocumentRP15Q3TextParagraphRiS8_S8_RK6QPoint
libQt3Support.so.4:_ZN11Q3TextTable9pageBreakEiP10Q3TextFlow
libQt3Support.so.4:_ZN11Q3TextTableC1EP14Q3TextDocumentRK4QMapI7QStringS3_E
libQt3Support.so.4:_ZN11Q3TextTableC2EP14Q3TextDocumentRK4QMapI7QStringS3_E
libQt3Support.so.4:_ZN11Q3TextTableD0Ev
libQt3Support.so.4:_ZN11Q3TextTableD1Ev
libQt3Support.so.4:_ZN11Q3TextTableD2Ev
libQt3Support.so.4:_ZN11Q3VGroupBox11qt_metacallEN11QMetaObject4CallEiPPv
libQt3Support.so.4:_ZN11Q3VGroupBox11qt_metacastEPKc
libQt3Support.so.4:_ZN11Q3VGroupBoxC1EP7QWidgetPKc
libQt3Support.so.4:_ZN11Q3VGroupBoxC1ERK7QStringP7QWidgetPKc
libQt3Support.so.4:_ZN11Q3VGroupBoxC2EP7QWidgetPKc
libQt3Support.so.4:_ZN11Q3VGroupBoxC2ERK7QStringP7QWidgetPKc
libQt3Support.so.4:_ZN11Q3VGroupBoxD0Ev
libQt3Support.so.4:_ZN11Q3VGroupBoxD1Ev
libQt3Support.so.4:_ZN11Q3VGroupBoxD2Ev
libQt3Support.so.4:_ZN11Q3WhatsThis11eventFilterEP7QObjectP6QEvent
libQt3Support.so.4:_ZN11Q3WhatsThis11qt_metacallEN11QMetaObject4CallEiPPv
libQt3Support.so.4:_ZN11Q3WhatsThis11qt_metacastEPKc
libQt3Support.so.4:_ZN11Q3WhatsThis15whatsThisButtonEP7QWidget
libQt3Support.so.4:_ZN11Q3WhatsThis4textERK6QPoint
libQt3Support.so.4:_ZN11Q3WhatsThis7clickedERK7QString
libQt3Support.so.4:_ZN11Q3WhatsThisC1EP7QWidget
libQt3Support.so.4:_ZN11Q3WhatsThisC2EP7QWidget
libQt3Support.so.4:_ZN11Q3WhatsThisD0Ev
libQt3Support.so.4:_ZN11Q3WhatsThisD1Ev
libQt3Support.so.4:_ZN11Q3WhatsThisD2Ev
libQt3Support.so.4:_ZN12Q3CanvasItem10setEnabledEb
libQt3Support.so.4:_ZN12Q3CanvasItem10setVisibleEb
libQt3Support.so.4:_ZN12Q3CanvasItem11addToChunksEv
libQt3Support.so.4:_ZN12Q3CanvasItem11setAnimatedEb
libQt3Support.so.4:_ZN12Q3CanvasItem11setSelectedEb
libQt3Support.so.4:_ZN12Q3CanvasItem11setVelocityEdd
libQt3Support.so.4:_ZN12Q3CanvasItem12changeChunksEv
libQt3Support.so.4:_ZN12Q3CanvasItem16removeFromChunksEv
libQt3Support.so.4:_ZN12Q3CanvasItem4hideEv
libQt3Support.so.4:_ZN12Q3CanvasItem4moveEdd
libQt3Support.so.4:_ZN12Q3CanvasItem4showEv
libQt3Support.so.4:_ZN12Q3CanvasItem5extraEv
libQt3Support.so.4:_ZN12Q3CanvasItem6moveByEdd
libQt3Support.so.4:_ZN12Q3CanvasItem7advanceEi
libQt3Support.so.4:_ZN12Q3CanvasItem9setActiveEb
libQt3Support.so.4:_ZN12Q3CanvasItem9setCanvasEP8Q3Canvas
libQt3Support.so.4:_ZN12Q3CanvasItemC1EP8Q3Canvas
libQt3Support.so.4:_ZN12Q3CanvasItemC2EP8Q3Canvas
libQt3Support.so.4:_ZN12Q3CanvasItemD0Ev
libQt3Support.so.4:_ZN12Q3CanvasItemD1Ev
libQt3Support.so.4:_ZN12Q3CanvasItemD2Ev
libQt3Support.so.4:_ZN12Q3CanvasLine6moveByEdd
libQt3Support.so.4:_ZN12Q3CanvasLine6setPenE4QPen
libQt3Support.so.4:_ZN12Q3CanvasLine9drawShapeER8QPainter
libQt3Support.so.4:_ZN12Q3CanvasLine9setPointsEiiii
libQt3Support.so.4:_ZN12Q3CanvasLineC1EP8Q3Canvas
libQt3Support.so.4:_ZN12Q3CanvasLineC2EP8Q3Canvas
libQt3Support.so.4:_ZN12Q3CanvasLineD0Ev
libQt3Support.so.4:_ZN12Q3CanvasLineD1Ev
libQt3Support.so.4:_ZN12Q3CanvasLineD2Ev
libQt3Support.so.4:_ZN12Q3CanvasText11addToChunksEv
libQt3Support.so.4:_ZN12Q3CanvasText12changeChunksEv
libQt3Support.so.4:_ZN12Q3CanvasText12setTextFlagsEi
libQt3Support.so.4:_ZN12Q3CanvasText16removeFromChunksEv
libQt3Support.so.4:_ZN12Q3CanvasText4drawER8QPainter
libQt3Support.so.4:_ZN12Q3CanvasText6moveByEdd
libQt3Support.so.4:_ZN12Q3CanvasText7setFontERK5QFont
libQt3Support.so.4:_ZN12Q3CanvasText7setRectEv
libQt3Support.so.4:_ZN12Q3CanvasText7setTextERK7QString
libQt3Support.so.4:_ZN12Q3CanvasText8setColorERK6QColor
libQt3Support.so.4:_ZN12Q3CanvasTextC1EP8Q3Canvas
libQt3Support.so.4:_ZN12Q3CanvasTextC1ERK7QString5QFontP8Q3Canvas
libQt3Support.so.4:_ZN12Q3CanvasTextC1ERK7QStringP8Q3Canvas
libQt3Support.so.4:_ZN12Q3CanvasTextC2EP8Q3Canvas
libQt3Support.so.4:_ZN12Q3CanvasTextC2ERK7QString5QFontP8Q3Canvas
libQt3Support.so.4:_ZN12Q3CanvasTextC2ERK7QStringP8Q3Canvas
libQt3Support.so.4:_ZN12Q3CanvasTextD0Ev
libQt3Support.so.4:_ZN12Q3CanvasTextD1Ev
libQt3Support.so.4:_ZN12Q3CanvasTextD2Ev
libQt3Support.so.4:_ZN12Q3CanvasView11qt_metacallEN11QMetaObject4CallEiPPv
libQt3Support.so.4:_ZN12Q3CanvasView11qt_metacastEPKc
libQt3Support.so.4:_ZN12Q3CanvasView12drawContentsEP8QPainter
libQt3Support.so.4:_ZN12Q3CanvasView12drawContentsEP8QPainteriiii
libQt3Support.so.4:_ZN12Q3CanvasView14setWorldMatrixERK7QMatrix
libQt3Support.so.4:_ZN12Q3CanvasView18updateContentsSizeEv
libQt3Support.so.4:_ZN12Q3CanvasView9setCanvasEP8Q3Canvas
libQt3Support.so.4:_ZN12Q3CanvasViewC1EP7QWidgetPKc6QFlagsIN2Qt10WindowTypeEE
libQt3Support.so.4:_ZN12Q3CanvasViewC1EP8Q3CanvasP7QWidgetPKc6QFlagsIN2Qt10WindowTypeEE
libQt3Support.so.4:_ZN12Q3CanvasViewC2EP7QWidgetPKc6QFlagsIN2Qt10WindowTypeEE
libQt3Support.so.4:_ZN12Q3CanvasViewC2EP8Q3CanvasP7QWidgetPKc6QFlagsIN2Qt10WindowTypeEE
libQt3Support.so.4:_ZN12Q3CanvasViewD0Ev
libQt3Support.so.4:_ZN12Q3CanvasViewD1Ev
libQt3Support.so.4:_ZN12Q3CanvasViewD2Ev
libQt3Support.so.4:_ZN12Q3DockWindow10handleMoveERK6QPointS2_b
libQt3Support.so.4:_ZN12Q3DockWindow10setNewLineEb
libQt3Support.so.4:_ZN12Q3DockWindow11endRectDrawEb
libQt3Support.so.4:_ZN12Q3DockWindow11eventFilterEP7QObjectP6QEvent
libQt3Support.so.4:_ZN12Q3DockWindow11qt_metacallEN11QMetaObject4CallEiPPv
libQt3Support.so.4:_ZN12Q3DockWindow11qt_metacastEPKc
libQt3Support.so.4:_ZN12Q3DockWindow11resizeEventEP12QResizeEvent
libQt3Support.so.4:_ZN12Q3DockWindow12drawContentsEP8QPainter
libQt3Support.so.4:_ZN12Q3DockWindow12placeChangedENS_5PlaceE
libQt3Support.so.4:_ZN12Q3DockWindow12setCloseModeEi
libQt3Support.so.4:_ZN12Q3DockWindow13startRectDrawERK6QPointb
libQt3Support.so.4:_ZN12Q3DockWindow14removeFromDockEb
libQt3Support.so.4:_ZN12Q3DockWindow14setOrientationEN2Qt11OrientationE
libQt3Support.so.4:_ZN12Q3DockWindow14updatePositionERK6QPoint
libQt3Support.so.4:_ZN12Q3DockWindow15setOpaqueMovingEb
libQt3Support.so.4:_ZN12Q3DockWindow16contextMenuEventEP17QContextMenuEvent
libQt3Support.so.4:_ZN12Q3DockWindow16setMovingEnabledEb
libQt3Support.so.4:_ZN12Q3DockWindow16setResizeEnabledEb
libQt3Support.so.4:_ZN12Q3DockWindow17visibilityChangedEb
libQt3Support.so.4:_ZN12Q3DockWindow18orientationChangedEN2Qt11OrientationE
libQt3Support.so.4:_ZN12Q3DockWindow19setFixedExtentWidthEi
libQt3Support.so.4:_ZN12Q3DockWindow20setFixedExtentHeightEi
libQt3Support.so.4:_ZN12Q3DockWindow24setVerticallyStretchableEb
libQt3Support.so.4:_ZN12Q3DockWindow24updateSplitterVisibilityEb
libQt3Support.so.4:_ZN12Q3DockWindow26setHorizontallyStretchableEb
libQt3Support.so.4:_ZN12Q3DockWindow4dockEv
libQt3Support.so.4:_ZN12Q3DockWindow4initEv
libQt3Support.so.4:_ZN12Q3DockWindow5eventEP6QEvent
libQt3Support.so.4:_ZN12Q3DockWindow6areaAtERK6QPoint
libQt3Support.so.4:_ZN12Q3DockWindow6undockEP7QWidget
libQt3Support.so.4:_ZN12Q3DockWindow8swapRectER5QRectN2Qt11OrientationERK6QPointP10Q3DockArea
libQt3Support.so.4:_ZN12Q3DockWindow9boxLayoutEv
libQt3Support.so.4:_ZN12Q3DockWindow9drawFrameEP8QPainter
libQt3Support.so.4:_ZN12Q3DockWindow9hideEventEP10QHideEvent
libQt3Support.so.4:_ZN12Q3DockWindow9setOffsetEi
libQt3Support.so.4:_ZN12Q3DockWindow9setWidgetEP7QWidget
libQt3Support.so.4:_ZN12Q3DockWindow9showEventEP10QShowEvent
libQt3Support.so.4:_ZN12Q3DockWindow9updateGuiEv
libQt3Support.so.4:_ZN12Q3DockWindowC1ENS_5PlaceEP7QWidgetPKc6QFlagsIN2Qt10WindowTypeEE
libQt3Support.so.4:_ZN12Q3DockWindowC1ENS_5PlaceEP7QWidgetPKc6QFlagsIN2Qt10WindowTypeEEb
libQt3Support.so.4:_ZN12Q3DockWindowC1EP7QWidgetPKc6QFlagsIN2Qt10WindowTypeEE
libQt3Support.so.4:_ZN12Q3DockWindowC2ENS_5PlaceEP7QWidgetPKc6QFlagsIN2Qt10WindowTypeEE
libQt3Support.so.4:_ZN12Q3DockWindowC2ENS_5PlaceEP7QWidgetPKc6QFlagsIN2Qt10WindowTypeEEb
libQt3Support.so.4:_ZN12Q3DockWindowC2EP7QWidgetPKc6QFlagsIN2Qt10WindowTypeEE
libQt3Support.so.4:_ZN12Q3DockWindowD0Ev
libQt3Support.so.4:_ZN12Q3DockWindowD1Ev
libQt3Support.so.4:_ZN12Q3DockWindowD2Ev
libQt3Support.so.4:_ZN12Q3DragObject11qt_metacallEN11QMetaObject4CallEiPPv
libQt3Support.so.4:_ZN12Q3DragObject11qt_metacastEPKc
libQt3Support.so.4:_ZN12Q3DragObject4dragENS_8DragModeE
libQt3Support.so.4:_ZN12Q3DragObject4dragEv
libQt3Support.so.4:_ZN12Q3DragObject6sourceEv
libQt3Support.so.4:_ZN12Q3DragObject6targetEv
libQt3Support.so.4:_ZN12Q3DragObject8dragCopyEv
libQt3Support.so.4:_ZN12Q3DragObject8dragLinkEv
libQt3Support.so.4:_ZN12Q3DragObject8dragMoveEv
libQt3Support.so.4:_ZN12Q3DragObject9setPixmapE7QPixmap
libQt3Support.so.4:_ZN12Q3DragObject9setPixmapE7QPixmapRK6QPoint
libQt3Support.so.4:_ZN12Q3DragObjectC1EP7QWidgetPKc
libQt3Support.so.4:_ZN12Q3DragObjectC1ER19Q3DragObjectPrivateP7QWidget
libQt3Support.so.4:_ZN12Q3DragObjectC2EP7QWidgetPKc
libQt3Support.so.4:_ZN12Q3DragObjectC2ER19Q3DragObjectPrivateP7QWidget
libQt3Support.so.4:_ZN12Q3DragObjectD0Ev
libQt3Support.so.4:_ZN12Q3DragObjectD1Ev
libQt3Support.so.4:_ZN12Q3DragObjectD2Ev
libQt3Support.so.4:_ZN12Q3FileDialog10addWidgetsEP6QLabelP7QWidgetP11QPushButton
libQt3Support.so.4:_ZN12Q3FileDialog10changeModeEi
libQt3Support.so.4:_ZN12Q3FileDialog10deleteFileERK7QString
libQt3Support.so.4:_ZN12Q3FileDialog10dirEnteredERK7QString
libQt3Support.so.4:_ZN12Q3FileDialog10setFiltersEPPKc
libQt3Support.so.4:_ZN12Q3FileDialog10setFiltersERK11QStringList
libQt3Support.so.4:_ZN12Q3FileDialog10setFiltersERK7QString
libQt3Support.so.4:_ZN12Q3FileDialog11cdUpClickedEv
libQt3Support.so.4:_ZN12Q3FileDialog11dirSelectedEi
libQt3Support.so.4:_ZN12Q3FileDialog11eventFilterEP7QObjectP6QEvent
libQt3Support.so.4:_ZN12Q3FileDialog11insertEntryERK11Q3ValueListI8QUrlInfoEP18Q3NetworkOperation
libQt3Support.so.4:_ZN12Q3FileDialog11itemChangedEP18Q3NetworkOperation
libQt3Support.so.4:_ZN12Q3FileDialog11qt_metacallEN11QMetaObject4CallEiPPv
libQt3Support.so.4:_ZN12Q3FileDialog11qt_metacastEPKc
libQt3Support.so.4:_ZN12Q3FileDialog11removeEntryEP18Q3NetworkOperation
libQt3Support.so.4:_ZN12Q3FileDialog11resizeEventEP12QResizeEvent
libQt3Support.so.4:_ZN12Q3FileDialog11setViewModeENS_8ViewModeE
libQt3Support.so.4:_ZN12Q3FileDialog11urlFinishedEP18Q3NetworkOperation
libQt3Support.so.4:_ZN12Q3FileDialog12fileSelectedERK7QString
libQt3Support.so.4:_ZN12Q3FileDialog12fileSelectedEi
libQt3Support.so.4:_ZN12Q3FileDialog12iconProviderEv
libQt3Support.so.4:_ZN12Q3FileDialog12pathSelectedEi
libQt3Support.so.4:_ZN12Q3FileDialog12setSelectionERK7QString
libQt3Support.so.4:_ZN12Q3FileDialog13addLeftWidgetEP7QWidget
libQt3Support.so.4:_ZN12Q3FileDialog13addToolButtonEP15QAbstractButtonb
libQt3Support.so.4:_ZN12Q3FileDialog13cancelClickedEv
libQt3Support.so.4:_ZN12Q3FileDialog13filesSelectedERK11QStringList
libQt3Support.so.4:_ZN12Q3FileDialog13filterClickedEv
libQt3Support.so.4:_ZN12Q3FileDialog13fixupNameEditEv
libQt3Support.so.4:_ZN12Q3FileDialog13keyPressEventEP9QKeyEvent
libQt3Support.so.4:_ZN12Q3FileDialog14addRightWidgetEP7QWidget
libQt3Support.so.4:_ZN12Q3FileDialog14filterSelectedERK7QString
libQt3Support.so.4:_ZN12Q3FileDialog14setInfoPreviewEP7QWidgetP13Q3FilePreview
libQt3Support.so.4:_ZN12Q3FileDialog14setPreviewModeENS_11PreviewModeE
libQt3Support.so.4:_ZN12Q3FileDialog14updatePreviewsERK5Q3Url
libQt3Support.so.4:_ZN12Q3FileDialog15fileHighlightedERK7QString
libQt3Support.so.4:_ZN12Q3FileDialog15fileHighlightedEi
libQt3Support.so.4:_ZN12Q3FileDialog15getOpenFileNameERK7QStringS2_P7QWidgetPKcS2_PS0_b
libQt3Support.so.4:_ZN12Q3FileDialog15getSaveFileNameERK7QStringS2_P7QWidgetPKcS2_PS0_b
libQt3Support.so.4:_ZN12Q3FileDialog15setIconProviderEP18Q3FileIconProvider
libQt3Support.so.4:_ZN12Q3FileDialog15trySetSelectionEbRK13Q3UrlOperatorb
libQt3Support.so.4:_ZN12Q3FileDialog16createdDirectoryERK8QUrlInfoP18Q3NetworkOperation
libQt3Support.so.4:_ZN12Q3FileDialog16doMimeTypeLookupEv
libQt3Support.so.4:_ZN12Q3FileDialog16fileNameEditDoneEv
libQt3Support.so.4:_ZN12Q3FileDialog16getOpenFileNamesERK7QStringS2_P7QWidgetPKcS2_PS0_b
libQt3Support.so.4:_ZN12Q3FileDialog16newFolderClickedEv
libQt3Support.so.4:_ZN12Q3FileDialog16popupContextMenuEP13Q3ListBoxItemRK6QPoint
libQt3Support.so.4:_ZN12Q3FileDialog16popupContextMenuEP14Q3ListViewItemRK6QPointi
libQt3Support.so.4:_ZN12Q3FileDialog16popupContextMenuERK7QStringbRNS_11PopupActionERK6QPoint
libQt3Support.so.4:_ZN12Q3FileDialog16updateGeometriesEv
libQt3Support.so.4:_ZN12Q3FileDialog17removeProgressDiaEv
libQt3Support.so.4:_ZN12Q3FileDialog17setSelectedFilterERK7QString
libQt3Support.so.4:_ZN12Q3FileDialog17setSelectedFilterEi
libQt3Support.so.4:_ZN12Q3FileDialog18setContentsPreviewEP7QWidgetP13Q3FilePreview
libQt3Support.so.4:_ZN12Q3FileDialog18setShowHiddenFilesEb
libQt3Support.so.4:_ZN12Q3FileDialog18updateFileNameEditEP13Q3ListBoxItem
libQt3Support.so.4:_ZN12Q3FileDialog18updateFileNameEditEP14Q3ListViewItem
libQt3Support.so.4:_ZN12Q3FileDialog20dataTransferProgressEiiP18Q3NetworkOperation
libQt3Support.so.4:_ZN12Q3FileDialog20getExistingDirectoryERK7QStringP7QWidgetPKcS2_bb
libQt3Support.so.4:_ZN12Q3FileDialog20modeButtonsDestroyedEv
libQt3Support.so.4:_ZN12Q3FileDialog21selectDirectoryOrFileEP13Q3ListBoxItem
libQt3Support.so.4:_ZN12Q3FileDialog21selectDirectoryOrFileEP14Q3ListViewItem
libQt3Support.so.4:_ZN12Q3FileDialog21setInfoPreviewEnabledEb
libQt3Support.so.4:_ZN12Q3FileDialog23listBoxSelectionChangedEv
libQt3Support.so.4:_ZN12Q3FileDialog25fileNameEditReturnPressedEv
libQt3Support.so.4:_ZN12Q3FileDialog25setContentsPreviewEnabledEb
libQt3Support.so.4:_ZN12Q3FileDialog26detailViewSelectionChangedEv
libQt3Support.so.4:_ZN12Q3FileDialog4doneEi
libQt3Support.so.4:_ZN12Q3FileDialog4initEv
libQt3Support.so.4:_ZN12Q3FileDialog6goBackEv
libQt3Support.so.4:_ZN12Q3FileDialog6setDirERK4QDir
libQt3Support.so.4:_ZN12Q3FileDialog6setDirERK7QString
libQt3Support.so.4:_ZN12Q3FileDialog6setUrlERK13Q3UrlOperator
libQt3Support.so.4:_ZN12Q3FileDialog7setModeENS_4ModeE
libQt3Support.so.4:_ZN12Q3FileDialog8stopCopyEv
libQt3Support.so.4:_ZN12Q3FileDialog8urlStartEP18Q3NetworkOperation
libQt3Support.so.4:_ZN12Q3FileDialog9addFilterERK7QString
libQt3Support.so.4:_ZN12Q3FileDialog9okClickedEv
libQt3Support.so.4:_ZN12Q3FileDialog9rereadDirEv
libQt3Support.so.4:_ZN12Q3FileDialog9resortDirEv
libQt3Support.so.4:_ZN12Q3FileDialog9selectAllEb
libQt3Support.so.4:_ZN12Q3FileDialog9setFilterERK7QString
libQt3Support.so.4:_ZN12Q3FileDialogC1EP7QWidgetPKcb
libQt3Support.so.4:_ZN12Q3FileDialogC1ERK7QStringS2_P7QWidgetPKcb
libQt3Support.so.4:_ZN12Q3FileDialogC2EP7QWidgetPKcb
libQt3Support.so.4:_ZN12Q3FileDialogC2ERK7QStringS2_P7QWidgetPKcb
libQt3Support.so.4:_ZN12Q3FileDialogD0Ev
libQt3Support.so.4:_ZN12Q3FileDialogD1Ev
libQt3Support.so.4:_ZN12Q3FileDialogD2Ev
libQt3Support.so.4:_ZN12Q3HttpHeader11removeValueERK7QString
libQt3Support.so.4:_ZN12Q3HttpHeader14setContentTypeERK7QString
libQt3Support.so.4:_ZN12Q3HttpHeader16setContentLengthEi
libQt3Support.so.4:_ZN12Q3HttpHeader5parseERK7QString
libQt3Support.so.4:_ZN12Q3HttpHeader8setValidEb
libQt3Support.so.4:_ZN12Q3HttpHeader8setValueERK7QStringS2_
libQt3Support.so.4:_ZN12Q3HttpHeader9parseLineERK7QStringi
libQt3Support.so.4:_ZN12Q3HttpHeaderC1ERK7QString
libQt3Support.so.4:_ZN12Q3HttpHeaderC1ERKS_
libQt3Support.so.4:_ZN12Q3HttpHeaderC1Ev
libQt3Support.so.4:_ZN12Q3HttpHeaderC2ERK7QString
libQt3Support.so.4:_ZN12Q3HttpHeaderC2ERKS_
libQt3Support.so.4:_ZN12Q3HttpHeaderC2Ev
libQt3Support.so.4:_ZN12Q3HttpHeaderD0Ev
libQt3Support.so.4:_ZN12Q3HttpHeaderD1Ev
libQt3Support.so.4:_ZN12Q3HttpHeaderD2Ev
libQt3Support.so.4:_ZN12Q3HttpHeaderaSERKS_
libQt3Support.so.4:_ZN12Q3MainWindow10childEventEP11QChildEvent
libQt3Support.so.4:_ZN12Q3MainWindow10paintEventEP11QPaintEvent
libQt3Support.so.4:_ZN12Q3MainWindow10setMenuBarEP8QMenuBar
libQt3Support.so.4:_ZN12Q3MainWindow10setVisibleEb
libQt3Support.so.4:_ZN12Q3MainWindow11dockingAreaERK6QPoint
libQt3Support.so.4:_ZN12Q3MainWindow11eventFilterEP7QObjectP6QEvent
libQt3Support.so.4:_ZN12Q3MainWindow11qt_metacallEN11QMetaObject4CallEiPPv
libQt3Support.so.4:_ZN12Q3MainWindow11qt_metacastEPKc
libQt3Support.so.4:_ZN12Q3MainWindow11setUpLayoutEv
libQt3Support.so.4:_ZN12Q3MainWindow12setStatusBarEP10QStatusBar
libQt3Support.so.4:_ZN12Q3MainWindow12showDockMenuERK6QPoint
libQt3Support.so.4:_ZN12Q3MainWindow13addDockWindowEP12Q3DockWindowN2Qt4DockEb
libQt3Support.so.4:_ZN12Q3MainWindow13addDockWindowEP12Q3DockWindowRK7QStringN2Qt4DockEb
libQt3Support.so.4:_ZN12Q3MainWindow13hasDockWindowEP12Q3DockWindow
libQt3Support.so.4:_ZN12Q3MainWindow13triggerLayoutEb
libQt3Support.so.4:_ZN12Q3MainWindow14moveDockWindowEP12Q3DockWindowN2Qt4DockE
libQt3Support.so.4:_ZN12Q3MainWindow14moveDockWindowEP12Q3DockWindowN2Qt4DockEbii
libQt3Support.so.4:_ZN12Q3MainWindow14setAppropriateEP12Q3DockWindowb
libQt3Support.so.4:_ZN12Q3MainWindow14setDockEnabledEN2Qt4DockEb
libQt3Support.so.4:_ZN12Q3MainWindow14setDockEnabledEP12Q3DockWindowN2Qt4DockEb
libQt3Support.so.4:_ZN12Q3MainWindow15menuAboutToShowEv
libQt3Support.so.4:_ZN12Q3MainWindow15setOpaqueMovingEb
libQt3Support.so.4:_ZN12Q3MainWindow16removeDockWindowEP12Q3DockWindow
libQt3Support.so.4:_ZN12Q3MainWindow16setCentralWidgetEP7QWidget
libQt3Support.so.4:_ZN12Q3MainWindow16setUsesTextLabelEb
libQt3Support.so.4:_ZN12Q3MainWindow16slotPlaceChangedEv
libQt3Support.so.4:_ZN12Q3MainWindow17lineUpDockWindowsEb
libQt3Support.so.4:_ZN12Q3MainWindow17pixmapSizeChangedEb
libQt3Support.so.4:_ZN12Q3MainWindow17setUsesBigPixmapsEb
libQt3Support.so.4:_ZN12Q3MainWindow18setDockMenuEnabledEb
libQt3Support.so.4:_ZN12Q3MainWindow20usesTextLabelChangedEb
libQt3Support.so.4:_ZN12Q3MainWindow21setDockWindowsMovableEb
libQt3Support.so.4:_ZN12Q3MainWindow21setRightJustificationEb
libQt3Support.so.4:_ZN12Q3MainWindow22toolBarPositionChangedEP9Q3ToolBar
libQt3Support.so.4:_ZN12Q3MainWindow25dockWindowPositionChangedEP12Q3DockWindow
libQt3Support.so.4:_ZN12Q3MainWindow5eventEP6QEvent
libQt3Support.so.4:_ZN12Q3MainWindow9customizeEv
libQt3Support.so.4:_ZN12Q3MainWindow9whatsThisEv
libQt3Support.so.4:_ZN12Q3MainWindowC1EP7QWidgetPKc6QFlagsIN2Qt10WindowTypeEE
libQt3Support.so.4:_ZN12Q3MainWindowC2EP7QWidgetPKc6QFlagsIN2Qt10WindowTypeEE
libQt3Support.so.4:_ZN12Q3MainWindowD0Ev
libQt3Support.so.4:_ZN12Q3MainWindowD1Ev
libQt3Support.so.4:_ZN12Q3MainWindowD2Ev
libQt3Support.so.4:_ZN12Q3PointArray11makeEllipseEiiii
libQt3Support.so.4:_ZN12Q3PointArray7makeArcEiiiiii
libQt3Support.so.4:_ZN12Q3PointArray7makeArcEiiiiiiRK7QMatrix
libQt3Support.so.4:_ZN12Q3ScrollView10fontChangeERK5QFont
libQt3Support.so.4:_ZN12Q3ScrollView10setEnabledEb
libQt3Support.so.4:_ZN12Q3ScrollView10setMarginsEiiii
libQt3Support.so.4:_ZN12Q3ScrollView10setVisibleEb
libQt3Support.so.4:_ZN12Q3ScrollView10wheelEventEP11QWheelEvent
libQt3Support.so.4:_ZN12Q3ScrollView11eventFilterEP7QObjectP6QEvent
libQt3Support.so.4:_ZN12Q3ScrollView11qt_metacallEN11QMetaObject4CallEiPPv
libQt3Support.so.4:_ZN12Q3ScrollView11qt_metacastEPKc
libQt3Support.so.4:_ZN12Q3ScrollView11removeChildEP7QObject
libQt3Support.so.4:_ZN12Q3ScrollView11removeChildEP7QWidget
libQt3Support.so.4:_ZN12Q3ScrollView11resizeEventEP12QResizeEvent
libQt3Support.so.4:_ZN12Q3ScrollView11styleChangeER6QStyle
libQt3Support.so.4:_ZN12Q3ScrollView12drawContentsEP8QPainter
libQt3Support.so.4:_ZN12Q3ScrollView12drawContentsEP8QPainteriiii
libQt3Support.so.4:_ZN12Q3ScrollView12frameChangedEv
libQt3Support.so.4:_ZN12Q3ScrollView12moveContentsEii
libQt3Support.so.4:_ZN12Q3ScrollView13enableClipperEb
libQt3Support.so.4:_ZN12Q3ScrollView13ensureVisibleEii
libQt3Support.so.4:_ZN12Q3ScrollView13ensureVisibleEiiii
libQt3Support.so.4:_ZN12Q3ScrollView13hbarIsPressedEv
libQt3Support.so.4:_ZN12Q3ScrollView13vbarIsPressedEv
libQt3Support.so.4:_ZN12Q3ScrollView14contentsMovingEii
libQt3Support.so.4:_ZN12Q3ScrollView14hbarIsReleasedEv
libQt3Support.so.4:_ZN12Q3ScrollView14mouseMoveEventEP11QMouseEvent
libQt3Support.so.4:_ZN12Q3ScrollView14resizeContentsEii
libQt3Support.so.4:_ZN12Q3ScrollView14setContentsPosEii
libQt3Support.so.4:_ZN12Q3ScrollView14updateContentsERK5QRect
libQt3Support.so.4:_ZN12Q3ScrollView14updateContentsEiiii
libQt3Support.so.4:_ZN12Q3ScrollView14updateContentsEv
libQt3Support.so.4:_ZN12Q3ScrollView14vbarIsReleasedEv
libQt3Support.so.4:_ZN12Q3ScrollView15changeFrameRectERK5QRect
libQt3Support.so.4:_ZN12Q3ScrollView15mousePressEventEP11QMouseEvent
libQt3Support.so.4:_ZN12Q3ScrollView15repaintContentsERK5QRectb
libQt3Support.so.4:_ZN12Q3ScrollView15repaintContentsEb
libQt3Support.so.4:_ZN12Q3ScrollView15repaintContentsEiiiib
libQt3Support.so.4:_ZN12Q3ScrollView15setCornerWidgetEP7QWidget
libQt3Support.so.4:_ZN12Q3ScrollView15setHBarGeometryER10QScrollBariiii
libQt3Support.so.4:_ZN12Q3ScrollView15setResizePolicyENS_12ResizePolicyE
libQt3Support.so.4:_ZN12Q3ScrollView15setVBarGeometryER10QScrollBariiii
libQt3Support.so.4:_ZN12Q3ScrollView16contextMenuEventEP17QContextMenuEvent
libQt3Support.so.4:_ZN12Q3ScrollView16doDragAutoScrollEv
libQt3Support.so.4:_ZN12Q3ScrollView16updateScrollBarsEv
libQt3Support.so.4:_ZN12Q3ScrollView17contentsDropEventEP10QDropEvent
libQt3Support.so.4:_ZN12Q3ScrollView17mouseReleaseEventEP11QMouseEvent
libQt3Support.so.4:_ZN12Q3ScrollView17setDragAutoScrollEb
libQt3Support.so.4:_ZN12Q3ScrollView17setHScrollBarModeENS_13ScrollBarModeE
libQt3Support.so.4:_ZN12Q3ScrollView17setVScrollBarModeENS_13ScrollBarModeE
libQt3Support.so.4:_ZN12Q3ScrollView17viewportDropEventEP10QDropEvent
libQt3Support.so.4:_ZN12Q3ScrollView18contentsWheelEventEP11QWheelEvent
libQt3Support.so.4:_ZN12Q3ScrollView18drawContentsOffsetEP8QPainteriiiiii
libQt3Support.so.4:_ZN12Q3ScrollView18focusNextPrevChildEb
libQt3Support.so.4:_ZN12Q3ScrollView18stopDragAutoScrollEv
libQt3Support.so.4:_ZN12Q3ScrollView18viewportPaintEventEP11QPaintEvent
libQt3Support.so.4:_ZN12Q3ScrollView18viewportWheelEventEP11QWheelEvent
libQt3Support.so.4:_ZN12Q3ScrollView19setStaticBackgroundEb
libQt3Support.so.4:_ZN12Q3ScrollView19startDragAutoScrollEv
libQt3Support.so.4:_ZN12Q3ScrollView19viewportResizeEventEP12QResizeEvent
libQt3Support.so.4:_ZN12Q3ScrollView21contentsDragMoveEventEP14QDragMoveEvent
libQt3Support.so.4:_ZN12Q3ScrollView21mouseDoubleClickEventEP11QMouseEvent
libQt3Support.so.4:_ZN12Q3ScrollView21verticalSliderPressedEv
libQt3Support.so.4:_ZN12Q3ScrollView21viewportDragMoveEventEP14QDragMoveEvent
libQt3Support.so.4:_ZN12Q3ScrollView22contentsDragEnterEventEP15QDragEnterEvent
libQt3Support.so.4:_ZN12Q3ScrollView22contentsDragLeaveEventEP15QDragLeaveEvent
libQt3Support.so.4:_ZN12Q3ScrollView22contentsMouseMoveEventEP11QMouseEvent
libQt3Support.so.4:_ZN12Q3ScrollView22disableSizeHintCachingEv
libQt3Support.so.4:_ZN12Q3ScrollView22verticalSliderReleasedEv
libQt3Support.so.4:_ZN12Q3ScrollView22viewportDragEnterEventEP15QDragEnterEvent
libQt3Support.so.4:_ZN12Q3ScrollView22viewportDragLeaveEventEP15QDragLeaveEvent
libQt3Support.so.4:_ZN12Q3ScrollView22viewportMouseMoveEventEP11QMouseEvent
libQt3Support.so.4:_ZN12Q3ScrollView23contentsMousePressEventEP11QMouseEvent
libQt3Support.so.4:_ZN12Q3ScrollView23horizontalSliderPressedEv
libQt3Support.so.4:_ZN12Q3ScrollView23isVerticalSliderPressedEv
libQt3Support.so.4:_ZN12Q3ScrollView23viewportMousePressEventEP11QMouseEvent
libQt3Support.so.4:_ZN12Q3ScrollView24contentsContextMenuEventEP17QContextMenuEvent
libQt3Support.so.4:_ZN12Q3ScrollView24horizontalSliderReleasedEv
libQt3Support.so.4:_ZN12Q3ScrollView24viewportContextMenuEventEP17QContextMenuEvent
libQt3Support.so.4:_ZN12Q3ScrollView25contentsMouseReleaseEventEP11QMouseEvent
libQt3Support.so.4:_ZN12Q3ScrollView25isHorizontalSliderPressedEv
libQt3Support.so.4:_ZN12Q3ScrollView25viewportMouseReleaseEventEP11QMouseEvent
libQt3Support.so.4:_ZN12Q3ScrollView29contentsMouseDoubleClickEventEP11QMouseEvent
libQt3Support.so.4:_ZN12Q3ScrollView29viewportMouseDoubleClickEventEP11QMouseEvent
libQt3Support.so.4:_ZN12Q3ScrollView6centerEii
libQt3Support.so.4:_ZN12Q3ScrollView6centerEiiff
libQt3Support.so.4:_ZN12Q3ScrollView6childXEP7QWidget
libQt3Support.so.4:_ZN12Q3ScrollView6childYEP7QWidget
libQt3Support.so.4:_ZN12Q3ScrollView6hslideEi
libQt3Support.so.4:_ZN12Q3ScrollView6resizeERK5QSize
libQt3Support.so.4:_ZN12Q3ScrollView6resizeEii
libQt3Support.so.4:_ZN12Q3ScrollView6vslideEi
libQt3Support.so.4:_ZN12Q3ScrollView8addChildEP7QWidgetii
libQt3Support.so.4:_ZN12Q3ScrollView8scrollByEii
libQt3Support.so.4:_ZN12Q3ScrollView9moveChildEP7QWidgetii
libQt3Support.so.4:_ZN12Q3ScrollViewC1EP7QWidgetPKc6QFlagsIN2Qt10WindowTypeEE
libQt3Support.so.4:_ZN12Q3ScrollViewC2EP7QWidgetPKc6QFlagsIN2Qt10WindowTypeEE
libQt3Support.so.4:_ZN12Q3ScrollViewD0Ev
libQt3Support.so.4:_ZN12Q3ScrollViewD1Ev
libQt3Support.so.4:_ZN12Q3ScrollViewD2Ev
libQt3Support.so.4:_ZN12Q3SpinWidget10editWidgetEv
libQt3Support.so.4:_ZN12Q3SpinWidget10paintEventEP11QPaintEvent
libQt3Support.so.4:_ZN12Q3SpinWidget10wheelEventEP11QWheelEvent
libQt3Support.so.4:_ZN12Q3SpinWidget11changeEventEP6QEvent
libQt3Support.so.4:_ZN12Q3SpinWidget11qt_metacallEN11QMetaObject4CallEiPPv
libQt3Support.so.4:_ZN12Q3SpinWidget11qt_metacastEPKc
libQt3Support.so.4:_ZN12Q3SpinWidget11resizeEventEP12QResizeEvent
libQt3Support.so.4:_ZN12Q3SpinWidget11timerDoneExEv
libQt3Support.so.4:_ZN12Q3SpinWidget12setUpEnabledEb
libQt3Support.so.4:_ZN12Q3SpinWidget13setEditWidgetEP7QWidget
libQt3Support.so.4:_ZN12Q3SpinWidget13stepUpPressedEv
libQt3Support.so.4:_ZN12Q3SpinWidget13updateDisplayEv
libQt3Support.so.4:_ZN12Q3SpinWidget14mouseMoveEventEP11QMouseEvent
libQt3Support.so.4:_ZN12Q3SpinWidget14setDownEnabledEb
libQt3Support.so.4:_ZN12Q3SpinWidget15mousePressEventEP11QMouseEvent
libQt3Support.so.4:_ZN12Q3SpinWidget15stepDownPressedEv
libQt3Support.so.4:_ZN12Q3SpinWidget16setButtonSymbolsENS_13ButtonSymbolsE
libQt3Support.so.4:_ZN12Q3SpinWidget17mouseReleaseEventEP11QMouseEvent
libQt3Support.so.4:_ZN12Q3SpinWidget6stepUpEv
libQt3Support.so.4:_ZN12Q3SpinWidget7arrangeEv
libQt3Support.so.4:_ZN12Q3SpinWidget8stepDownEv
libQt3Support.so.4:_ZN12Q3SpinWidget9timerDoneEv
libQt3Support.so.4:_ZN12Q3SpinWidgetC1EP7QWidgetPKc
libQt3Support.so.4:_ZN12Q3SpinWidgetC2EP7QWidgetPKc
libQt3Support.so.4:_ZN12Q3SpinWidgetD0Ev
libQt3Support.so.4:_ZN12Q3SpinWidgetD1Ev
libQt3Support.so.4:_ZN12Q3SpinWidgetD2Ev
libQt3Support.so.4:_ZN12Q3StoredDrag11qt_metacallEN11QMetaObject4CallEiPPv
libQt3Support.so.4:_ZN12Q3StoredDrag11qt_metacastEPKc
libQt3Support.so.4:_ZN12Q3StoredDrag14setEncodedDataERK10QByteArray
libQt3Support.so.4:_ZN12Q3StoredDragC1EPKcP7QWidgetS1_
libQt3Support.so.4:_ZN12Q3StoredDragC1ER19Q3StoredDragPrivatePKcP7QWidget
libQt3Support.so.4:_ZN12Q3StoredDragC2EPKcP7QWidgetS1_
libQt3Support.so.4:_ZN12Q3StoredDragC2ER19Q3StoredDragPrivatePKcP7QWidget
libQt3Support.so.4:_ZN12Q3StoredDragD0Ev
libQt3Support.so.4:_ZN12Q3StoredDragD1Ev
libQt3Support.so.4:_ZN12Q3StoredDragD2Ev
libQt3Support.so.4:_ZN12Q3StyleSheet11qt_metacallEN11QMetaObject4CallEiPPv
libQt3Support.so.4:_ZN12Q3StyleSheet11qt_metacastEPKc
libQt3Support.so.4:_ZN12Q3StyleSheet12defaultSheetEv
libQt3Support.so.4:_ZN12Q3StyleSheet15mightBeRichTextERK7QString
libQt3Support.so.4:_ZN12Q3StyleSheet15setDefaultSheetEPS_
libQt3Support.so.4:_ZN12Q3StyleSheet20convertFromPlainTextERK7QStringN16Q3StyleSheetItem14WhiteSpaceModeE
libQt3Support.so.4:_ZN12Q3StyleSheet4initEv
libQt3Support.so.4:_ZN12Q3StyleSheet4itemERK7QString
libQt3Support.so.4:_ZN12Q3StyleSheet6escapeERK7QString
libQt3Support.so.4:_ZN12Q3StyleSheet6insertEP16Q3StyleSheetItem
libQt3Support.so.4:_ZN12Q3StyleSheetC1EP7QObjectPKc
libQt3Support.so.4:_ZN12Q3StyleSheetC2EP7QObjectPKc
libQt3Support.so.4:_ZN12Q3StyleSheetD0Ev
libQt3Support.so.4:_ZN12Q3StyleSheetD1Ev
libQt3Support.so.4:_ZN12Q3StyleSheetD2Ev
libQt3Support.so.4:_ZN12Q3TextCursor10atParagEndEv
libQt3Support.so.4:_ZN12Q3TextCursor10gotoPageUpEi
libQt3Support.so.4:_ZN12Q3TextCursor11gotoLineEndEv
libQt3Support.so.4:_ZN12Q3TextCursor12atParagStartEv
libQt3Support.so.4:_ZN12Q3TextCursor12gotoNextWordEb
libQt3Support.so.4:_ZN12Q3TextCursor12gotoPageDownEi
libQt3Support.so.4:_ZN12Q3TextCursor12gotoPositionEP15Q3TextParagraphi
libQt3Support.so.4:_ZN12Q3TextCursor12gotoWordLeftEv
libQt3Support.so.4:_ZN12Q3TextCursor12restoreStateEv
libQt3Support.so.4:_ZN12Q3TextCursor13gotoLineStartEv
libQt3Support.so.4:_ZN12Q3TextCursor13gotoWordRightEv
libQt3Support.so.4:_ZN12Q3TextCursor14gotoIntoNestedERK6QPoint
libQt3Support.so.4:_ZN12Q3TextCursor14gotoNextLetterEv
libQt3Support.so.4:_ZN12Q3TextCursor14processNestingENS_9OperationE
libQt3Support.so.4:_ZN12Q3TextCursor16gotoPreviousWordEb
libQt3Support.so.4:_ZN12Q3TextCursor16invalidateNestedEv
libQt3Support.so.4:_ZN12Q3TextCursor17fixCursorPositionEv
libQt3Support.so.4:_ZN12Q3TextCursor18gotoPreviousLetterEv
libQt3Support.so.4:_ZN12Q3TextCursor18removePreviousCharEv
libQt3Support.so.4:_ZN12Q3TextCursor28splitAndInsertEmptyParagraphEbb
libQt3Support.so.4:_ZN12Q3TextCursor3popEv
libQt3Support.so.4:_ZN12Q3TextCursor4pushEv
libQt3Support.so.4:_ZN12Q3TextCursor5placeERK6QPointP15Q3TextParagraphb
libQt3Support.so.4:_ZN12Q3TextCursor6gotoUpEv
libQt3Support.so.4:_ZN12Q3TextCursor6indentEv
libQt3Support.so.4:_ZN12Q3TextCursor6insertERK7QStringbP7QVectorI16Q3TextStringCharE
libQt3Support.so.4:_ZN12Q3TextCursor6removeEv
libQt3Support.so.4:_ZN12Q3TextCursor7gotoEndEv
libQt3Support.so.4:_ZN12Q3TextCursor8gotoDownEv
libQt3Support.so.4:_ZN12Q3TextCursor8gotoHomeEv
libQt3Support.so.4:_ZN12Q3TextCursor8gotoLeftEv
libQt3Support.so.4:_ZN12Q3TextCursor9gotoRightEv
libQt3Support.so.4:_ZN12Q3TextCursorC1EP14Q3TextDocument
libQt3Support.so.4:_ZN12Q3TextCursorC1ERKS_
libQt3Support.so.4:_ZN12Q3TextCursorC2EP14Q3TextDocument
libQt3Support.so.4:_ZN12Q3TextCursorC2ERKS_
libQt3Support.so.4:_ZN12Q3TextCursorD0Ev
libQt3Support.so.4:_ZN12Q3TextCursorD1Ev
libQt3Support.so.4:_ZN12Q3TextCursorD2Ev
libQt3Support.so.4:_ZN12Q3TextCursoraSERKS_
libQt3Support.so.4:_ZN12Q3TextFormat10setPainterEP8QPainter
libQt3Support.so.4:_ZN12Q3TextFormat11generateKeyEv
libQt3Support.so.4:_ZN12Q3TextFormat12setPointSizeEi
libQt3Support.so.4:_ZN12Q3TextFormat12setStrikeOutEb
libQt3Support.so.4:_ZN12Q3TextFormat12setUnderlineEb
libQt3Support.so.4:_ZN12Q3TextFormat13setMisspelledEb
libQt3Support.so.4:_ZN12Q3TextFormat6getKeyERK5QFontRK6QColorbNS_17VerticalAlignmentE
libQt3Support.so.4:_ZN12Q3TextFormat6updateEv
libQt3Support.so.4:_ZN12Q3TextFormat7painterEv
libQt3Support.so.4:_ZN12Q3TextFormat7setBoldEb
libQt3Support.so.4:_ZN12Q3TextFormat7setFontERK5QFont
libQt3Support.so.4:_ZN12Q3TextFormat8setColorERK6QColor
libQt3Support.so.4:_ZN12Q3TextFormat9applyFontERK5QFont
libQt3Support.so.4:_ZN12Q3TextFormat9setFamilyERK7QString
libQt3Support.so.4:_ZN12Q3TextFormat9setItalicEb
libQt3Support.so.4:_ZN12Q3TextFormat9setVAlignENS_17VerticalAlignmentE
libQt3Support.so.4:_ZN12Q3TextFormatC1EPK16Q3StyleSheetItem
libQt3Support.so.4:_ZN12Q3TextFormatC1ERK5QFontRK6QColorP22Q3TextFormatCollection
libQt3Support.so.4:_ZN12Q3TextFormatC1ERKS_
libQt3Support.so.4:_ZN12Q3TextFormatC1Ev
libQt3Support.so.4:_ZN12Q3TextFormatC2EPK16Q3StyleSheetItem
libQt3Support.so.4:_ZN12Q3TextFormatC2ERK5QFontRK6QColorP22Q3TextFormatCollection
libQt3Support.so.4:_ZN12Q3TextFormatC2ERKS_
libQt3Support.so.4:_ZN12Q3TextFormatC2Ev
libQt3Support.so.4:_ZN12Q3TextFormatD0Ev
libQt3Support.so.4:_ZN12Q3TextFormatD1Ev
libQt3Support.so.4:_ZN12Q3TextFormatD2Ev
libQt3Support.so.4:_ZN12Q3TextFormataSERKS_
libQt3Support.so.4:_ZN12Q3TextIndentC1Ev
libQt3Support.so.4:_ZN12Q3TextIndentC2Ev
libQt3Support.so.4:_ZN12Q3TextStream10output_intEimb
libQt3Support.so.4:_ZN12Q3TextStream10ts_getlineEP5QChar
libQt3Support.so.4:_ZN12Q3TextStream10ts_isdigitE5QChar
libQt3Support.so.4:_ZN12Q3TextStream10ts_isspaceE5QChar
libQt3Support.so.4:_ZN12Q3TextStream10writeBlockEPK5QCharj
libQt3Support.so.4:_ZN12Q3TextStream10writeBlockEPKcj
libQt3Support.so.4:_ZN12Q3TextStream11setEncodingENS_8EncodingE
libQt3Support.so.4:_ZN12Q3TextStream11unsetDeviceEv
libQt3Support.so.4:_ZN12Q3TextStream12input_doubleEv
libQt3Support.so.4:_ZN12Q3TextStream12readRawBytesEPcj
libQt3Support.so.4:_ZN12Q3TextStream13writeRawBytesEPKcj
libQt3Support.so.4:_ZN12Q3TextStream14skipWhiteSpaceEv
libQt3Support.so.4:_ZN12Q3TextStream4initEv
libQt3Support.so.4:_ZN12Q3TextStream4readEv
libQt3Support.so.4:_ZN12Q3TextStream5codecEv
libQt3Support.so.4:_ZN12Q3TextStream5resetEv
libQt3Support.so.4:_ZN12Q3TextStream6eat_wsEv
libQt3Support.so.4:_ZN12Q3TextStream7ts_putcE5QChar
libQt3Support.so.4:_ZN12Q3TextStream7ts_putcEi
libQt3Support.so.4:_ZN12Q3TextStream8readLineEv
libQt3Support.so.4:_ZN12Q3TextStream8setCodecEP10QTextCodec
libQt3Support.so.4:_ZN12Q3TextStream9input_binEv
libQt3Support.so.4:_ZN12Q3TextStream9input_decEv
libQt3Support.so.4:_ZN12Q3TextStream9input_hexEv
libQt3Support.so.4:_ZN12Q3TextStream9input_intEv
libQt3Support.so.4:_ZN12Q3TextStream9input_octEv
libQt3Support.so.4:_ZN12Q3TextStream9setDeviceEP9QIODevice
libQt3Support.so.4:_ZN12Q3TextStream9ts_getbufEP5QCharj
libQt3Support.so.4:_ZN12Q3TextStream9ts_ungetcE5QChar
libQt3Support.so.4:_ZN12Q3TextStreamC1EP7QStringi
libQt3Support.so.4:_ZN12Q3TextStreamC1EP8_IO_FILEi
libQt3Support.so.4:_ZN12Q3TextStreamC1EP9QIODevice
libQt3Support.so.4:_ZN12Q3TextStreamC1ER10QByteArrayi
libQt3Support.so.4:_ZN12Q3TextStreamC1ER7QStringi
libQt3Support.so.4:_ZN12Q3TextStreamC1Ev
libQt3Support.so.4:_ZN12Q3TextStreamC2EP7QStringi
libQt3Support.so.4:_ZN12Q3TextStreamC2EP8_IO_FILEi
libQt3Support.so.4:_ZN12Q3TextStreamC2EP9QIODevice
libQt3Support.so.4:_ZN12Q3TextStreamC2ER10QByteArrayi
libQt3Support.so.4:_ZN12Q3TextStreamC2ER7QStringi
libQt3Support.so.4:_ZN12Q3TextStreamC2Ev
libQt3Support.so.4:_ZN12Q3TextStreamD0Ev
libQt3Support.so.4:_ZN12Q3TextStreamD1Ev
libQt3Support.so.4:_ZN12Q3TextStreamD2Ev
libQt3Support.so.4:_ZN12Q3TextStreamlsE5QChar
libQt3Support.so.4:_ZN12Q3TextStreamlsEPKc
libQt3Support.so.4:_ZN12Q3TextStreamlsEPv
libQt3Support.so.4:_ZN12Q3TextStreamlsERK7QString
libQt3Support.so.4:_ZN12Q3TextStreamlsERK9Q3CString
libQt3Support.so.4:_ZN12Q3TextStreamlsEc
libQt3Support.so.4:_ZN12Q3TextStreamlsEd
libQt3Support.so.4:_ZN12Q3TextStreamlsEf
libQt3Support.so.4:_ZN12Q3TextStreamlsEi
libQt3Support.so.4:_ZN12Q3TextStreamlsEj
libQt3Support.so.4:_ZN12Q3TextStreamlsEl
libQt3Support.so.4:_ZN12Q3TextStreamlsEm
libQt3Support.so.4:_ZN12Q3TextStreamlsEs
libQt3Support.so.4:_ZN12Q3TextStreamlsEt
libQt3Support.so.4:_ZN12Q3TextStreamrsEPc
libQt3Support.so.4:_ZN12Q3TextStreamrsER5QChar
libQt3Support.so.4:_ZN12Q3TextStreamrsER7QString
libQt3Support.so.4:_ZN12Q3TextStreamrsER9Q3CString
libQt3Support.so.4:_ZN12Q3TextStreamrsERc
libQt3Support.so.4:_ZN12Q3TextStreamrsERd
libQt3Support.so.4:_ZN12Q3TextStreamrsERf
libQt3Support.so.4:_ZN12Q3TextStreamrsERi
libQt3Support.so.4:_ZN12Q3TextStreamrsERj
libQt3Support.so.4:_ZN12Q3TextStreamrsERl
libQt3Support.so.4:_ZN12Q3TextStreamrsERm
libQt3Support.so.4:_ZN12Q3TextStreamrsERs
libQt3Support.so.4:_ZN12Q3TextStreamrsERt
libQt3Support.so.4:_ZN12Q3TextString16appendParagraphsEP15Q3TextParagraphS1_
libQt3Support.so.4:_ZN12Q3TextString5clearEv
libQt3Support.so.4:_ZN12Q3TextString6insertEiP16Q3TextStringCharb
libQt3Support.so.4:_ZN12Q3TextString6insertEiPK5QChariP12Q3TextFormat
libQt3Support.so.4:_ZN12Q3TextString6insertEiRK7QStringP12Q3TextFormat
libQt3Support.so.4:_ZN12Q3TextString6removeEii
libQt3Support.so.4:_ZN12Q3TextString8toStringERK7QVectorI16Q3TextStringCharE
libQt3Support.so.4:_ZN12Q3TextString8truncateEi
libQt3Support.so.4:_ZN12Q3TextString9setFormatEiP12Q3TextFormatb
libQt3Support.so.4:_ZN12Q3TextStringC1ERKS_
libQt3Support.so.4:_ZN12Q3TextStringC1Ev
libQt3Support.so.4:_ZN12Q3TextStringC2ERKS_
libQt3Support.so.4:_ZN12Q3TextStringC2Ev
libQt3Support.so.4:_ZN12Q3TextStringD0Ev
libQt3Support.so.4:_ZN12Q3TextStringD1Ev
libQt3Support.so.4:_ZN12Q3TextStringD2Ev
libQt3Support.so.4:_ZN13Q3ActionGroup10childEventEP11QChildEvent
libQt3Support.so.4:_ZN13Q3ActionGroup10removeFromEP7QWidget
libQt3Support.so.4:_ZN13Q3ActionGroup10setEnabledEb
libQt3Support.so.4:_ZN13Q3ActionGroup10setIconSetERK5QIcon
libQt3Support.so.4:_ZN13Q3ActionGroup10setToolTipERK7QString
libQt3Support.so.4:_ZN13Q3ActionGroup10setVisibleEb
libQt3Support.so.4:_ZN13Q3ActionGroup11qt_metacallEN11QMetaObject4CallEiPPv
libQt3Support.so.4:_ZN13Q3ActionGroup11qt_metacastEPKc
libQt3Support.so.4:_ZN13Q3ActionGroup11setMenuTextERK7QString
libQt3Support.so.4:_ZN13Q3ActionGroup12addSeparatorEv
libQt3Support.so.4:_ZN13Q3ActionGroup12childToggledEb
libQt3Support.so.4:_ZN13Q3ActionGroup12setExclusiveEb
libQt3Support.so.4:_ZN13Q3ActionGroup12setWhatsThisERK7QString
libQt3Support.so.4:_ZN13Q3ActionGroup14childActivatedEv
libQt3Support.so.4:_ZN13Q3ActionGroup14childDestroyedEv
libQt3Support.so.4:_ZN13Q3ActionGroup14internalToggleEP8Q3Action
libQt3Support.so.4:_ZN13Q3ActionGroup15objectDestroyedEv
libQt3Support.so.4:_ZN13Q3ActionGroup15setToggleActionEb
libQt3Support.so.4:_ZN13Q3ActionGroup15setUsesDropDownEb
libQt3Support.so.4:_ZN13Q3ActionGroup25internalComboBoxActivatedEi
libQt3Support.so.4:_ZN13Q3ActionGroup27internalComboBoxHighlightedEi
libQt3Support.so.4:_ZN13Q3ActionGroup3addEP8Q3Action
libQt3Support.so.4:_ZN13Q3ActionGroup5addToEP7QWidget
libQt3Support.so.4:_ZN13Q3ActionGroup5setOnEb
libQt3Support.so.4:_ZN13Q3ActionGroup7addedToEP7QWidgetS1_
libQt3Support.so.4:_ZN13Q3ActionGroup7addedToEP7QWidgetS1_P8Q3Action
libQt3Support.so.4:_ZN13Q3ActionGroup7addedToEiP11Q3PopupMenu
libQt3Support.so.4:_ZN13Q3ActionGroup7addedToEiP11Q3PopupMenuP8Q3Action
libQt3Support.so.4:_ZN13Q3ActionGroup7setTextERK7QString
libQt3Support.so.4:_ZN13Q3ActionGroup8selectedEP8Q3Action
libQt3Support.so.4:_ZN13Q3ActionGroup9activatedEP8Q3Action
libQt3Support.so.4:_ZN13Q3ActionGroupC1EP7QObjectPKc
libQt3Support.so.4:_ZN13Q3ActionGroupC1EP7QObjectPKcb
libQt3Support.so.4:_ZN13Q3ActionGroupC2EP7QObjectPKc
libQt3Support.so.4:_ZN13Q3ActionGroupC2EP7QObjectPKcb
libQt3Support.so.4:_ZN13Q3ActionGroupD0Ev
libQt3Support.so.4:_ZN13Q3ActionGroupD1Ev
libQt3Support.so.4:_ZN13Q3ActionGroupD2Ev
libQt3Support.so.4:_ZN13Q3ButtonGroup11qt_metacallEN11QMetaObject4CallEiPPv
libQt3Support.so.4:_ZN13Q3ButtonGroup11qt_metacastEPKc
libQt3Support.so.4:_ZN13Q3ButtonGroup12setExclusiveEb
libQt3Support.so.4:_ZN13Q3ButtonGroup13buttonClickedEv
libQt3Support.so.4:_ZN13Q3ButtonGroup13buttonPressedEv
libQt3Support.so.4:_ZN13Q3ButtonGroup13insert_helperEP15QAbstractButtoni
libQt3Support.so.4:_ZN13Q3ButtonGroup13remove_helperEP15QAbstractButton
libQt3Support.so.4:_ZN13Q3ButtonGroup14buttonReleasedEv
libQt3Support.so.4:_ZN13Q3ButtonGroup15buttonDestroyedEv
libQt3Support.so.4:_ZN13Q3ButtonGroup23setRadioButtonExclusiveEb
libQt3Support.so.4:_ZN13Q3ButtonGroup4initEv
libQt3Support.so.4:_ZN13Q3ButtonGroup5eventEP6QEvent
libQt3Support.so.4:_ZN13Q3ButtonGroup6insertEP15QAbstractButtoni
libQt3Support.so.4:_ZN13Q3ButtonGroup6removeEP15QAbstractButton
libQt3Support.so.4:_ZN13Q3ButtonGroup7clickedEi
libQt3Support.so.4:_ZN13Q3ButtonGroup7pressedEi
libQt3Support.so.4:_ZN13Q3ButtonGroup8releasedEi
libQt3Support.so.4:_ZN13Q3ButtonGroup9setButtonEi
libQt3Support.so.4:_ZN13Q3ButtonGroupC1EP7QWidgetPKc
libQt3Support.so.4:_ZN13Q3ButtonGroupC1ERK7QStringP7QWidgetPKc
libQt3Support.so.4:_ZN13Q3ButtonGroupC1EiN2Qt11OrientationEP7QWidgetPKc
libQt3Support.so.4:_ZN13Q3ButtonGroupC1EiN2Qt11OrientationERK7QStringP7QWidgetPKc
libQt3Support.so.4:_ZN13Q3ButtonGroupC2EP7QWidgetPKc
libQt3Support.so.4:_ZN13Q3ButtonGroupC2ERK7QStringP7QWidgetPKc
libQt3Support.so.4:_ZN13Q3ButtonGroupC2EiN2Qt11OrientationEP7QWidgetPKc
libQt3Support.so.4:_ZN13Q3ButtonGroupC2EiN2Qt11OrientationERK7QStringP7QWidgetPKc
libQt3Support.so.4:_ZN13Q3ButtonGroupD0Ev
libQt3Support.so.4:_ZN13Q3ButtonGroupD1Ev
libQt3Support.so.4:_ZN13Q3ButtonGroupD2Ev
libQt3Support.so.4:_ZN13Q3DataBrowser10readFieldsEv
libQt3Support.so.4:_ZN13Q3DataBrowser11clearValuesEv
libQt3Support.so.4:_ZN13Q3DataBrowser11confirmEditEN4QSql2OpE
libQt3Support.so.4:_ZN13Q3DataBrowser11handleErrorERK9QSqlError
libQt3Support.so.4:_ZN13Q3DataBrowser11primeDeleteEP10QSqlRecord
libQt3Support.so.4:_ZN13Q3DataBrowser11primeInsertEP10QSqlRecord
libQt3Support.so.4:_ZN13Q3DataBrowser11primeUpdateEP10QSqlRecord
libQt3Support.so.4:_ZN13Q3DataBrowser11qt_metacallEN11QMetaObject4CallEiPPv
libQt3Support.so.4:_ZN13Q3DataBrowser11qt_metacastEPKc
libQt3Support.so.4:_ZN13Q3DataBrowser11setAutoEditEb
libQt3Support.so.4:_ZN13Q3DataBrowser11setReadOnlyEb
libQt3Support.so.4:_ZN13Q3DataBrowser11writeFieldsEv
libQt3Support.so.4:_ZN13Q3DataBrowser12beforeDeleteEP10QSqlRecord
libQt3Support.so.4:_ZN13Q3DataBrowser12beforeInsertEP10QSqlRecord
libQt3Support.so.4:_ZN13Q3DataBrowser12beforeUpdateEP10QSqlRecord
libQt3Support.so.4:_ZN13Q3DataBrowser12setSqlCursorEP11Q3SqlCursorb
libQt3Support.so.4:_ZN13Q3DataBrowser13confirmCancelEN4QSql2OpE
libQt3Support.so.4:_ZN13Q3DataBrowser13currentEditedEv
libQt3Support.so.4:_ZN13Q3DataBrowser13cursorChangedEN11Q3SqlCursor4ModeE
libQt3Support.so.4:_ZN13Q3DataBrowser13deleteCurrentEv
libQt3Support.so.4:_ZN13Q3DataBrowser13insertCurrentEv
libQt3Support.so.4:_ZN13Q3DataBrowser13updateCurrentEv
libQt3Support.so.4:_ZN13Q3DataBrowser14currentChangedEPK10QSqlRecord
libQt3Support.so.4:_ZN13Q3DataBrowser14updateBoundaryEv
libQt3Support.so.4:_ZN13Q3DataBrowser15setConfirmEditsEb
libQt3Support.so.4:_ZN13Q3DataBrowser16setConfirmDeleteEb
libQt3Support.so.4:_ZN13Q3DataBrowser16setConfirmInsertEb
libQt3Support.so.4:_ZN13Q3DataBrowser16setConfirmUpdateEb
libQt3Support.so.4:_ZN13Q3DataBrowser17setConfirmCancelsEb
libQt3Support.so.4:_ZN13Q3DataBrowser19lastRecordAvailableEb
libQt3Support.so.4:_ZN13Q3DataBrowser19nextRecordAvailableEb
libQt3Support.so.4:_ZN13Q3DataBrowser19prevRecordAvailableEb
libQt3Support.so.4:_ZN13Q3DataBrowser19setBoundaryCheckingEb
libQt3Support.so.4:_ZN13Q3DataBrowser20firstRecordAvailableEb
libQt3Support.so.4:_ZN13Q3DataBrowser3delEv
libQt3Support.so.4:_ZN13Q3DataBrowser3navEM11Q3SqlCursorFbvE
libQt3Support.so.4:_ZN13Q3DataBrowser4formEv
libQt3Support.so.4:_ZN13Q3DataBrowser4lastEv
libQt3Support.so.4:_ZN13Q3DataBrowser4nextEv
libQt3Support.so.4:_ZN13Q3DataBrowser4prevEv
libQt3Support.so.4:_ZN13Q3DataBrowser4seekEib
libQt3Support.so.4:_ZN13Q3DataBrowser5firstEv
libQt3Support.so.4:_ZN13Q3DataBrowser6insertEv
libQt3Support.so.4:_ZN13Q3DataBrowser6preNavEv
libQt3Support.so.4:_ZN13Q3DataBrowser6updateEv
libQt3Support.so.4:_ZN13Q3DataBrowser7postNavEb
libQt3Support.so.4:_ZN13Q3DataBrowser7refreshEv
libQt3Support.so.4:_ZN13Q3DataBrowser7setFormEP9Q3SqlForm
libQt3Support.so.4:_ZN13Q3DataBrowser7setSortERK11QStringList
libQt3Support.so.4:_ZN13Q3DataBrowser7setSortERK9QSqlIndex
libQt3Support.so.4:_ZN13Q3DataBrowser8boundaryEv
libQt3Support.so.4:_ZN13Q3DataBrowser9setFilterERK7QString
libQt3Support.so.4:_ZN13Q3DataBrowserC1EP7QWidgetPKc6QFlagsIN2Qt10WindowTypeEE
libQt3Support.so.4:_ZN13Q3DataBrowserC2EP7QWidgetPKc6QFlagsIN2Qt10WindowTypeEE
libQt3Support.so.4:_ZN13Q3DataBrowserD0Ev
libQt3Support.so.4:_ZN13Q3DataBrowserD1Ev
libQt3Support.so.4:_ZN13Q3DataBrowserD2Ev
libQt3Support.so.4:_ZN13Q3DataManager11confirmEditEP7QWidgetN4QSql2OpE
libQt3Support.so.4:_ZN13Q3DataManager11handleErrorEP7QWidgetRK9QSqlError
libQt3Support.so.4:_ZN13Q3DataManager11setAutoEditEb
libQt3Support.so.4:_ZN13Q3DataManager13confirmCancelEP7QWidgetN4QSql2OpE
libQt3Support.so.4:_ZN13Q3DataManager15setConfirmEditsEb
libQt3Support.so.4:_ZN13Q3DataManager16setConfirmDeleteEb
libQt3Support.so.4:_ZN13Q3DataManager16setConfirmInsertEb
libQt3Support.so.4:_ZN13Q3DataManager16setConfirmUpdateEb
libQt3Support.so.4:_ZN13Q3DataManager17setConfirmCancelsEb
libQt3Support.so.4:_ZN13Q3DataManager7setModeEN4QSql2OpE
libQt3Support.so.4:_ZN13Q3DataManagerC1Ev
libQt3Support.so.4:_ZN13Q3DataManagerC2Ev
libQt3Support.so.4:_ZN13Q3DataManagerD0Ev
libQt3Support.so.4:_ZN13Q3DataManagerD1Ev
libQt3Support.so.4:_ZN13Q3DataManagerD2Ev
libQt3Support.so.4:_ZN13Q3FilePreviewC1Ev
libQt3Support.so.4:_ZN13Q3FilePreviewC2Ev
libQt3Support.so.4:_ZN13Q3ListBoxItem21setCustomHighlightingEb
libQt3Support.so.4:_ZN13Q3ListBoxItemC1EP9Q3ListBox
libQt3Support.so.4:_ZN13Q3ListBoxItemC1EP9Q3ListBoxPS_
libQt3Support.so.4:_ZN13Q3ListBoxItemC2EP9Q3ListBox
libQt3Support.so.4:_ZN13Q3ListBoxItemC2EP9Q3ListBoxPS_
libQt3Support.so.4:_ZN13Q3ListBoxItemD0Ev
libQt3Support.so.4:_ZN13Q3ListBoxItemD1Ev
libQt3Support.so.4:_ZN13Q3ListBoxItemD2Ev
libQt3Support.so.4:_ZN13Q3ListBoxText5paintEP8QPainter
libQt3Support.so.4:_ZN13Q3ListBoxTextC1EP9Q3ListBoxRK7QString
libQt3Support.so.4:_ZN13Q3ListBoxTextC1EP9Q3ListBoxRK7QStringP13Q3ListBoxItem
libQt3Support.so.4:_ZN13Q3ListBoxTextC1ERK7QString
libQt3Support.so.4:_ZN13Q3ListBoxTextC2EP9Q3ListBoxRK7QString
libQt3Support.so.4:_ZN13Q3ListBoxTextC2EP9Q3ListBoxRK7QStringP13Q3ListBoxItem
libQt3Support.so.4:_ZN13Q3ListBoxTextC2ERK7QString
libQt3Support.so.4:_ZN13Q3ListBoxTextD0Ev
libQt3Support.so.4:_ZN13Q3ListBoxTextD1Ev
libQt3Support.so.4:_ZN13Q3ListBoxTextD2Ev
libQt3Support.so.4:_ZN13Q3ProgressBar10paintEventEP11QPaintEvent
libQt3Support.so.4:_ZN13Q3ProgressBar10setVisibleEb
libQt3Support.so.4:_ZN13Q3ProgressBar11changeEventEP6QEvent
libQt3Support.so.4:_ZN13Q3ProgressBar11qt_metacallEN11QMetaObject4CallEiPPv
libQt3Support.so.4:_ZN13Q3ProgressBar11qt_metacastEPKc
libQt3Support.so.4:_ZN13Q3ProgressBar11setProgressEi
libQt3Support.so.4:_ZN13Q3ProgressBar11setProgressEii
libQt3Support.so.4:_ZN13Q3ProgressBar12setIndicatorER7QStringii
libQt3Support.so.4:_ZN13Q3ProgressBar13setTotalStepsEi
libQt3Support.so.4:_ZN13Q3ProgressBar18setCenterIndicatorEb
libQt3Support.so.4:_ZN13Q3ProgressBar20setPercentageVisibleEb
libQt3Support.so.4:_ZN13Q3ProgressBar5resetEv
libQt3Support.so.4:_ZN13Q3ProgressBar9initFrameEv
libQt3Support.so.4:_ZN13Q3ProgressBarC1EP7QWidget6QFlagsIN2Qt10WindowTypeEE
libQt3Support.so.4:_ZN13Q3ProgressBarC1EP7QWidgetPKc6QFlagsIN2Qt10WindowTypeEE
libQt3Support.so.4:_ZN13Q3ProgressBarC1EiP7QWidget6QFlagsIN2Qt10WindowTypeEE
libQt3Support.so.4:_ZN13Q3ProgressBarC1EiP7QWidgetPKc6QFlagsIN2Qt10WindowTypeEE
libQt3Support.so.4:_ZN13Q3ProgressBarC2EP7QWidget6QFlagsIN2Qt10WindowTypeEE
libQt3Support.so.4:_ZN13Q3ProgressBarC2EP7QWidgetPKc6QFlagsIN2Qt10WindowTypeEE
libQt3Support.so.4:_ZN13Q3ProgressBarC2EiP7QWidget6QFlagsIN2Qt10WindowTypeEE
libQt3Support.so.4:_ZN13Q3ProgressBarC2EiP7QWidgetPKc6QFlagsIN2Qt10WindowTypeEE
libQt3Support.so.4:_ZN13Q3TableHeader10paintEventEP11QPaintEvent
libQt3Support.so.4:_ZN13Q3TableHeader10saveStatesEv
libQt3Support.so.4:_ZN13Q3TableHeader10setCachingEb
libQt3Support.so.4:_ZN13Q3TableHeader11doSelectionEP11QMouseEvent
libQt3Support.so.4:_ZN13Q3TableHeader11qt_metacallEN11QMetaObject4CallEiPPv
libQt3Support.so.4:_ZN13Q3TableHeader11qt_metacastEPKc
libQt3Support.so.4:_ZN13Q3TableHeader11removeLabelEi
libQt3Support.so.4:_ZN13Q3TableHeader11resizeEventEP12QResizeEvent
libQt3Support.so.4:_ZN13Q3TableHeader11updateCacheEv
libQt3Support.so.4:_ZN13Q3TableHeader12doAutoScrollEv
libQt3Support.so.4:_ZN13Q3TableHeader12indexChangedEiii
libQt3Support.so.4:_ZN13Q3TableHeader12paintSectionEP8QPainteriRK5QRect
libQt3Support.so.4:_ZN13Q3TableHeader12resizeArraysEi
libQt3Support.so.4:_ZN13Q3TableHeader12swapSectionsEiib
libQt3Support.so.4:_ZN13Q3TableHeader14mouseMoveEventEP11QMouseEvent
libQt3Support.so.4:_ZN13Q3TableHeader15mousePressEventEP11QMouseEvent
libQt3Support.so.4:_ZN13Q3TableHeader15setSectionStateEiNS_12SectionStateE
libQt3Support.so.4:_ZN13Q3TableHeader15updateStretchesEv
libQt3Support.so.4:_ZN13Q3TableHeader16updateSelectionsEv
libQt3Support.so.4:_ZN13Q3TableHeader17mouseReleaseEventEP11QMouseEvent
libQt3Support.so.4:_ZN13Q3TableHeader18sectionSizeChangedEi
libQt3Support.so.4:_ZN13Q3TableHeader19sectionLabelChangedEi
libQt3Support.so.4:_ZN13Q3TableHeader19sectionWidthChangedEiii
libQt3Support.so.4:_ZN13Q3TableHeader20setSectionStateToAllENS_12SectionStateE
libQt3Support.so.4:_ZN13Q3TableHeader21mouseDoubleClickEventEP11QMouseEvent
libQt3Support.so.4:_ZN13Q3TableHeader21setSectionStretchableEib
libQt3Support.so.4:_ZN13Q3TableHeader21updateWidgetStretchesEv
libQt3Support.so.4:_ZN13Q3TableHeader8addLabelERK7QStringi
libQt3Support.so.4:_ZN13Q3TableHeader8setLabelEiRK5QIconRK7QStringi
libQt3Support.so.4:_ZN13Q3TableHeader8setLabelEiRK7QStringi
libQt3Support.so.4:_ZN13Q3TableHeader9setLabelsERK11QStringList
libQt3Support.so.4:_ZN13Q3TableHeaderC1EiP7Q3TableP7QWidgetPKc
libQt3Support.so.4:_ZN13Q3TableHeaderC2EiP7Q3TableP7QWidgetPKc
libQt3Support.so.4:_ZN13Q3TextBrowser11highlightedERK7QString
libQt3Support.so.4:_ZN13Q3TextBrowser11linkClickedERK7QString
libQt3Support.so.4:_ZN13Q3TextBrowser11popupDetailERK7QStringRK6QPoint
libQt3Support.so.4:_ZN13Q3TextBrowser11qt_metacallEN11QMetaObject4CallEiPPv
libQt3Support.so.4:_ZN13Q3TextBrowser11qt_metacastEPKc
libQt3Support.so.4:_ZN13Q3TextBrowser13anchorClickedERK7QStringS2_
libQt3Support.so.4:_ZN13Q3TextBrowser13keyPressEventEP9QKeyEvent
libQt3Support.so.4:_ZN13Q3TextBrowser13sourceChangedERK7QString
libQt3Support.so.4:_ZN13Q3TextBrowser15emitHighlightedERK7QString
libQt3Support.so.4:_ZN13Q3TextBrowser15emitLinkClickedERK7QString
libQt3Support.so.4:_ZN13Q3TextBrowser16forwardAvailableEb
libQt3Support.so.4:_ZN13Q3TextBrowser17backwardAvailableEb
libQt3Support.so.4:_ZN13Q3TextBrowser4homeEv
libQt3Support.so.4:_ZN13Q3TextBrowser6reloadEv
libQt3Support.so.4:_ZN13Q3TextBrowser7forwardEv
libQt3Support.so.4:_ZN13Q3TextBrowser7setTextERK7QStringS2_
libQt3Support.so.4:_ZN13Q3TextBrowser8backwardEv
libQt3Support.so.4:_ZN13Q3TextBrowser9setSourceERK7QString
libQt3Support.so.4:_ZN13Q3TextBrowserC1EP7QWidgetPKc
libQt3Support.so.4:_ZN13Q3TextBrowserC2EP7QWidgetPKc
libQt3Support.so.4:_ZN13Q3TextBrowserD0Ev
libQt3Support.so.4:_ZN13Q3TextBrowserD1Ev
libQt3Support.so.4:_ZN13Q3TextBrowserD2Ev
libQt3Support.so.4:_ZN13Q3TextCommandD0Ev
libQt3Support.so.4:_ZN13Q3TextCommandD1Ev
libQt3Support.so.4:_ZN13Q3TextCommandD2Ev
libQt3Support.so.4:_ZN13Q3UrlOperator10checkValidEv
libQt3Support.so.4:_ZN13Q3UrlOperator11copyGotDataERK10QByteArrayP18Q3NetworkOperation
libQt3Support.so.4:_ZN13Q3UrlOperator11itemChangedEP18Q3NetworkOperation
libQt3Support.so.4:_ZN13Q3UrlOperator11newChildrenERK11Q3ValueListI8QUrlInfoEP18Q3NetworkOperation
libQt3Support.so.4:_ZN13Q3UrlOperator11qt_metacallEN11QMetaObject4CallEiPPv
libQt3Support.so.4:_ZN13Q3UrlOperator11qt_metacastEPKc
libQt3Support.so.4:_ZN13Q3UrlOperator12clearEntriesEv
libQt3Support.so.4:_ZN13Q3UrlOperator12continueCopyEP18Q3NetworkOperation
libQt3Support.so.4:_ZN13Q3UrlOperator12finishedCopyEv
libQt3Support.so.4:_ZN13Q3UrlOperator12listChildrenEv
libQt3Support.so.4:_ZN13Q3UrlOperator13setNameFilterERK7QString
libQt3Support.so.4:_ZN13Q3UrlOperator14startOperationEP18Q3NetworkOperation
libQt3Support.so.4:_ZN13Q3UrlOperator15deleteOperationEP18Q3NetworkOperation
libQt3Support.so.4:_ZN13Q3UrlOperator15slotItemChangedEP18Q3NetworkOperation
libQt3Support.so.4:_ZN13Q3UrlOperator15startedNextCopyERK9Q3PtrListI18Q3NetworkOperationE
libQt3Support.so.4:_ZN13Q3UrlOperator16createdDirectoryERK8QUrlInfoP18Q3NetworkOperation
libQt3Support.so.4:_ZN13Q3UrlOperator18getNetworkProtocolEv
libQt3Support.so.4:_ZN13Q3UrlOperator20dataTransferProgressEiiP18Q3NetworkOperation
libQt3Support.so.4:_ZN13Q3UrlOperator21deleteNetworkProtocolEv
libQt3Support.so.4:_ZN13Q3UrlOperator22connectionStateChangedEiRK7QString
libQt3Support.so.4:_ZN13Q3UrlOperator3getERK7QString
libQt3Support.so.4:_ZN13Q3UrlOperator3putERK10QByteArrayRK7QString
libQt3Support.so.4:_ZN13Q3UrlOperator4cdUpEv
libQt3Support.so.4:_ZN13Q3UrlOperator4copyERK11QStringListRK7QStringb
libQt3Support.so.4:_ZN13Q3UrlOperator4copyERK7QStringS2_bb
libQt3Support.so.4:_ZN13Q3UrlOperator4dataERK10QByteArrayP18Q3NetworkOperation
libQt3Support.so.4:_ZN13Q3UrlOperator4stopEv
libQt3Support.so.4:_ZN13Q3UrlOperator5isDirEPb
libQt3Support.so.4:_ZN13Q3UrlOperator5mkdirERK7QString
libQt3Support.so.4:_ZN13Q3UrlOperator5parseERK7QString
libQt3Support.so.4:_ZN13Q3UrlOperator5resetEv
libQt3Support.so.4:_ZN13Q3UrlOperator5startEP18Q3NetworkOperation
libQt3Support.so.4:_ZN13Q3UrlOperator6removeERK7QString
libQt3Support.so.4:_ZN13Q3UrlOperator6renameERK7QStringS2_
libQt3Support.so.4:_ZN13Q3UrlOperator7removedEP18Q3NetworkOperation
libQt3Support.so.4:_ZN13Q3UrlOperator7setPathERK7QString
libQt3Support.so.4:_ZN13Q3UrlOperator8addEntryERK11Q3ValueListI8QUrlInfoE
libQt3Support.so.4:_ZN13Q3UrlOperator8finishedEP18Q3NetworkOperation
libQt3Support.so.4:_ZN13Q3UrlOperatorC1ERK7QString
libQt3Support.so.4:_ZN13Q3UrlOperatorC1ERKS_
libQt3Support.so.4:_ZN13Q3UrlOperatorC1ERKS_RK7QStringb
libQt3Support.so.4:_ZN13Q3UrlOperatorC1Ev
libQt3Support.so.4:_ZN13Q3UrlOperatorC2ERK7QString
libQt3Support.so.4:_ZN13Q3UrlOperatorC2ERKS_
libQt3Support.so.4:_ZN13Q3UrlOperatorC2ERKS_RK7QStringb
libQt3Support.so.4:_ZN13Q3UrlOperatorC2Ev
libQt3Support.so.4:_ZN13Q3UrlOperatorD0Ev
libQt3Support.so.4:_ZN13Q3UrlOperatorD1Ev
libQt3Support.so.4:_ZN13Q3UrlOperatorD2Ev
libQt3Support.so.4:_ZN13Q3UrlOperatoraSERK7QString
libQt3Support.so.4:_ZN13Q3UrlOperatoraSERKS_
libQt3Support.so.4:_ZN13Q3WidgetStack10childEventEP11QChildEvent
libQt3Support.so.4:_ZN13Q3WidgetStack10setVisibleEb
libQt3Support.so.4:_ZN13Q3WidgetStack11aboutToShowEP7QWidget
libQt3Support.so.4:_ZN13Q3WidgetStack11aboutToShowEi
libQt3Support.so.4:_ZN13Q3WidgetStack11qt_metacallEN11QMetaObject4CallEiPPv
libQt3Support.so.4:_ZN13Q3WidgetStack11qt_metacastEPKc
libQt3Support.so.4:_ZN13Q3WidgetStack11raiseWidgetEP7QWidget
libQt3Support.so.4:_ZN13Q3WidgetStack11raiseWidgetEi
libQt3Support.so.4:_ZN13Q3WidgetStack11resizeEventEP12QResizeEvent
libQt3Support.so.4:_ZN13Q3WidgetStack12frameChangedEv
libQt3Support.so.4:_ZN13Q3WidgetStack12removeWidgetEP7QWidget
libQt3Support.so.4:_ZN13Q3WidgetStack12setFrameRectERK5QRect
libQt3Support.so.4:_ZN13Q3WidgetStack18setChildGeometriesEv
libQt3Support.so.4:_ZN13Q3WidgetStack4initEv
libQt3Support.so.4:_ZN13Q3WidgetStack5eventEP6QEvent
libQt3Support.so.4:_ZN13Q3WidgetStack9addWidgetEP7QWidgeti
libQt3Support.so.4:_ZN13Q3WidgetStackC1EP7QWidgetPKc6QFlagsIN2Qt10WindowTypeEE
libQt3Support.so.4:_ZN13Q3WidgetStackC2EP7QWidgetPKc6QFlagsIN2Qt10WindowTypeEE
libQt3Support.so.4:_ZN13Q3WidgetStackD0Ev
libQt3Support.so.4:_ZN13Q3WidgetStackD1Ev
libQt3Support.so.4:_ZN13Q3WidgetStackD2Ev
libQt3Support.so.4:_ZN14Q3CanvasPixmap4initERK6QImage
libQt3Support.so.4:_ZN14Q3CanvasPixmap4initERK7QPixmapii
libQt3Support.so.4:_ZN14Q3CanvasPixmapC1ERK6QImage
libQt3Support.so.4:_ZN14Q3CanvasPixmapC1ERK7QPixmapRK6QPoint
libQt3Support.so.4:_ZN14Q3CanvasPixmapC1ERK7QString
libQt3Support.so.4:_ZN14Q3CanvasPixmapC2ERK6QImage
libQt3Support.so.4:_ZN14Q3CanvasPixmapC2ERK7QPixmapRK6QPoint
libQt3Support.so.4:_ZN14Q3CanvasPixmapC2ERK7QString
libQt3Support.so.4:_ZN14Q3CanvasPixmapD0Ev
libQt3Support.so.4:_ZN14Q3CanvasPixmapD1Ev
libQt3Support.so.4:_ZN14Q3CanvasPixmapD2Ev
libQt3Support.so.4:_ZN14Q3CanvasSpline10recalcPolyEv
libQt3Support.so.4:_ZN14Q3CanvasSpline16setControlPointsE12Q3PointArrayb
libQt3Support.so.4:_ZN14Q3CanvasSplineC1EP8Q3Canvas
libQt3Support.so.4:_ZN14Q3CanvasSplineC2EP8Q3Canvas
libQt3Support.so.4:_ZN14Q3CanvasSplineD0Ev
libQt3Support.so.4:_ZN14Q3CanvasSplineD1Ev
libQt3Support.so.4:_ZN14Q3CanvasSplineD2Ev
libQt3Support.so.4:_ZN14Q3CanvasSprite11addToChunksEv
libQt3Support.so.4:_ZN14Q3CanvasSprite11setSequenceEP19Q3CanvasPixmapArray
libQt3Support.so.4:_ZN14Q3CanvasSprite12changeChunksEv
libQt3Support.so.4:_ZN14Q3CanvasSprite16removeFromChunksEv
libQt3Support.so.4:_ZN14Q3CanvasSprite17setFrameAnimationENS_18FrameAnimationTypeEii
libQt3Support.so.4:_ZN14Q3CanvasSprite4drawER8QPainter
libQt3Support.so.4:_ZN14Q3CanvasSprite4moveEdd
libQt3Support.so.4:_ZN14Q3CanvasSprite4moveEddi
libQt3Support.so.4:_ZN14Q3CanvasSprite7advanceEi
libQt3Support.so.4:_ZN14Q3CanvasSprite8setFrameEi
libQt3Support.so.4:_ZN14Q3CanvasSpriteC1EP19Q3CanvasPixmapArrayP8Q3Canvas
libQt3Support.so.4:_ZN14Q3CanvasSpriteC2EP19Q3CanvasPixmapArrayP8Q3Canvas
libQt3Support.so.4:_ZN14Q3CanvasSpriteD0Ev
libQt3Support.so.4:_ZN14Q3CanvasSpriteD1Ev
libQt3Support.so.4:_ZN14Q3CanvasSpriteD2Ev
libQt3Support.so.4:_ZN14Q3DateTimeEdit11qt_metacallEN11QMetaObject4CallEiPPv
libQt3Support.so.4:_ZN14Q3DateTimeEdit11qt_metacastEPKc
libQt3Support.so.4:_ZN14Q3DateTimeEdit11resizeEventEP12QResizeEvent
libQt3Support.so.4:_ZN14Q3DateTimeEdit11setDateTimeERK9QDateTime
libQt3Support.so.4:_ZN14Q3DateTimeEdit12valueChangedERK9QDateTime
libQt3Support.so.4:_ZN14Q3DateTimeEdit14setAutoAdvanceEb
libQt3Support.so.4:_ZN14Q3DateTimeEdit4initEv
libQt3Support.so.4:_ZN14Q3DateTimeEdit8newValueERK5QDate
libQt3Support.so.4:_ZN14Q3DateTimeEdit8newValueERK5QTime
libQt3Support.so.4:_ZN14Q3DateTimeEditC1EP7QWidgetPKc
libQt3Support.so.4:_ZN14Q3DateTimeEditC1ERK9QDateTimeP7QWidgetPKc
libQt3Support.so.4:_ZN14Q3DateTimeEditC2EP7QWidgetPKc
libQt3Support.so.4:_ZN14Q3DateTimeEditC2ERK9QDateTimeP7QWidgetPKc
libQt3Support.so.4:_ZN14Q3DateTimeEditD0Ev
libQt3Support.so.4:_ZN14Q3DateTimeEditD1Ev
libQt3Support.so.4:_ZN14Q3DateTimeEditD2Ev
libQt3Support.so.4:_ZN14Q3HButtonGroup11qt_metacallEN11QMetaObject4CallEiPPv
libQt3Support.so.4:_ZN14Q3HButtonGroup11qt_metacastEPKc
libQt3Support.so.4:_ZN14Q3IconDragData11setTextRectERK5QRect
libQt3Support.so.4:_ZN14Q3IconDragData13setPixmapRectERK5QRect
libQt3Support.so.4:_ZN14Q3IconDragDataC1ERK5QRectS2_
libQt3Support.so.4:_ZN14Q3IconDragDataC1Ev
libQt3Support.so.4:_ZN14Q3IconDragDataC2ERK5QRectS2_
libQt3Support.so.4:_ZN14Q3IconDragDataC2Ev
libQt3Support.so.4:_ZN14Q3IconDragItem7setDataERK10QByteArray
libQt3Support.so.4:_ZN14Q3IconDragItemC1Ev
libQt3Support.so.4:_ZN14Q3IconDragItemC2Ev
libQt3Support.so.4:_ZN14Q3IconDragItemD0Ev
libQt3Support.so.4:_ZN14Q3IconDragItemD1Ev
libQt3Support.so.4:_ZN14Q3IconDragItemD2Ev
libQt3Support.so.4:_ZN14Q3IconViewItem10paintFocusEP8QPainterRK11QColorGroup
libQt3Support.so.4:_ZN14Q3IconViewItem10renameItemEv
libQt3Support.so.4:_ZN14Q3IconViewItem10setPictureERK8QPicture
libQt3Support.so.4:_ZN14Q3IconViewItem11calcTmpTextEv
libQt3Support.so.4:_ZN14Q3IconViewItem11dragEnteredEv
libQt3Support.so.4:_ZN14Q3IconViewItem11setItemRectERK5QRect
libQt3Support.so.4:_ZN14Q3IconViewItem11setSelectedEb
libQt3Support.so.4:_ZN14Q3IconViewItem11setSelectedEbb
libQt3Support.so.4:_ZN14Q3IconViewItem11setTextRectERK5QRect
libQt3Support.so.4:_ZN14Q3IconViewItem13setPixmapRectERK5QRect
libQt3Support.so.4:_ZN14Q3IconViewItem13setSelectableEb
libQt3Support.so.4:_ZN14Q3IconViewItem14setDragEnabledEb
libQt3Support.so.4:_ZN14Q3IconViewItem14setDropEnabledEb
libQt3Support.so.4:_ZN14Q3IconViewItem15removeRenameBoxEv
libQt3Support.so.4:_ZN14Q3IconViewItem16cancelRenameItemEv
libQt3Support.so.4:_ZN14Q3IconViewItem16setRenameEnabledEb
libQt3Support.so.4:_ZN14Q3IconViewItem4initEPS_P8QPicture
libQt3Support.so.4:_ZN14Q3IconViewItem4moveERK6QPoint
libQt3Support.so.4:_ZN14Q3IconViewItem4moveEii
libQt3Support.so.4:_ZN14Q3IconViewItem6moveByERK6QPoint
libQt3Support.so.4:_ZN14Q3IconViewItem6moveByEii
libQt3Support.so.4:_ZN14Q3IconViewItem6renameEv
libQt3Support.so.4:_ZN14Q3IconViewItem6setKeyERK7QString
libQt3Support.so.4:_ZN14Q3IconViewItem7droppedEP10QDropEventRK11Q3ValueListI14Q3IconDragItemE
libQt3Support.so.4:_ZN14Q3IconViewItem7repaintEv
libQt3Support.so.4:_ZN14Q3IconViewItem7setTextERK7QString
libQt3Support.so.4:_ZN14Q3IconViewItem7setTextERK7QStringbb
libQt3Support.so.4:_ZN14Q3IconViewItem8calcRectERK7QString
libQt3Support.so.4:_ZN14Q3IconViewItem8dragLeftEv
libQt3Support.so.4:_ZN14Q3IconViewItem9checkRectEv
libQt3Support.so.4:_ZN14Q3IconViewItem9paintItemEP8QPainterRK11QColorGroup
libQt3Support.so.4:_ZN14Q3IconViewItem9setPixmapERK7QPixmap
libQt3Support.so.4:_ZN14Q3IconViewItem9setPixmapERK7QPixmapbb
libQt3Support.so.4:_ZN14Q3IconViewItemC1EP10Q3IconView
libQt3Support.so.4:_ZN14Q3IconViewItemC1EP10Q3IconViewPS_
libQt3Support.so.4:_ZN14Q3IconViewItemC1EP10Q3IconViewPS_RK7QString
libQt3Support.so.4:_ZN14Q3IconViewItemC1EP10Q3IconViewPS_RK7QStringRK7QPixmap
libQt3Support.so.4:_ZN14Q3IconViewItemC1EP10Q3IconViewPS_RK7QStringRK8QPicture
libQt3Support.so.4:_ZN14Q3IconViewItemC1EP10Q3IconViewRK7QString
libQt3Support.so.4:_ZN14Q3IconViewItemC1EP10Q3IconViewRK7QStringRK7QPixmap
libQt3Support.so.4:_ZN14Q3IconViewItemC1EP10Q3IconViewRK7QStringRK8QPicture
libQt3Support.so.4:_ZN14Q3IconViewItemC2EP10Q3IconView
libQt3Support.so.4:_ZN14Q3IconViewItemC2EP10Q3IconViewPS_
libQt3Support.so.4:_ZN14Q3IconViewItemC2EP10Q3IconViewPS_RK7QString
libQt3Support.so.4:_ZN14Q3IconViewItemC2EP10Q3IconViewPS_RK7QStringRK7QPixmap
libQt3Support.so.4:_ZN14Q3IconViewItemC2EP10Q3IconViewPS_RK7QStringRK8QPicture
libQt3Support.so.4:_ZN14Q3IconViewItemC2EP10Q3IconViewRK7QString
libQt3Support.so.4:_ZN14Q3IconViewItemC2EP10Q3IconViewRK7QStringRK7QPixmap
libQt3Support.so.4:_ZN14Q3IconViewItemC2EP10Q3IconViewRK7QStringRK8QPicture
libQt3Support.so.4:_ZN14Q3IconViewItemD0Ev
libQt3Support.so.4:_ZN14Q3IconViewItemD1Ev
libQt3Support.so.4:_ZN14Q3IconViewItemD2Ev
libQt3Support.so.4:_ZN14Q3ListViewItem10insertItemEPS_
libQt3Support.so.4:_ZN14Q3ListViewItem10paintFocusEP8QPainterRK11QColorGroupRK5QRect
libQt3Support.so.4:_ZN14Q3ListViewItem10setEnabledEb
libQt3Support.so.4:_ZN14Q3ListViewItem10setVisibleEb
libQt3Support.so.4:_ZN14Q3ListViewItem11dragEnteredEv
libQt3Support.so.4:_ZN14Q3ListViewItem11setSelectedEb
libQt3Support.so.4:_ZN14Q3ListViewItem11startRenameEi
libQt3Support.so.4:_ZN14Q3ListViewItem12activatedPosER6QPoint
libQt3Support.so.4:_ZN14Q3ListViewItem12cancelRenameEi
libQt3Support.so.4:_ZN14Q3ListViewItem13paintBranchesEP8QPainterRK11QColorGroupiii
libQt3Support.so.4:_ZN14Q3ListViewItem13setExpandableEb
libQt3Support.so.4:_ZN14Q3ListViewItem13setSelectableEb
libQt3Support.so.4:_ZN14Q3ListViewItem14setDragEnabledEb
libQt3Support.so.4:_ZN14Q3ListViewItem14setDropEnabledEb
libQt3Support.so.4:_ZN14Q3ListViewItem14sortChildItemsEib
libQt3Support.so.4:_ZN14Q3ListViewItem15moveToJustAfterEPS_
libQt3Support.so.4:_ZN14Q3ListViewItem15removeRenameBoxEv
libQt3Support.so.4:_ZN14Q3ListViewItem16invalidateHeightEv
libQt3Support.so.4:_ZN14Q3ListViewItem16setRenameEnabledEib
libQt3Support.so.4:_ZN14Q3ListViewItem17ignoreDoubleClickEv
libQt3Support.so.4:_ZN14Q3ListViewItem20setMultiLinesEnabledEb
libQt3Support.so.4:_ZN14Q3ListViewItem26enforceSortOrderBackToRootEv
libQt3Support.so.4:_ZN14Q3ListViewItem4initEv
libQt3Support.so.4:_ZN14Q3ListViewItem4sortEv
libQt3Support.so.4:_ZN14Q3ListViewItem5setupEv
libQt3Support.so.4:_ZN14Q3ListViewItem7droppedEP10QDropEvent
libQt3Support.so.4:_ZN14Q3ListViewItem7setOpenEb
libQt3Support.so.4:_ZN14Q3ListViewItem7setTextEiRK7QString
libQt3Support.so.4:_ZN14Q3ListViewItem8activateEv
libQt3Support.so.4:_ZN14Q3ListViewItem8dragLeftEv
libQt3Support.so.4:_ZN14Q3ListViewItem8moveItemEPS_
libQt3Support.so.4:_ZN14Q3ListViewItem8okRenameEi
libQt3Support.so.4:_ZN14Q3ListViewItem8takeItemEPS_
libQt3Support.so.4:_ZN14Q3ListViewItem9paintCellEP8QPainterRK11QColorGroupiii
libQt3Support.so.4:_ZN14Q3ListViewItem9setHeightEi
libQt3Support.so.4:_ZN14Q3ListViewItem9setPixmapEiRK7QPixmap
libQt3Support.so.4:_ZN14Q3ListViewItemC1EP10Q3ListView
libQt3Support.so.4:_ZN14Q3ListViewItemC1EP10Q3ListViewPS_
libQt3Support.so.4:_ZN14Q3ListViewItemC1EP10Q3ListViewPS_RK7QStringS5_S5_S5_S5_S5_S5_S5_
libQt3Support.so.4:_ZN14Q3ListViewItemC1EP10Q3ListViewRK7QStringS4_S4_S4_S4_S4_S4_S4_
libQt3Support.so.4:_ZN14Q3ListViewItemC1EPS_
libQt3Support.so.4:_ZN14Q3ListViewItemC1EPS_RK7QStringS3_S3_S3_S3_S3_S3_S3_
libQt3Support.so.4:_ZN14Q3ListViewItemC1EPS_S0_
libQt3Support.so.4:_ZN14Q3ListViewItemC1EPS_S0_RK7QStringS3_S3_S3_S3_S3_S3_S3_
libQt3Support.so.4:_ZN14Q3ListViewItemC2EP10Q3ListView
libQt3Support.so.4:_ZN14Q3ListViewItemC2EP10Q3ListViewPS_
libQt3Support.so.4:_ZN14Q3ListViewItemC2EP10Q3ListViewPS_RK7QStringS5_S5_S5_S5_S5_S5_S5_
libQt3Support.so.4:_ZN14Q3ListViewItemC2EP10Q3ListViewRK7QStringS4_S4_S4_S4_S4_S4_S4_
libQt3Support.so.4:_ZN14Q3ListViewItemC2EPS_
libQt3Support.so.4:_ZN14Q3ListViewItemC2EPS_RK7QStringS3_S3_S3_S3_S3_S3_S3_
libQt3Support.so.4:_ZN14Q3ListViewItemC2EPS_S0_
libQt3Support.so.4:_ZN14Q3ListViewItemC2EPS_S0_RK7QStringS3_S3_S3_S3_S3_S3_S3_
libQt3Support.so.4:_ZN14Q3ListViewItemD0Ev
libQt3Support.so.4:_ZN14Q3ListViewItemD1Ev
libQt3Support.so.4:_ZN14Q3ListViewItemD2Ev
libQt3Support.so.4:_ZN14Q3RangeControl10stepChangeEv
libQt3Support.so.4:_ZN14Q3RangeControl11rangeChangeEv
libQt3Support.so.4:_ZN14Q3RangeControl11setMaxValueEi
libQt3Support.so.4:_ZN14Q3RangeControl11setMinValueEi
libQt3Support.so.4:_ZN14Q3RangeControl11valueChangeEv
libQt3Support.so.4:_ZN14Q3RangeControl12subtractLineEv
libQt3Support.so.4:_ZN14Q3RangeControl12subtractPageEv
libQt3Support.so.4:_ZN14Q3RangeControl14directSetValueEi
libQt3Support.so.4:_ZN14Q3RangeControl7addLineEv
libQt3Support.so.4:_ZN14Q3RangeControl7addPageEv
libQt3Support.so.4:_ZN14Q3RangeControl8setRangeEii
libQt3Support.so.4:_ZN14Q3RangeControl8setStepsEii
libQt3Support.so.4:_ZN14Q3RangeControl8setValueEi
libQt3Support.so.4:_ZN14Q3RangeControlC1Eiiiii
libQt3Support.so.4:_ZN14Q3RangeControlC1Ev
libQt3Support.so.4:_ZN14Q3RangeControlC2Eiiiii
libQt3Support.so.4:_ZN14Q3RangeControlC2Ev
libQt3Support.so.4:_ZN14Q3RangeControlD0Ev
libQt3Support.so.4:_ZN14Q3RangeControlD1Ev
libQt3Support.so.4:_ZN14Q3RangeControlD2Ev
libQt3Support.so.4:_ZN14Q3ServerSocket11qt_metacallEN11QMetaObject4CallEiPPv
libQt3Support.so.4:_ZN14Q3ServerSocket11qt_metacastEPKc
libQt3Support.so.4:_ZN14Q3ServerSocket12socketDeviceEv
libQt3Support.so.4:_ZN14Q3ServerSocket18incomingConnectionEi
libQt3Support.so.4:_ZN14Q3ServerSocket4initERK12QHostAddressti
libQt3Support.so.4:_ZN14Q3ServerSocket9setSocketEi
libQt3Support.so.4:_ZN14Q3ServerSocketC1EP7QObjectPKc
libQt3Support.so.4:_ZN14Q3ServerSocketC1ERK12QHostAddresstiP7QObjectPKc
libQt3Support.so.4:_ZN14Q3ServerSocketC1EtiP7QObjectPKc
libQt3Support.so.4:_ZN14Q3ServerSocketC2EP7QObjectPKc
libQt3Support.so.4:_ZN14Q3ServerSocketC2ERK12QHostAddresstiP7QObjectPKc
libQt3Support.so.4:_ZN14Q3ServerSocketC2EtiP7QObjectPKc
libQt3Support.so.4:_ZN14Q3ServerSocketD0Ev
libQt3Support.so.4:_ZN14Q3ServerSocketD1Ev
libQt3Support.so.4:_ZN14Q3ServerSocketD2Ev
libQt3Support.so.4:_ZN14Q3SocketDevice10writeBlockEPKcmRK12QHostAddresst
libQt3Support.so.4:_ZN14Q3SocketDevice11setBlockingEb
libQt3Support.so.4:_ZN14Q3SocketDevice15createNewSocketEv
libQt3Support.so.4:_ZN14Q3SocketDevice17setSendBufferSizeEj
libQt3Support.so.4:_ZN14Q3SocketDevice18setAddressReusableEb
libQt3Support.so.4:_ZN14Q3SocketDevice20setReceiveBufferSizeEj
libQt3Support.so.4:_ZN14Q3SocketDevice25fetchConnectionParametersEv
libQt3Support.so.4:_ZN14Q3SocketDevice2atEx
libQt3Support.so.4:_ZN14Q3SocketDevice4bindERK12QHostAddresst
libQt3Support.so.4:_ZN14Q3SocketDevice4initEv
libQt3Support.so.4:_ZN14Q3SocketDevice4openE6QFlagsIN9QIODevice12OpenModeFlagEE
libQt3Support.so.4:_ZN14Q3SocketDevice5closeEv
libQt3Support.so.4:_ZN14Q3SocketDevice5flushEv
libQt3Support.so.4:_ZN14Q3SocketDevice6acceptEv
libQt3Support.so.4:_ZN14Q3SocketDevice6listenEi
libQt3Support.so.4:_ZN14Q3SocketDevice7connectERK12QHostAddresst
libQt3Support.so.4:_ZN14Q3SocketDevice8readDataEPcx
libQt3Support.so.4:_ZN14Q3SocketDevice8setErrorENS_5ErrorE
libQt3Support.so.4:_ZN14Q3SocketDevice9setOptionENS_6OptionEi
libQt3Support.so.4:_ZN14Q3SocketDevice9setSocketEiNS_4TypeE
libQt3Support.so.4:_ZN14Q3SocketDevice9writeDataEPKcx
libQt3Support.so.4:_ZN14Q3SocketDeviceC1ENS_4TypeE
libQt3Support.so.4:_ZN14Q3SocketDeviceC1ENS_4TypeENS_8ProtocolEi
libQt3Support.so.4:_ZN14Q3SocketDeviceC1EiNS_4TypeE
libQt3Support.so.4:_ZN14Q3SocketDeviceC2ENS_4TypeE
libQt3Support.so.4:_ZN14Q3SocketDeviceC2ENS_4TypeENS_8ProtocolEi
libQt3Support.so.4:_ZN14Q3SocketDeviceC2EiNS_4TypeE
libQt3Support.so.4:_ZN14Q3SocketDeviceD0Ev
libQt3Support.so.4:_ZN14Q3SocketDeviceD1Ev
libQt3Support.so.4:_ZN14Q3SocketDeviceD2Ev
libQt3Support.so.4:_ZN14Q3TextDocument10addCommandEP13Q3TextCommand
libQt3Support.so.4:_ZN14Q3TextDocument10invalidateEv
libQt3Support.so.4:_ZN14Q3TextDocument10parseTableERK4QMapI7QStringS1_ERK12Q3TextFormatPK5QChariRiP15Q3TextParagraph
libQt3Support.so.4:_ZN14Q3TextDocument11qt_metacallEN11QMetaObject4CallEiPPv
libQt3Support.so.4:_ZN14Q3TextDocument11qt_metacastEPKc
libQt3Support.so.4:_ZN14Q3TextDocument11setRichTextERK7QStringS2_PK12Q3TextFormat
libQt3Support.so.4:_ZN14Q3TextDocument12addSelectionEi
libQt3Support.so.4:_ZN14Q3TextDocument12bufferPixmapERK5QSize
libQt3Support.so.4:_ZN14Q3TextDocument12parseOpenTagEPK5QChariRiR4QMapI7QStringS5_ERb
libQt3Support.so.4:_ZN14Q3TextDocument12selectionEndEiRiS0_
libQt3Support.so.4:_ZN14Q3TextDocument12setPlainTextERK7QString
libQt3Support.so.4:_ZN14Q3TextDocument13drawParagraphEP8QPainterP15Q3TextParagraphiiiiRP7QPixmapRK8QPalettebP12Q3TextCursorb
libQt3Support.so.4:_ZN14Q3TextDocument13parseCloseTagEPK5QChariRi
libQt3Support.so.4:_ZN14Q3TextDocument13setStyleSheetEP12Q3StyleSheet
libQt3Support.so.4:_ZN14Q3TextDocument13setTextFormatEN2Qt10TextFormatE
libQt3Support.so.4:_ZN14Q3TextDocument14selectionStartEiRiS0_
libQt3Support.so.4:_ZN14Q3TextDocument15createParagraphEPS_P15Q3TextParagraphS2_b
libQt3Support.so.4:_ZN14Q3TextDocument15indentSelectionEi
libQt3Support.so.4:_ZN14Q3TextDocument15removeSelectionEi
libQt3Support.so.4:_ZN14Q3TextDocument15setMinimumWidthEiiP15Q3TextParagraph
libQt3Support.so.4:_ZN14Q3TextDocument15setSelectionEndEiRK12Q3TextCursor
libQt3Support.so.4:_ZN14Q3TextDocument16setDefaultFormatERK5QFontRK6QColor
libQt3Support.so.4:_ZN14Q3TextDocument17setSelectionStartEiRK12Q3TextCursor
libQt3Support.so.4:_ZN14Q3TextDocument17setUnderlineLinksEb
libQt3Support.so.4:_ZN14Q3TextDocument18focusNextPrevChildEb
libQt3Support.so.4:_ZN14Q3TextDocument18registerCustomItemEP16Q3TextCustomItemP15Q3TextParagraph
libQt3Support.so.4:_ZN14Q3TextDocument18removeSelectedTextEiP12Q3TextCursor
libQt3Support.so.4:_ZN14Q3TextDocument18selectionEndCursorEi
libQt3Support.so.4:_ZN14Q3TextDocument19minimumWidthChangedEi
libQt3Support.so.4:_ZN14Q3TextDocument19setRichTextInternalERK7QStringP12Q3TextCursorPK12Q3TextFormat
libQt3Support.so.4:_ZN14Q3TextDocument20parseHTMLSpecialCharEPK5QChariRi
libQt3Support.so.4:_ZN14Q3TextDocument20selectionStartCursorEi
libQt3Support.so.4:_ZN14Q3TextDocument20unregisterCustomItemEP16Q3TextCustomItemP15Q3TextParagraph
libQt3Support.so.4:_ZN14Q3TextDocument26setRichTextMarginsInternalER5QListIP7QVectorIP16Q3StyleSheetItemEEP15Q3TextParagraph
libQt3Support.so.4:_ZN14Q3TextDocument3eatEPK5QChariRiS0_
libQt3Support.so.4:_ZN14Q3TextDocument3tagEP12Q3StyleSheetRK7QStringRK4QMapIS2_S2_ES4_RK19Q3MimeSourceFactorybPS_
libQt3Support.so.4:_ZN14Q3TextDocument4drawEP8QPainterRK5QRectRK8QPalettePK6QBrush
libQt3Support.so.4:_ZN14Q3TextDocument4drawEP8QPainteriiiiRK8QPalettebbP12Q3TextCursorb
libQt3Support.so.4:_ZN14Q3TextDocument4findER12Q3TextCursorRK7QStringbbb
libQt3Support.so.4:_ZN14Q3TextDocument4initEv
libQt3Support.so.4:_ZN14Q3TextDocument4redoEP12Q3TextCursor
libQt3Support.so.4:_ZN14Q3TextDocument4undoEP12Q3TextCursor
libQt3Support.so.4:_ZN14Q3TextDocument5clearEb
libQt3Support.so.4:_ZN14Q3TextDocument7setTextERK7QStringS2_
libQt3Support.so.4:_ZN14Q3TextDocument8doLayoutEP8QPainteri
libQt3Support.so.4:_ZN14Q3TextDocument8eatSpaceEPK5QChariRib
libQt3Support.so.4:_ZN14Q3TextDocument9hasPrefixEPK5QChariiRK7QString
libQt3Support.so.4:_ZN14Q3TextDocument9hasPrefixEPK5QChariiS0_
libQt3Support.so.4:_ZN14Q3TextDocument9parseCharEPK5QChariRiN16Q3StyleSheetItem14WhiteSpaceModeE
libQt3Support.so.4:_ZN14Q3TextDocument9parseWordEPK5QChariRib
libQt3Support.so.4:_ZN14Q3TextDocument9selectAllEi
libQt3Support.so.4:_ZN14Q3TextDocument9setFormatEiP12Q3TextFormati
libQt3Support.so.4:_ZN14Q3TextDocumentC1EPS_
libQt3Support.so.4:_ZN14Q3TextDocumentC2EPS_
libQt3Support.so.4:_ZN14Q3TextDocumentD0Ev
libQt3Support.so.4:_ZN14Q3TextDocumentD1Ev
libQt3Support.so.4:_ZN14Q3TextDocumentD2Ev
libQt3Support.so.4:_ZN14Q3VButtonGroup11qt_metacallEN11QMetaObject4CallEiPPv
libQt3Support.so.4:_ZN14Q3VButtonGroup11qt_metacastEPKc
libQt3Support.so.4:_ZN15Q3CanvasEllipse7setSizeEii
libQt3Support.so.4:_ZN15Q3CanvasEllipse9drawShapeER8QPainter
libQt3Support.so.4:_ZN15Q3CanvasEllipse9setAnglesEii
libQt3Support.so.4:_ZN15Q3CanvasEllipseC1EP8Q3Canvas
libQt3Support.so.4:_ZN15Q3CanvasEllipseC1EiiP8Q3Canvas
libQt3Support.so.4:_ZN15Q3CanvasEllipseC1EiiiiP8Q3Canvas
libQt3Support.so.4:_ZN15Q3CanvasEllipseC2EP8Q3Canvas
libQt3Support.so.4:_ZN15Q3CanvasEllipseC2EiiP8Q3Canvas
libQt3Support.so.4:_ZN15Q3CanvasEllipseC2EiiiiP8Q3Canvas
libQt3Support.so.4:_ZN15Q3CanvasEllipseD0Ev
libQt3Support.so.4:_ZN15Q3CanvasEllipseD1Ev
libQt3Support.so.4:_ZN15Q3CanvasEllipseD2Ev
libQt3Support.so.4:_ZN15Q3CanvasPolygon6moveByEdd
libQt3Support.so.4:_ZN15Q3CanvasPolygon9drawShapeER8QPainter
libQt3Support.so.4:_ZN15Q3CanvasPolygon9setPointsE12Q3PointArray
libQt3Support.so.4:_ZN15Q3CanvasPolygonC1EP8Q3Canvas
libQt3Support.so.4:_ZN15Q3CanvasPolygonC2EP8Q3Canvas
libQt3Support.so.4:_ZN15Q3CanvasPolygonD0Ev
libQt3Support.so.4:_ZN15Q3CanvasPolygonD1Ev
libQt3Support.so.4:_ZN15Q3CanvasPolygonD2Ev
libQt3Support.so.4:_ZN15Q3CheckListItem10paintFocusEP8QPainterRK11QColorGroupRK5QRect
libQt3Support.so.4:_ZN15Q3CheckListItem11setTristateEb
libQt3Support.so.4:_ZN15Q3CheckListItem11stateChangeENS_11ToggleStateE
libQt3Support.so.4:_ZN15Q3CheckListItem11stateChangeEb
libQt3Support.so.4:_ZN15Q3CheckListItem12restoreStateEPS_i
libQt3Support.so.4:_ZN15Q3CheckListItem12turnOffChildEv
libQt3Support.so.4:_ZN15Q3CheckListItem14setStoredStateENS_11ToggleStateEPS_
libQt3Support.so.4:_ZN15Q3CheckListItem15setCurrentStateENS_11ToggleStateE
libQt3Support.so.4:_ZN15Q3CheckListItem16updateControllerEbb
libQt3Support.so.4:_ZN15Q3CheckListItem17updateStoredStateEPS_
libQt3Support.so.4:_ZN15Q3CheckListItem4initEv
libQt3Support.so.4:_ZN15Q3CheckListItem5setOnEb
libQt3Support.so.4:_ZN15Q3CheckListItem5setupEv
libQt3Support.so.4:_ZN15Q3CheckListItem8activateEv
libQt3Support.so.4:_ZN15Q3CheckListItem8setStateENS_11ToggleStateE
libQt3Support.so.4:_ZN15Q3CheckListItem8setStateENS_11ToggleStateEbb
libQt3Support.so.4:_ZN15Q3CheckListItem9paintCellEP8QPainterRK11QColorGroupiii
libQt3Support.so.4:_ZN15Q3CheckListItemC1EP10Q3ListViewP14Q3ListViewItemRK7QStringNS_4TypeE
libQt3Support.so.4:_ZN15Q3CheckListItemC1EP10Q3ListViewRK7QStringNS_4TypeE
libQt3Support.so.4:_ZN15Q3CheckListItemC1EP10Q3ListViewRK7QStringRK7QPixmap
libQt3Support.so.4:_ZN15Q3CheckListItemC1EP14Q3ListViewItemRK7QStringNS_4TypeE
libQt3Support.so.4:_ZN15Q3CheckListItemC1EP14Q3ListViewItemRK7QStringRK7QPixmap
libQt3Support.so.4:_ZN15Q3CheckListItemC1EP14Q3ListViewItemS1_RK7QStringNS_4TypeE
libQt3Support.so.4:_ZN15Q3CheckListItemC1EPS_P14Q3ListViewItemRK7QStringNS_4TypeE
libQt3Support.so.4:_ZN15Q3CheckListItemC1EPS_RK7QStringNS_4TypeE
libQt3Support.so.4:_ZN15Q3CheckListItemC2EP10Q3ListViewP14Q3ListViewItemRK7QStringNS_4TypeE
libQt3Support.so.4:_ZN15Q3CheckListItemC2EP10Q3ListViewRK7QStringNS_4TypeE
libQt3Support.so.4:_ZN15Q3CheckListItemC2EP10Q3ListViewRK7QStringRK7QPixmap
libQt3Support.so.4:_ZN15Q3CheckListItemC2EP14Q3ListViewItemRK7QStringNS_4TypeE
libQt3Support.so.4:_ZN15Q3CheckListItemC2EP14Q3ListViewItemRK7QStringRK7QPixmap
libQt3Support.so.4:_ZN15Q3CheckListItemC2EP14Q3ListViewItemS1_RK7QStringNS_4TypeE
libQt3Support.so.4:_ZN15Q3CheckListItemC2EPS_P14Q3ListViewItemRK7QStringNS_4TypeE
libQt3Support.so.4:_ZN15Q3CheckListItemC2EPS_RK7QStringNS_4TypeE
libQt3Support.so.4:_ZN15Q3CheckListItemD0Ev
libQt3Support.so.4:_ZN15Q3CheckListItemD1Ev
libQt3Support.so.4:_ZN15Q3CheckListItemD2Ev
libQt3Support.so.4:_ZN15Q3EditorFactory12createEditorEP7QWidgetRK8QVariant
libQt3Support.so.4:_ZN15Q3EditorFactory14defaultFactoryEv
libQt3Support.so.4:_ZN15Q3EditorFactory21installDefaultFactoryEPS_
libQt3Support.so.4:_ZN15Q3EditorFactoryC1EP7QObject
libQt3Support.so.4:_ZN15Q3EditorFactoryC2EP7QObject
libQt3Support.so.4:_ZN15Q3EditorFactoryD0Ev
libQt3Support.so.4:_ZN15Q3EditorFactoryD1Ev
libQt3Support.so.4:_ZN15Q3EditorFactoryD2Ev
libQt3Support.so.4:_ZN15Q3GDictIterator7toFirstEv
libQt3Support.so.4:_ZN15Q3GDictIteratorC1ERK7Q3GDict
libQt3Support.so.4:_ZN15Q3GDictIteratorC1ERKS_
libQt3Support.so.4:_ZN15Q3GDictIteratorC2ERK7Q3GDict
libQt3Support.so.4:_ZN15Q3GDictIteratorC2ERKS_
libQt3Support.so.4:_ZN15Q3GDictIteratorD1Ev
libQt3Support.so.4:_ZN15Q3GDictIteratorD2Ev
libQt3Support.so.4:_ZN15Q3GDictIteratoraSERKS_
libQt3Support.so.4:_ZN15Q3GDictIteratorclEv
libQt3Support.so.4:_ZN15Q3GDictIteratorpLEj
libQt3Support.so.4:_ZN15Q3GDictIteratorppEv
libQt3Support.so.4:_ZN15Q3GListIterator6toLastEv
libQt3Support.so.4:_ZN15Q3GListIterator7toFirstEv
libQt3Support.so.4:_ZN15Q3GListIteratorC1ERK7Q3GList
libQt3Support.so.4:_ZN15Q3GListIteratorC1ERKS_
libQt3Support.so.4:_ZN15Q3GListIteratorC2ERK7Q3GList
libQt3Support.so.4:_ZN15Q3GListIteratorC2ERKS_
libQt3Support.so.4:_ZN15Q3GListIteratorD1Ev
libQt3Support.so.4:_ZN15Q3GListIteratorD2Ev
libQt3Support.so.4:_ZN15Q3GListIteratoraSERKS_
libQt3Support.so.4:_ZN15Q3GListIteratorclEv
libQt3Support.so.4:_ZN15Q3GListIteratormIEj
libQt3Support.so.4:_ZN15Q3GListIteratormmEv
libQt3Support.so.4:_ZN15Q3GListIteratorpLEj
libQt3Support.so.4:_ZN15Q3GListIteratorppEv
libQt3Support.so.4:_ZN15Q3ListBoxPixmap5paintEP8QPainter
libQt3Support.so.4:_ZN15Q3ListBoxPixmapC1EP9Q3ListBoxRK7QPixmap
libQt3Support.so.4:_ZN15Q3ListBoxPixmapC1EP9Q3ListBoxRK7QPixmapP13Q3ListBoxItem
libQt3Support.so.4:_ZN15Q3ListBoxPixmapC1EP9Q3ListBoxRK7QPixmapRK7QString
libQt3Support.so.4:_ZN15Q3ListBoxPixmapC1EP9Q3ListBoxRK7QPixmapRK7QStringP13Q3ListBoxItem
libQt3Support.so.4:_ZN15Q3ListBoxPixmapC1ERK7QPixmap
libQt3Support.so.4:_ZN15Q3ListBoxPixmapC1ERK7QPixmapRK7QString
libQt3Support.so.4:_ZN15Q3ListBoxPixmapC2EP9Q3ListBoxRK7QPixmap
libQt3Support.so.4:_ZN15Q3ListBoxPixmapC2EP9Q3ListBoxRK7QPixmapP13Q3ListBoxItem
libQt3Support.so.4:_ZN15Q3ListBoxPixmapC2EP9Q3ListBoxRK7QPixmapRK7QString
libQt3Support.so.4:_ZN15Q3ListBoxPixmapC2EP9Q3ListBoxRK7QPixmapRK7QStringP13Q3ListBoxItem
libQt3Support.so.4:_ZN15Q3ListBoxPixmapC2ERK7QPixmap
libQt3Support.so.4:_ZN15Q3ListBoxPixmapC2ERK7QPixmapRK7QString
libQt3Support.so.4:_ZN15Q3ListBoxPixmapD0Ev
libQt3Support.so.4:_ZN15Q3ListBoxPixmapD1Ev
libQt3Support.so.4:_ZN15Q3ListBoxPixmapD2Ev
libQt3Support.so.4:_ZN15Q3MultiLineEdit10cursorDownEb
libQt3Support.so.4:_ZN15Q3MultiLineEdit10cursorLeftEbb
libQt3Support.so.4:_ZN15Q3MultiLineEdit10insertLineERK7QStringi
libQt3Support.so.4:_ZN15Q3MultiLineEdit10removeLineEi
libQt3Support.so.4:_ZN15Q3MultiLineEdit11cursorRightEbb
libQt3Support.so.4:_ZN15Q3MultiLineEdit11qt_metacallEN11QMetaObject4CallEiPPv
libQt3Support.so.4:_ZN15Q3MultiLineEdit11qt_metacastEPKc
libQt3Support.so.4:_ZN15Q3MultiLineEdit12setAlignmentE6QFlagsIN2Qt13AlignmentFlagEE
libQt3Support.so.4:_ZN15Q3MultiLineEdit13insertAndMarkERK7QStringb
libQt3Support.so.4:_ZN15Q3MultiLineEdit17cursorWordForwardEb
libQt3Support.so.4:_ZN15Q3MultiLineEdit17setCursorPositionEiib
libQt3Support.so.4:_ZN15Q3MultiLineEdit18cursorWordBackwardEb
libQt3Support.so.4:_ZN15Q3MultiLineEdit3endEb
libQt3Support.so.4:_ZN15Q3MultiLineEdit4homeEb
libQt3Support.so.4:_ZN15Q3MultiLineEdit6pageUpEb
libQt3Support.so.4:_ZN15Q3MultiLineEdit7newLineEv
libQt3Support.so.4:_ZN15Q3MultiLineEdit8cursorUpEb
libQt3Support.so.4:_ZN15Q3MultiLineEdit8insertAtERK7QStringiib
libQt3Support.so.4:_ZN15Q3MultiLineEdit8killLineEv
libQt3Support.so.4:_ZN15Q3MultiLineEdit8pageDownEb
libQt3Support.so.4:_ZN15Q3MultiLineEdit9backspaceEv
libQt3Support.so.4:_ZN15Q3MultiLineEdit9setEditedEb
libQt3Support.so.4:_ZN15Q3MultiLineEditC1EP7QWidgetPKc
libQt3Support.so.4:_ZN15Q3MultiLineEditC2EP7QWidgetPKc
libQt3Support.so.4:_ZN15Q3MultiLineEditD0Ev
libQt3Support.so.4:_ZN15Q3MultiLineEditD1Ev
libQt3Support.so.4:_ZN15Q3MultiLineEditD2Ev
libQt3Support.so.4:_ZN15Q3PtrCollection7newItemEPv
libQt3Support.so.4:_ZN15Q3TextFormatter10formatLineEP15Q3TextParagraphP12Q3TextStringP14QTextLineStartP16Q3TextStringCharS7_ii
libQt3Support.so.4:_ZN15Q3TextFormatter14setWrapEnabledEb
libQt3Support.so.4:_ZN15Q3TextFormatter15bidiReorderLineEP15Q3TextParagraphP12Q3TextStringP14QTextLineStartP16Q3TextStringCharS7_ii
libQt3Support.so.4:_ZN15Q3TextFormatter15insertLineStartEP15Q3TextParagraphiP14QTextLineStart
libQt3Support.so.4:_ZN15Q3TextFormatter15setWrapAtColumnEi
libQt3Support.so.4:_ZN15Q3TextFormatter16formatVerticallyEP14Q3TextDocumentP15Q3TextParagraph
libQt3Support.so.4:_ZN15Q3TextFormatterC1Ev
libQt3Support.so.4:_ZN15Q3TextFormatterC2Ev
libQt3Support.so.4:_ZN15Q3TextFormatterD0Ev
libQt3Support.so.4:_ZN15Q3TextFormatterD1Ev
libQt3Support.so.4:_ZN15Q3TextFormatterD2Ev
libQt3Support.so.4:_ZN15Q3TextParagraph10addCommandEP13Q3TextCommand
libQt3Support.so.4:_ZN15Q3TextParagraph10drawStringER8QPainterRK7QStringiiiiiiibiP16Q3TextStringCharRK8QPaletteb
libQt3Support.so.4:_ZN15Q3TextParagraph10invalidateEi
libQt3Support.so.4:_ZN15Q3TextParagraph10setChangedEbb
libQt3Support.so.4:_ZN15Q3TextParagraph11setListItemEb
libQt3Support.so.4:_ZN15Q3TextParagraph11setTabArrayEPi
libQt3Support.so.4:_ZN15Q3TextParagraph11setTabStopsEi
libQt3Support.so.4:_ZN15Q3TextParagraph12setAlignmentEi
libQt3Support.so.4:_ZN15Q3TextParagraph12setDirectionEN5QChar9DirectionE
libQt3Support.so.4:_ZN15Q3TextParagraph12setListDepthEi
libQt3Support.so.4:_ZN15Q3TextParagraph12setSelectionEiii
libQt3Support.so.4:_ZN15Q3TextParagraph13copyParagDataEPS_
libQt3Support.so.4:_ZN15Q3TextParagraph15adjustToPainterEP8QPainter
libQt3Support.so.4:_ZN15Q3TextParagraph15removeSelectionEi
libQt3Support.so.4:_ZN15Q3TextParagraph20invalidateStyleCacheEv
libQt3Support.so.4:_ZN15Q3TextParagraph20readStyleInformationER11QDataStream
libQt3Support.so.4:_ZN15Q3TextParagraph20setColorForSelectionER6QColorR8QPainterRK8QPalettei
libQt3Support.so.4:_ZN15Q3TextParagraph4hideEv
libQt3Support.so.4:_ZN15Q3TextParagraph4joinEPS_
libQt3Support.so.4:_ZN15Q3TextParagraph4moveERi
libQt3Support.so.4:_ZN15Q3TextParagraph4redoEP12Q3TextCursor
libQt3Support.so.4:_ZN15Q3TextParagraph4showEv
libQt3Support.so.4:_ZN15Q3TextParagraph4undoEP12Q3TextCursor
libQt3Support.so.4:_ZN15Q3TextParagraph5paintER8QPainterRK8QPaletteP12Q3TextCursorbiiii
libQt3Support.so.4:_ZN15Q3TextParagraph6formatEib
libQt3Support.so.4:_ZN15Q3TextParagraph6indentEPiS0_
libQt3Support.so.4:_ZN15Q3TextParagraph6insertEiPK5QChari
libQt3Support.so.4:_ZN15Q3TextParagraph6insertEiRK7QString
libQt3Support.so.4:_ZN15Q3TextParagraph6removeEii
libQt3Support.so.4:_ZN15Q3TextParagraph7nextTabEii
libQt3Support.so.4:_ZN15Q3TextParagraph7setNextEPS_
libQt3Support.so.4:_ZN15Q3TextParagraph7setPrevEPS_
libQt3Support.so.4:_ZN15Q3TextParagraph8truncateEi
libQt3Support.so.4:_ZN15Q3TextParagraph9drawLabelEP8QPainteriiiiiRK8QPalette
libQt3Support.so.4:_ZN15Q3TextParagraph9setFormatEiiP12Q3TextFormatbi
libQt3Support.so.4:_ZN15Q3TextParagraphC1EP14Q3TextDocumentPS_S2_b
libQt3Support.so.4:_ZN15Q3TextParagraphC2EP14Q3TextDocumentPS_S2_b
libQt3Support.so.4:_ZN15Q3TextParagraphD1Ev
libQt3Support.so.4:_ZN15Q3TextParagraphD2Ev
libQt3Support.so.4:_ZN15Q3TextTableCell10invalidateEv
libQt3Support.so.4:_ZN15Q3TextTableCell11setGeometryERK5QRect
libQt3Support.so.4:_ZN15Q3TextTableCell15adjustToPainterEP8QPainter
libQt3Support.so.4:_ZN15Q3TextTableCell4drawEP8QPainteriiiiiiRK8QPaletteb
libQt3Support.so.4:_ZN15Q3TextTableCellC1EP11Q3TextTableiiRK4QMapI7QStringS3_EPK16Q3StyleSheetItemRK12Q3TextFormatRKS3_R19Q3MimeSourceFactoryP12Q3StyleSheetSE_
libQt3Support.so.4:_ZN15Q3TextTableCellC2EP11Q3TextTableiiRK4QMapI7QStringS3_EPK16Q3StyleSheetItemRK12Q3TextFormatRKS3_R19Q3MimeSourceFactoryP12Q3StyleSheetSE_
libQt3Support.so.4:_ZN15Q3TextTableCellD0Ev
libQt3Support.so.4:_ZN15Q3TextTableCellD1Ev
libQt3Support.so.4:_ZN15Q3TextTableCellD2Ev
libQt3Support.so.4:_ZN16Q3CanvasItemList10drawUniqueER8QPainter
libQt3Support.so.4:_ZN16Q3CanvasItemList4sortEv
libQt3Support.so.4:_ZN16Q3CheckTableItem10setCheckedEb
libQt3Support.so.4:_ZN16Q3CheckTableItem20setContentFromEditorEP7QWidget
libQt3Support.so.4:_ZN16Q3CheckTableItem5paintEP8QPainterRK11QColorGroupRK5QRectb
libQt3Support.so.4:_ZN16Q3CheckTableItem7setTextERK7QString
libQt3Support.so.4:_ZN16Q3CheckTableItemC1EP7Q3TableRK7QString
libQt3Support.so.4:_ZN16Q3CheckTableItemC2EP7Q3TableRK7QString
libQt3Support.so.4:_ZN16Q3ComboTableItem11setEditableEb
libQt3Support.so.4:_ZN16Q3ComboTableItem13setStringListERK11QStringList
libQt3Support.so.4:_ZN16Q3ComboTableItem14setCurrentItemERK7QString
libQt3Support.so.4:_ZN16Q3ComboTableItem14setCurrentItemEi
libQt3Support.so.4:_ZN16Q3ComboTableItem20setContentFromEditorEP7QWidget
libQt3Support.so.4:_ZN16Q3ComboTableItem5paintEP8QPainterRK11QColorGroupRK5QRectb
libQt3Support.so.4:_ZN16Q3ComboTableItemC1EP7Q3TableRK11QStringListb
libQt3Support.so.4:_ZN16Q3ComboTableItemC2EP7Q3TableRK11QStringListb
libQt3Support.so.4:_ZN16Q3ComboTableItemD0Ev
libQt3Support.so.4:_ZN16Q3ComboTableItemD1Ev
libQt3Support.so.4:_ZN16Q3ComboTableItemD2Ev
libQt3Support.so.4:_ZN16Q3DockAreaLayout10invalidateEv
libQt3Support.so.4:_ZN16Q3DockAreaLayout11layoutItemsERK5QRectb
libQt3Support.so.4:_ZN16Q3DockAreaLayout11qt_metacallEN11QMetaObject4CallEiPPv
libQt3Support.so.4:_ZN16Q3DockAreaLayout11qt_metacastEPKc
libQt3Support.so.4:_ZN16Q3DockAreaLayout11setGeometryERK5QRect
libQt3Support.so.4:_ZN16Q3DockAreaLayout4initEv
libQt3Support.so.4:_ZN16Q3DockAreaLayout6takeAtEi
libQt3Support.so.4:_ZN16Q3GCacheIterator6toLastEv
libQt3Support.so.4:_ZN16Q3GCacheIterator7toFirstEv
libQt3Support.so.4:_ZN16Q3GCacheIteratorC1ERK8Q3GCache
libQt3Support.so.4:_ZN16Q3GCacheIteratorC1ERKS_
libQt3Support.so.4:_ZN16Q3GCacheIteratorC2ERK8Q3GCache
libQt3Support.so.4:_ZN16Q3GCacheIteratorC2ERKS_
libQt3Support.so.4:_ZN16Q3GCacheIteratorD1Ev
libQt3Support.so.4:_ZN16Q3GCacheIteratorD2Ev
libQt3Support.so.4:_ZN16Q3GCacheIteratoraSERKS_
libQt3Support.so.4:_ZN16Q3GCacheIteratorclEv
libQt3Support.so.4:_ZN16Q3GCacheIteratormIEj
libQt3Support.so.4:_ZN16Q3GCacheIteratormmEv
libQt3Support.so.4:_ZN16Q3GCacheIteratorpLEj
libQt3Support.so.4:_ZN16Q3GCacheIteratorppEv
libQt3Support.so.4:_ZN16Q3PolygonScanner4scanERK12Q3PointArraybii
libQt3Support.so.4:_ZN16Q3PolygonScanner4scanERK12Q3PointArraybiiNS_4EdgeE
libQt3Support.so.4:_ZN16Q3PolygonScanner4scanERK12Q3PointArraybiib
libQt3Support.so.4:_ZN16Q3ProgressDialog10closeEventEP11QCloseEvent
libQt3Support.so.4:_ZN16Q3ProgressDialog11changeEventEP6QEvent
libQt3Support.so.4:_ZN16Q3ProgressDialog11qt_metacallEN11QMetaObject4CallEiPPv
libQt3Support.so.4:_ZN16Q3ProgressDialog11qt_metacastEPKc
libQt3Support.so.4:_ZN16Q3ProgressDialog11resizeEventEP12QResizeEvent
libQt3Support.so.4:_ZN16Q3ProgressDialog11setProgressEi
libQt3Support.so.4:_ZN16Q3ProgressDialog11setProgressEii
libQt3Support.so.4:_ZN16Q3ProgressDialog12setAutoCloseEb
libQt3Support.so.4:_ZN16Q3ProgressDialog12setAutoResetEb
libQt3Support.so.4:_ZN16Q3ProgressDialog12setLabelTextERK7QString
libQt3Support.so.4:_ZN16Q3ProgressDialog13setTotalStepsEi
libQt3Support.so.4:_ZN16Q3ProgressDialog15setCancelButtonEP11QPushButton
libQt3Support.so.4:_ZN16Q3ProgressDialog18setMinimumDurationEi
libQt3Support.so.4:_ZN16Q3ProgressDialog19setCancelButtonTextERK7QString
libQt3Support.so.4:_ZN16Q3ProgressDialog4initEP7QWidgetRK7QStringS4_i
libQt3Support.so.4:_ZN16Q3ProgressDialog5resetEv
libQt3Support.so.4:_ZN16Q3ProgressDialog6cancelEv
libQt3Support.so.4:_ZN16Q3ProgressDialog6layoutEv
libQt3Support.so.4:_ZN16Q3ProgressDialog6setBarEP13Q3ProgressBar
libQt3Support.so.4:_ZN16Q3ProgressDialog8canceledEv
libQt3Support.so.4:_ZN16Q3ProgressDialog8setLabelEP6QLabel
libQt3Support.so.4:_ZN16Q3ProgressDialog9cancelledEv
libQt3Support.so.4:_ZN16Q3ProgressDialog9forceShowEv
libQt3Support.so.4:_ZN16Q3ProgressDialog9showEventEP10QShowEvent
libQt3Support.so.4:_ZN16Q3ProgressDialogC1EP7QWidget6QFlagsIN2Qt10WindowTypeEE
libQt3Support.so.4:_ZN16Q3ProgressDialogC1EP7QWidgetPKcb6QFlagsIN2Qt10WindowTypeEE
libQt3Support.so.4:_ZN16Q3ProgressDialogC1ERK7QStringS2_iP7QWidget6QFlagsIN2Qt10WindowTypeEE
libQt3Support.so.4:_ZN16Q3ProgressDialogC1ERK7QStringS2_iP7QWidgetPKcb6QFlagsIN2Qt10WindowTypeEE
libQt3Support.so.4:_ZN16Q3ProgressDialogC2EP7QWidget6QFlagsIN2Qt10WindowTypeEE
libQt3Support.so.4:_ZN16Q3ProgressDialogC2EP7QWidgetPKcb6QFlagsIN2Qt10WindowTypeEE
libQt3Support.so.4:_ZN16Q3ProgressDialogC2ERK7QStringS2_iP7QWidget6QFlagsIN2Qt10WindowTypeEE
libQt3Support.so.4:_ZN16Q3ProgressDialogC2ERK7QStringS2_iP7QWidgetPKcb6QFlagsIN2Qt10WindowTypeEE
libQt3Support.so.4:_ZN16Q3ProgressDialogD0Ev
libQt3Support.so.4:_ZN16Q3ProgressDialogD1Ev
libQt3Support.so.4:_ZN16Q3ProgressDialogD2Ev
libQt3Support.so.4:_ZN16Q3SimpleRichText10adjustSizeEv
libQt3Support.so.4:_ZN16Q3SimpleRichText14setDefaultFontERK5QFont
libQt3Support.so.4:_ZN16Q3SimpleRichText8setWidthEP8QPainteri
libQt3Support.so.4:_ZN16Q3SimpleRichText8setWidthEi
libQt3Support.so.4:_ZN16Q3SimpleRichTextC1ERK7QStringRK5QFontS2_PK12Q3StyleSheet
libQt3Support.so.4:_ZN16Q3SimpleRichTextC1ERK7QStringRK5QFontS2_PK12Q3StyleSheetPK19Q3MimeSourceFactoryiRK6QColorb
libQt3Support.so.4:_ZN16Q3SimpleRichTextC2ERK7QStringRK5QFontS2_PK12Q3StyleSheet
libQt3Support.so.4:_ZN16Q3SimpleRichTextC2ERK7QStringRK5QFontS2_PK12Q3StyleSheetPK19Q3MimeSourceFactoryiRK6QColorb
libQt3Support.so.4:_ZN16Q3SimpleRichTextD1Ev
libQt3Support.so.4:_ZN16Q3SimpleRichTextD2Ev
libQt3Support.so.4:_ZN16Q3SqlFormManager10readFieldsEv
libQt3Support.so.4:_ZN16Q3SqlFormManager11clearValuesEv
libQt3Support.so.4:_ZN16Q3SqlFormManager11writeFieldsEv
libQt3Support.so.4:_ZN16Q3SqlFormManager4formEv
libQt3Support.so.4:_ZN16Q3SqlFormManager6recordEv
libQt3Support.so.4:_ZN16Q3SqlFormManager7setFormEP9Q3SqlForm
libQt3Support.so.4:_ZN16Q3SqlFormManager9setRecordEP10QSqlRecord
libQt3Support.so.4:_ZN16Q3SqlFormManagerC1Ev
libQt3Support.so.4:_ZN16Q3SqlFormManagerC2Ev
libQt3Support.so.4:_ZN16Q3SqlFormManagerD0Ev
libQt3Support.so.4:_ZN16Q3SqlFormManagerD1Ev
libQt3Support.so.4:_ZN16Q3SqlFormManagerD2Ev
libQt3Support.so.4:_ZN16Q3SqlPropertyMap10defaultMapEv
libQt3Support.so.4:_ZN16Q3SqlPropertyMap11setPropertyEP7QWidgetRK8QVariant
libQt3Support.so.4:_ZN16Q3SqlPropertyMap17installDefaultMapEPS_
libQt3Support.so.4:_ZN16Q3SqlPropertyMap6insertERK7QStringS2_
libQt3Support.so.4:_ZN16Q3SqlPropertyMap6removeERK7QString
libQt3Support.so.4:_ZN16Q3SqlPropertyMap8propertyEP7QWidget
libQt3Support.so.4:_ZN16Q3SqlPropertyMapC1Ev
libQt3Support.so.4:_ZN16Q3SqlPropertyMapC2Ev
libQt3Support.so.4:_ZN16Q3SqlPropertyMapD0Ev
libQt3Support.so.4:_ZN16Q3SqlPropertyMapD1Ev
libQt3Support.so.4:_ZN16Q3SqlPropertyMapD2Ev
libQt3Support.so.4:_ZN16Q3StyleSheetItem10styleSheetEv
libQt3Support.so.4:_ZN16Q3StyleSheetItem11setContextsERK7QString
libQt3Support.so.4:_ZN16Q3StyleSheetItem11setFontSizeEi
libQt3Support.so.4:_ZN16Q3StyleSheetItem12setAlignmentEi
libQt3Support.so.4:_ZN16Q3StyleSheetItem12setListStyleENS_9ListStyleE
libQt3Support.so.4:_ZN16Q3StyleSheetItem13setFontFamilyERK7QString
libQt3Support.so.4:_ZN16Q3StyleSheetItem13setFontItalicEb
libQt3Support.so.4:_ZN16Q3StyleSheetItem13setFontWeightEi
libQt3Support.so.4:_ZN16Q3StyleSheetItem14setDisplayModeENS_11DisplayModeE
libQt3Support.so.4:_ZN16Q3StyleSheetItem14setLineSpacingEi
libQt3Support.so.4:_ZN16Q3StyleSheetItem14setSelfNestingEb
libQt3Support.so.4:_ZN16Q3StyleSheetItem16setFontStrikeOutEb
libQt3Support.so.4:_ZN16Q3StyleSheetItem16setFontUnderlineEb
libQt3Support.so.4:_ZN16Q3StyleSheetItem17setWhiteSpaceModeENS_14WhiteSpaceModeE
libQt3Support.so.4:_ZN16Q3StyleSheetItem18setLogicalFontSizeEi
libQt3Support.so.4:_ZN16Q3StyleSheetItem18setNumberOfColumnsEi
libQt3Support.so.4:_ZN16Q3StyleSheetItem20setVerticalAlignmentENS_17VerticalAlignmentE
libQt3Support.so.4:_ZN16Q3StyleSheetItem22setLogicalFontSizeStepEi
libQt3Support.so.4:_ZN16Q3StyleSheetItem4initEv
libQt3Support.so.4:_ZN16Q3StyleSheetItem8setColorERK6QColor
libQt3Support.so.4:_ZN16Q3StyleSheetItem9setAnchorEb
libQt3Support.so.4:_ZN16Q3StyleSheetItem9setMarginENS_6MarginEi
libQt3Support.so.4:_ZN16Q3StyleSheetItemC1EP12Q3StyleSheetRK7QString
libQt3Support.so.4:_ZN16Q3StyleSheetItemC1ERKS_
libQt3Support.so.4:_ZN16Q3StyleSheetItemC2EP12Q3StyleSheetRK7QString
libQt3Support.so.4:_ZN16Q3StyleSheetItemC2ERKS_
libQt3Support.so.4:_ZN16Q3StyleSheetItemD1Ev
libQt3Support.so.4:_ZN16Q3StyleSheetItemD2Ev
libQt3Support.so.4:_ZN16Q3StyleSheetItemaSERKS_
libQt3Support.so.4:_ZN16Q3TableSelection4initEii
libQt3Support.so.4:_ZN16Q3TableSelection8expandToEii
libQt3Support.so.4:_ZN16Q3TableSelectionC1Eiiii
libQt3Support.so.4:_ZN16Q3TableSelectionC1Ev
libQt3Support.so.4:_ZN16Q3TableSelectionC2Eiiii
libQt3Support.so.4:_ZN16Q3TableSelectionC2Ev
libQt3Support.so.4:_ZN16Q3TextCustomItem10invalidateEv
libQt3Support.so.4:_ZN16Q3TextCustomItem15adjustToPainterEP8QPainter
libQt3Support.so.4:_ZN16Q3TextCustomItem2upEP12Q3TextCursorRP14Q3TextDocumentRP15Q3TextParagraphRiS8_S8_
libQt3Support.so.4:_ZN16Q3TextCustomItem4downEP12Q3TextCursorRP14Q3TextDocumentRP15Q3TextParagraphRiS8_S8_
libQt3Support.so.4:_ZN16Q3TextCustomItem4nextEP12Q3TextCursorRP14Q3TextDocumentRP15Q3TextParagraphRiS8_S8_
libQt3Support.so.4:_ZN16Q3TextCustomItem4prevEP12Q3TextCursorRP14Q3TextDocumentRP15Q3TextParagraphRiS8_S8_
libQt3Support.so.4:_ZN16Q3TextCustomItem5enterEP12Q3TextCursorRP14Q3TextDocumentRP15Q3TextParagraphRiS8_S8_b
libQt3Support.so.4:_ZN16Q3TextCustomItem6resizeEi
libQt3Support.so.4:_ZN16Q3TextCustomItem7enterAtEP12Q3TextCursorRP14Q3TextDocumentRP15Q3TextParagraphRiS8_S8_RK6QPoint
libQt3Support.so.4:_ZN16Q3TextCustomItem9pageBreakEiP10Q3TextFlow
libQt3Support.so.4:_ZN16Q3TextCustomItemD0Ev
libQt3Support.so.4:_ZN16Q3TextCustomItemD1Ev
libQt3Support.so.4:_ZN16Q3TextCustomItemD2Ev
libQt3Support.so.4:_ZN16Q3TextStringChar13setCustomItemEP16Q3TextCustomItem
libQt3Support.so.4:_ZN16Q3TextStringChar14loseCustomItemEv
libQt3Support.so.4:_ZN16Q3TextStringChar9setAnchorERK7QStringS2_
libQt3Support.so.4:_ZN16Q3TextStringChar9setFormatEP12Q3TextFormat
libQt3Support.so.4:_ZN16Q3TextStringCharD1Ev
libQt3Support.so.4:_ZN16Q3TextStringCharD2Ev
libQt3Support.so.4:_ZN17Q3CanvasRectangle7setSizeEii
libQt3Support.so.4:_ZN17Q3CanvasRectangle9drawShapeER8QPainter
libQt3Support.so.4:_ZN17Q3CanvasRectangleC1EP8Q3Canvas
libQt3Support.so.4:_ZN17Q3CanvasRectangleC1ERK5QRectP8Q3Canvas
libQt3Support.so.4:_ZN17Q3CanvasRectangleC1EiiiiP8Q3Canvas
libQt3Support.so.4:_ZN17Q3CanvasRectangleC2EP8Q3Canvas
libQt3Support.so.4:_ZN17Q3CanvasRectangleC2ERK5QRectP8Q3Canvas
libQt3Support.so.4:_ZN17Q3CanvasRectangleC2EiiiiP8Q3Canvas
libQt3Support.so.4:_ZN17Q3CanvasRectangleD0Ev
libQt3Support.so.4:_ZN17Q3CanvasRectangleD1Ev
libQt3Support.so.4:_ZN17Q3CanvasRectangleD2Ev
libQt3Support.so.4:_ZN17Q3NetworkProtocol11itemChangedEP18Q3NetworkOperation
libQt3Support.so.4:_ZN17Q3NetworkProtocol11newChildrenERK11Q3ValueListI8QUrlInfoEP18Q3NetworkOperation
libQt3Support.so.4:_ZN17Q3NetworkProtocol11qt_metacallEN11QMetaObject4CallEiPPv
libQt3Support.so.4:_ZN17Q3NetworkProtocol11qt_metacastEPKc
libQt3Support.so.4:_ZN17Q3NetworkProtocol12addOperationEP18Q3NetworkOperation
libQt3Support.so.4:_ZN17Q3NetworkProtocol12operationGetEP18Q3NetworkOperation
libQt3Support.so.4:_ZN17Q3NetworkProtocol12operationPutEP18Q3NetworkOperation
libQt3Support.so.4:_ZN17Q3NetworkProtocol13setAutoDeleteEbi
libQt3Support.so.4:_ZN17Q3NetworkProtocol14operationMkDirEP18Q3NetworkOperation
libQt3Support.so.4:_ZN17Q3NetworkProtocol15checkConnectionEP18Q3NetworkOperation
libQt3Support.so.4:_ZN17Q3NetworkProtocol15emitNewChildrenERK8QUrlInfoP18Q3NetworkOperation
libQt3Support.so.4:_ZN17Q3NetworkProtocol15operationRemoveEP18Q3NetworkOperation
libQt3Support.so.4:_ZN17Q3NetworkProtocol15operationRenameEP18Q3NetworkOperation
libQt3Support.so.4:_ZN17Q3NetworkProtocol16createdDirectoryERK8QUrlInfoP18Q3NetworkOperation
libQt3Support.so.4:_ZN17Q3NetworkProtocol16processOperationEP18Q3NetworkOperation
libQt3Support.so.4:_ZN17Q3NetworkProtocol17operationPutChunkEP18Q3NetworkOperation
libQt3Support.so.4:_ZN17Q3NetworkProtocol18getNetworkProtocolERK7QString
libQt3Support.so.4:_ZN17Q3NetworkProtocol19clearOperationQueueEv
libQt3Support.so.4:_ZN17Q3NetworkProtocol20dataTransferProgressEiiP18Q3NetworkOperation
libQt3Support.so.4:_ZN17Q3NetworkProtocol20processNextOperationEP18Q3NetworkOperation
libQt3Support.so.4:_ZN17Q3NetworkProtocol21operationListChildrenEP18Q3NetworkOperation
libQt3Support.so.4:_ZN17Q3NetworkProtocol22connectionStateChangedEiRK7QString
libQt3Support.so.4:_ZN17Q3NetworkProtocol22hasOnlyLocalFileSystemEv
libQt3Support.so.4:_ZN17Q3NetworkProtocol23registerNetworkProtocolERK7QStringP28Q3NetworkProtocolFactoryBase
libQt3Support.so.4:_ZN17Q3NetworkProtocol4dataERK10QByteArrayP18Q3NetworkOperation
libQt3Support.so.4:_ZN17Q3NetworkProtocol4stopEv
libQt3Support.so.4:_ZN17Q3NetworkProtocol5startEP18Q3NetworkOperation
libQt3Support.so.4:_ZN17Q3NetworkProtocol6setUrlEP13Q3UrlOperator
libQt3Support.so.4:_ZN17Q3NetworkProtocol7removedEP18Q3NetworkOperation
libQt3Support.so.4:_ZN17Q3NetworkProtocol8finishedEP18Q3NetworkOperation
libQt3Support.so.4:_ZN17Q3NetworkProtocol8newChildERK8QUrlInfoP18Q3NetworkOperation
libQt3Support.so.4:_ZN17Q3NetworkProtocol8removeMeEv
libQt3Support.so.4:_ZN17Q3NetworkProtocol8startOpsEv
libQt3Support.so.4:_ZN17Q3NetworkProtocolC1Ev
libQt3Support.so.4:_ZN17Q3NetworkProtocolC2Ev
libQt3Support.so.4:_ZN17Q3NetworkProtocolD0Ev
libQt3Support.so.4:_ZN17Q3NetworkProtocolD1Ev
libQt3Support.so.4:_ZN17Q3NetworkProtocolD2Ev
libQt3Support.so.4:_ZN17Q3SqlSelectCursor14populateCursorEv
libQt3Support.so.4:_ZN17Q3SqlSelectCursor4execERK7QString
libQt3Support.so.4:_ZN17Q3SqlSelectCursor6selectERK7QStringRK9QSqlIndex
libQt3Support.so.4:_ZN17Q3SqlSelectCursorC1ERK7QString12QSqlDatabase
libQt3Support.so.4:_ZN17Q3SqlSelectCursorC1ERKS_
libQt3Support.so.4:_ZN17Q3SqlSelectCursorC2ERK7QString12QSqlDatabase
libQt3Support.so.4:_ZN17Q3SqlSelectCursorC2ERKS_
libQt3Support.so.4:_ZN17Q3SqlSelectCursorD0Ev
libQt3Support.so.4:_ZN17Q3SqlSelectCursorD1Ev
libQt3Support.so.4:_ZN17Q3SqlSelectCursorD2Ev
libQt3Support.so.4:_ZN18Q3DateTimeEditBase11qt_metacallEN11QMetaObject4CallEiPPv
libQt3Support.so.4:_ZN18Q3DateTimeEditBase11qt_metacastEPKc
libQt3Support.so.4:_ZN18Q3FileIconProvider11qt_metacallEN11QMetaObject4CallEiPPv
libQt3Support.so.4:_ZN18Q3FileIconProvider11qt_metacastEPKc
libQt3Support.so.4:_ZN18Q3FileIconProvider6pixmapERK9QFileInfo
libQt3Support.so.4:_ZN18Q3FileIconProviderC1EP7QObjectPKc
libQt3Support.so.4:_ZN18Q3FileIconProviderC2EP7QObjectPKc
libQt3Support.so.4:_ZN18Q3NetworkOperation11qt_metacallEN11QMetaObject4CallEiPPv
libQt3Support.so.4:_ZN18Q3NetworkOperation11qt_metacastEPKc
libQt3Support.so.4:_ZN18Q3NetworkOperation12setErrorCodeEi
libQt3Support.so.4:_ZN18Q3NetworkOperation17setProtocolDetailERK7QString
libQt3Support.so.4:_ZN18Q3NetworkOperation4freeEv
libQt3Support.so.4:_ZN18Q3NetworkOperation6setArgEiRK7QString
libQt3Support.so.4:_ZN18Q3NetworkOperation8deleteMeEv
libQt3Support.so.4:_ZN18Q3NetworkOperation8setStateEN17Q3NetworkProtocol5StateE
libQt3Support.so.4:_ZN18Q3NetworkOperation9setRawArgEiRK10QByteArray
libQt3Support.so.4:_ZN18Q3NetworkOperationC1EN17Q3NetworkProtocol9OperationERK10QByteArrayS4_S4_
libQt3Support.so.4:_ZN18Q3NetworkOperationC1EN17Q3NetworkProtocol9OperationERK7QStringS4_S4_
libQt3Support.so.4:_ZN18Q3NetworkOperationC2EN17Q3NetworkProtocol9OperationERK10QByteArrayS4_S4_
libQt3Support.so.4:_ZN18Q3NetworkOperationC2EN17Q3NetworkProtocol9OperationERK7QStringS4_S4_
libQt3Support.so.4:_ZN18Q3NetworkOperationD0Ev
libQt3Support.so.4:_ZN18Q3NetworkOperationD1Ev
libQt3Support.so.4:_ZN18Q3NetworkOperationD2Ev
libQt3Support.so.4:_ZN18Q3SqlCursorManager10findBufferERK9QSqlIndexi
libQt3Support.so.4:_ZN18Q3SqlCursorManager13setAutoDeleteEb
libQt3Support.so.4:_ZN18Q3SqlCursorManager7refreshEv
libQt3Support.so.4:_ZN18Q3SqlCursorManager7setSortERK11QStringList
libQt3Support.so.4:_ZN18Q3SqlCursorManager7setSortERK9QSqlIndex
libQt3Support.so.4:_ZN18Q3SqlCursorManager9setCursorEP11Q3SqlCursorb
libQt3Support.so.4:_ZN18Q3SqlCursorManager9setFilterERK7QString
libQt3Support.so.4:_ZN18Q3SqlCursorManagerC1Ev
libQt3Support.so.4:_ZN18Q3SqlCursorManagerC2Ev
libQt3Support.so.4:_ZN18Q3SqlCursorManagerD0Ev
libQt3Support.so.4:_ZN18Q3SqlCursorManagerD1Ev
libQt3Support.so.4:_ZN18Q3SqlCursorManagerD2Ev
libQt3Support.so.4:_ZN18Q3SqlEditorFactory12createEditorEP7QWidgetPK9QSqlField
libQt3Support.so.4:_ZN18Q3SqlEditorFactory12createEditorEP7QWidgetRK8QVariant
libQt3Support.so.4:_ZN18Q3SqlEditorFactory14defaultFactoryEv
libQt3Support.so.4:_ZN18Q3SqlEditorFactory21installDefaultFactoryEPS_
libQt3Support.so.4:_ZN18Q3SqlEditorFactoryC1EP7QObject
libQt3Support.so.4:_ZN18Q3SqlEditorFactoryC2EP7QObject
libQt3Support.so.4:_ZN18Q3SqlEditorFactoryD0Ev
libQt3Support.so.4:_ZN18Q3SqlEditorFactoryD1Ev
libQt3Support.so.4:_ZN18Q3SqlEditorFactoryD2Ev
libQt3Support.so.4:_ZN18Q3TextPreProcessorC1Ev
libQt3Support.so.4:_ZN18Q3TextPreProcessorC2Ev
libQt3Support.so.4:_ZN18Q3TextStyleCommand20readStyleInformationEP14Q3TextDocumentii
libQt3Support.so.4:_ZN18Q3TextStyleCommand21writeStyleInformationEP14Q3TextDocumentiRK10QByteArray
libQt3Support.so.4:_ZN18Q3TextStyleCommand7executeEP12Q3TextCursor
libQt3Support.so.4:_ZN18Q3TextStyleCommand9unexecuteEP12Q3TextCursor
libQt3Support.so.4:_ZN18Q3TextStyleCommandC1EP14Q3TextDocumentiiRK10QByteArray
libQt3Support.so.4:_ZN18Q3TextStyleCommandC2EP14Q3TextDocumentiiRK10QByteArray
libQt3Support.so.4:_ZN19Q3CanvasPixmapArray11readPixmapsERK7QStringi
libQt3Support.so.4:_ZN19Q3CanvasPixmapArray11readPixmapsERK7QStringib
libQt3Support.so.4:_ZN19Q3CanvasPixmapArray18readCollisionMasksERK7QString
libQt3Support.so.4:_ZN19Q3CanvasPixmapArray5resetEv
libQt3Support.so.4:_ZN19Q3CanvasPixmapArray8setImageEiP14Q3CanvasPixmap
libQt3Support.so.4:_ZN19Q3CanvasPixmapArrayC1E11Q3ValueListI7QPixmapE12Q3PointArray
libQt3Support.so.4:_ZN19Q3CanvasPixmapArrayC1E9Q3PtrListI7QPixmapES0_I6QPointE
libQt3Support.so.4:_ZN19Q3CanvasPixmapArrayC1ERK7QStringi
libQt3Support.so.4:_ZN19Q3CanvasPixmapArrayC1Ev
libQt3Support.so.4:_ZN19Q3CanvasPixmapArrayC2E11Q3ValueListI7QPixmapE12Q3PointArray
libQt3Support.so.4:_ZN19Q3CanvasPixmapArrayC2E9Q3PtrListI7QPixmapES0_I6QPointE
libQt3Support.so.4:_ZN19Q3CanvasPixmapArrayC2ERK7QStringi
libQt3Support.so.4:_ZN19Q3CanvasPixmapArrayC2Ev
libQt3Support.so.4:_ZN19Q3CanvasPixmapArrayD1Ev
libQt3Support.so.4:_ZN19Q3CanvasPixmapArrayD2Ev
libQt3Support.so.4:_ZN19Q3CanvasPixmapArrayntEv
libQt3Support.so.4:_ZN19Q3HttpRequestHeader10setRequestERK7QStringS2_ii
libQt3Support.so.4:_ZN19Q3HttpRequestHeader9parseLineERK7QStringi
libQt3Support.so.4:_ZN19Q3HttpRequestHeaderC1ERK7QString
libQt3Support.so.4:_ZN19Q3HttpRequestHeaderC1ERK7QStringS2_ii
libQt3Support.so.4:_ZN19Q3HttpRequestHeaderC1ERKS_
libQt3Support.so.4:_ZN19Q3HttpRequestHeaderC1Ev
libQt3Support.so.4:_ZN19Q3HttpRequestHeaderC2ERK7QString
libQt3Support.so.4:_ZN19Q3HttpRequestHeaderC2ERK7QStringS2_ii
libQt3Support.so.4:_ZN19Q3HttpRequestHeaderC2ERKS_
libQt3Support.so.4:_ZN19Q3HttpRequestHeaderC2Ev
libQt3Support.so.4:_ZN19Q3MimeSourceFactory10addFactoryEPS_
libQt3Support.so.4:_ZN19Q3MimeSourceFactory11addFilePathERK7QString
libQt3Support.so.4:_ZN19Q3MimeSourceFactory11setFilePathERK11QStringList
libQt3Support.so.4:_ZN19Q3MimeSourceFactory13removeFactoryEPS_
libQt3Support.so.4:_ZN19Q3MimeSourceFactory14defaultFactoryEv
libQt3Support.so.4:_ZN19Q3MimeSourceFactory16setExtensionTypeERK7QStringPKc
libQt3Support.so.4:_ZN19Q3MimeSourceFactory17setDefaultFactoryEPS_
libQt3Support.so.4:_ZN19Q3MimeSourceFactory18takeDefaultFactoryEv
libQt3Support.so.4:_ZN19Q3MimeSourceFactory7setDataERK7QStringP11QMimeSource
libQt3Support.so.4:_ZN19Q3MimeSourceFactory7setTextERK7QStringS2_
libQt3Support.so.4:_ZN19Q3MimeSourceFactory8setImageERK7QStringRK6QImage
libQt3Support.so.4:_ZN19Q3MimeSourceFactory9setPixmapERK7QStringRK7QPixmap
libQt3Support.so.4:_ZN19Q3MimeSourceFactoryC1Ev
libQt3Support.so.4:_ZN19Q3MimeSourceFactoryC2Ev
libQt3Support.so.4:_ZN19Q3MimeSourceFactoryD0Ev
libQt3Support.so.4:_ZN19Q3MimeSourceFactoryD1Ev
libQt3Support.so.4:_ZN19Q3MimeSourceFactoryD2Ev
libQt3Support.so.4:_ZN19Q3SyntaxHighlighter11rehighlightEv
libQt3Support.so.4:_ZN19Q3SyntaxHighlighter9setFormatEiiRK5QFont
libQt3Support.so.4:_ZN19Q3SyntaxHighlighter9setFormatEiiRK5QFontRK6QColor
libQt3Support.so.4:_ZN19Q3SyntaxHighlighter9setFormatEiiRK6QColor
libQt3Support.so.4:_ZN19Q3SyntaxHighlighterC1EP10Q3TextEdit
libQt3Support.so.4:_ZN19Q3SyntaxHighlighterC2EP10Q3TextEdit
libQt3Support.so.4:_ZN19Q3SyntaxHighlighterD0Ev
libQt3Support.so.4:_ZN19Q3SyntaxHighlighterD1Ev
libQt3Support.so.4:_ZN19Q3SyntaxHighlighterD2Ev
libQt3Support.so.4:_ZN19Q3TextDeleteCommand7executeEP12Q3TextCursor
libQt3Support.so.4:_ZN19Q3TextDeleteCommand9unexecuteEP12Q3TextCursor
libQt3Support.so.4:_ZN19Q3TextDeleteCommandC1EP14Q3TextDocumentiiRK7QVectorI16Q3TextStringCharERK10QByteArray
libQt3Support.so.4:_ZN19Q3TextDeleteCommandC1EP15Q3TextParagraphiRK7QVectorI16Q3TextStringCharE
libQt3Support.so.4:_ZN19Q3TextDeleteCommandC2EP14Q3TextDocumentiiRK7QVectorI16Q3TextStringCharERK10QByteArray
libQt3Support.so.4:_ZN19Q3TextDeleteCommandC2EP15Q3TextParagraphiRK7QVectorI16Q3TextStringCharE
libQt3Support.so.4:_ZN19Q3TextDeleteCommandD0Ev
libQt3Support.so.4:_ZN19Q3TextDeleteCommandD1Ev
libQt3Support.so.4:_ZN19Q3TextDeleteCommandD2Ev
libQt3Support.so.4:_ZN19Q3TextFormatCommand7executeEP12Q3TextCursor
libQt3Support.so.4:_ZN19Q3TextFormatCommand9unexecuteEP12Q3TextCursor
libQt3Support.so.4:_ZN19Q3TextFormatCommandC1EP14Q3TextDocumentiiiiRK7QVectorI16Q3TextStringCharEP12Q3TextFormati
libQt3Support.so.4:_ZN19Q3TextFormatCommandC2EP14Q3TextDocumentiiiiRK7QVectorI16Q3TextStringCharEP12Q3TextFormati
libQt3Support.so.4:_ZN19Q3TextFormatCommandD0Ev
libQt3Support.so.4:_ZN19Q3TextFormatCommandD1Ev
libQt3Support.so.4:_ZN19Q3TextFormatCommandD2Ev
libQt3Support.so.4:_ZN19Q3TextParagraphData4joinEPS_
libQt3Support.so.4:_ZN19Q3TextParagraphDataD0Ev
libQt3Support.so.4:_ZN19Q3TextParagraphDataD1Ev
libQt3Support.so.4:_ZN19Q3TextParagraphDataD2Ev
libQt3Support.so.4:_ZN20Q3HttpResponseHeader13setStatusLineEiRK7QStringii
libQt3Support.so.4:_ZN20Q3HttpResponseHeader9parseLineERK7QStringi
libQt3Support.so.4:_ZN20Q3HttpResponseHeaderC1ERK7QString
libQt3Support.so.4:_ZN20Q3HttpResponseHeaderC1ERKS_
libQt3Support.so.4:_ZN20Q3HttpResponseHeaderC1EiRK7QStringii
libQt3Support.so.4:_ZN20Q3HttpResponseHeaderC1Ev
libQt3Support.so.4:_ZN20Q3HttpResponseHeaderC2ERK7QString
libQt3Support.so.4:_ZN20Q3HttpResponseHeaderC2ERKS_
libQt3Support.so.4:_ZN20Q3HttpResponseHeaderC2EiRK7QStringii
libQt3Support.so.4:_ZN20Q3HttpResponseHeaderC2Ev
libQt3Support.so.4:_ZN20Q3TextCommandHistory10addCommandEP13Q3TextCommand
libQt3Support.so.4:_ZN20Q3TextCommandHistory15isRedoAvailableEv
libQt3Support.so.4:_ZN20Q3TextCommandHistory15isUndoAvailableEv
libQt3Support.so.4:_ZN20Q3TextCommandHistory4redoEP12Q3TextCursor
libQt3Support.so.4:_ZN20Q3TextCommandHistory4undoEP12Q3TextCursor
libQt3Support.so.4:_ZN20Q3TextCommandHistory5clearEv
libQt3Support.so.4:_ZN20Q3TextHorizontalLine15adjustToPainterEP8QPainter
libQt3Support.so.4:_ZN20Q3TextHorizontalLine4drawEP8QPainteriiiiiiRK8QPaletteb
libQt3Support.so.4:_ZN20Q3TextHorizontalLineC1EP14Q3TextDocumentRK4QMapI7QStringS3_ERKS3_R19Q3MimeSourceFactory
libQt3Support.so.4:_ZN20Q3TextHorizontalLineC2EP14Q3TextDocumentRK4QMapI7QStringS3_ERKS3_R19Q3MimeSourceFactory
libQt3Support.so.4:_ZN20Q3TextHorizontalLineD0Ev
libQt3Support.so.4:_ZN20Q3TextHorizontalLineD1Ev
libQt3Support.so.4:_ZN20Q3TextHorizontalLineD2Ev
libQt3Support.so.4:_ZN21Q3CanvasPolygonalItem10invalidateEv
libQt3Support.so.4:_ZN21Q3CanvasPolygonalItem10setWindingEb
libQt3Support.so.4:_ZN21Q3CanvasPolygonalItem4drawER8QPainter
libQt3Support.so.4:_ZN21Q3CanvasPolygonalItem6setPenE4QPen
libQt3Support.so.4:_ZN21Q3CanvasPolygonalItem8setBrushE6QBrush
libQt3Support.so.4:_ZN21Q3CanvasPolygonalItemC1EP8Q3Canvas
libQt3Support.so.4:_ZN21Q3CanvasPolygonalItemC2EP8Q3Canvas
libQt3Support.so.4:_ZN21Q3CanvasPolygonalItemD0Ev
libQt3Support.so.4:_ZN21Q3CanvasPolygonalItemD1Ev
libQt3Support.so.4:_ZN21Q3CanvasPolygonalItemD2Ev
libQt3Support.so.4:_ZN22Q3ListViewItemIterator14currentRemovedEv
libQt3Support.so.4:_ZN22Q3ListViewItemIteratorC1EP10Q3ListView
libQt3Support.so.4:_ZN22Q3ListViewItemIteratorC1EP10Q3ListViewi
libQt3Support.so.4:_ZN22Q3ListViewItemIteratorC1EP14Q3ListViewItem
libQt3Support.so.4:_ZN22Q3ListViewItemIteratorC1EP14Q3ListViewItemi
libQt3Support.so.4:_ZN22Q3ListViewItemIteratorC1ERKS_
libQt3Support.so.4:_ZN22Q3ListViewItemIteratorC1Ev
libQt3Support.so.4:_ZN22Q3ListViewItemIteratorC2EP10Q3ListView
libQt3Support.so.4:_ZN22Q3ListViewItemIteratorC2EP10Q3ListViewi
libQt3Support.so.4:_ZN22Q3ListViewItemIteratorC2EP14Q3ListViewItem
libQt3Support.so.4:_ZN22Q3ListViewItemIteratorC2EP14Q3ListViewItemi
libQt3Support.so.4:_ZN22Q3ListViewItemIteratorC2ERKS_
libQt3Support.so.4:_ZN22Q3ListViewItemIteratorC2Ev
libQt3Support.so.4:_ZN22Q3ListViewItemIteratorD1Ev
libQt3Support.so.4:_ZN22Q3ListViewItemIteratorD2Ev
libQt3Support.so.4:_ZN22Q3ListViewItemIteratoraSERKS_
libQt3Support.so.4:_ZN22Q3ListViewItemIteratordeEv
libQt3Support.so.4:_ZN22Q3ListViewItemIteratormIEi
libQt3Support.so.4:_ZN22Q3ListViewItemIteratormmEi
libQt3Support.so.4:_ZN22Q3ListViewItemIteratormmEv
libQt3Support.so.4:_ZN22Q3ListViewItemIteratorpLEi
libQt3Support.so.4:_ZN22Q3ListViewItemIteratorppEi
libQt3Support.so.4:_ZN22Q3ListViewItemIteratorppEv
libQt3Support.so.4:_ZN22Q3TextFormatCollection10updateKeysEv
libQt3Support.so.4:_ZN22Q3TextFormatCollection14setPaintDeviceEP12QPaintDevice
libQt3Support.so.4:_ZN22Q3TextFormatCollection19updateDefaultFormatERK5QFontRK6QColorP12Q3StyleSheet
libQt3Support.so.4:_ZN22Q3TextFormatCollection6formatEP12Q3TextFormat
libQt3Support.so.4:_ZN22Q3TextFormatCollection6formatEP12Q3TextFormatS1_i
libQt3Support.so.4:_ZN22Q3TextFormatCollection6formatERK5QFontRK6QColor
libQt3Support.so.4:_ZN22Q3TextFormatCollection6removeEP12Q3TextFormat
libQt3Support.so.4:_ZN22Q3TextFormatCollectionC1Ev
libQt3Support.so.4:_ZN22Q3TextFormatCollectionC2Ev
libQt3Support.so.4:_ZN22Q3TextFormatCollectionD0Ev
libQt3Support.so.4:_ZN22Q3TextFormatCollectionD1Ev
libQt3Support.so.4:_ZN22Q3TextFormatCollectionD2Ev
libQt3Support.so.4:_ZN25Q3TextFormatterBreakWords6formatEP14Q3TextDocumentP15Q3TextParagraphiRK4QMapIiP14QTextLineStartE
libQt3Support.so.4:_ZN25Q3TextFormatterBreakWordsC1Ev
libQt3Support.so.4:_ZN25Q3TextFormatterBreakWordsC2Ev
libQt3Support.so.4:_ZN27Q3TextFormatterBreakInWords6formatEP14Q3TextDocumentP15Q3TextParagraphiRK4QMapIiP14QTextLineStartE
libQt3Support.so.4:_ZN27Q3TextFormatterBreakInWordsC1Ev
libQt3Support.so.4:_ZN27Q3TextFormatterBreakInWordsC2Ev
libQt3Support.so.4:_ZN29Q3TextParagraphPseudoDocumentC1Ev
libQt3Support.so.4:_ZN29Q3TextParagraphPseudoDocumentC2Ev
libQt3Support.so.4:_ZN29Q3TextParagraphPseudoDocumentD1Ev
libQt3Support.so.4:_ZN29Q3TextParagraphPseudoDocumentD2Ev
libQt3Support.so.4:_ZN5Q3Dns10startQueryEv
libQt3Support.so.4:_ZN5Q3Dns11qt_metacallEN11QMetaObject4CallEiPPv
libQt3Support.so.4:_ZN5Q3Dns11qt_metacastEPKc
libQt3Support.so.4:_ZN5Q3Dns12resultsReadyEv
libQt3Support.so.4:_ZN5Q3Dns13setRecordTypeENS_10RecordTypeE
libQt3Support.so.4:_ZN5Q3Dns18setStartQueryTimerEv
libQt3Support.so.4:_ZN5Q3Dns18toInAddrArpaDomainERK12QHostAddress
libQt3Support.so.4:_ZN5Q3Dns8setLabelERK12QHostAddress
libQt3Support.so.4:_ZN5Q3Dns8setLabelERK7QString
libQt3Support.so.4:_ZN5Q3Dns9doResInitEv
libQt3Support.so.4:_ZN5Q3DnsC1ERK12QHostAddressNS_10RecordTypeE
libQt3Support.so.4:_ZN5Q3DnsC1ERK7QStringNS_10RecordTypeE
libQt3Support.so.4:_ZN5Q3DnsC1Ev
libQt3Support.so.4:_ZN5Q3DnsC2ERK12QHostAddressNS_10RecordTypeE
libQt3Support.so.4:_ZN5Q3DnsC2ERK7QStringNS_10RecordTypeE
libQt3Support.so.4:_ZN5Q3DnsC2Ev
libQt3Support.so.4:_ZN5Q3DnsD0Ev
libQt3Support.so.4:_ZN5Q3DnsD1Ev
libQt3Support.so.4:_ZN5Q3DnsD2Ev
libQt3Support.so.4:_ZN5Q3Ftp10addCommandEP12Q3FtpCommand
libQt3Support.so.4:_ZN5Q3Ftp10dataClosedEv
libQt3Support.so.4:_ZN5Q3Ftp10npListInfoERK8QUrlInfo
libQt3Support.so.4:_ZN5Q3Ftp10piFinishedERK7QString
libQt3Support.so.4:_ZN5Q3Ftp10piFtpReplyEiRK7QString
libQt3Support.so.4:_ZN5Q3Ftp10rawCommandERK7QString
libQt3Support.so.4:_ZN5Q3Ftp11npReadyReadEv
libQt3Support.so.4:_ZN5Q3Ftp11qt_metacallEN11QMetaObject4CallEiPPv
libQt3Support.so.4:_ZN5Q3Ftp11qt_metacastEPKc
libQt3Support.so.4:_ZN5Q3Ftp12operationGetEP18Q3NetworkOperation
libQt3Support.so.4:_ZN5Q3Ftp12operationPutEP18Q3NetworkOperation
libQt3Support.so.4:_ZN5Q3Ftp12stateChangedEi
libQt3Support.so.4:_ZN5Q3Ftp13connectToHostERK7QStringt
libQt3Support.so.4:_ZN5Q3Ftp13dataConnectedEv
libQt3Support.so.4:_ZN5Q3Ftp13dataHostFoundEv
libQt3Support.so.4:_ZN5Q3Ftp13dataReadyReadEv
libQt3Support.so.4:_ZN5Q3Ftp14commandStartedEi
libQt3Support.so.4:_ZN5Q3Ftp14npStateChangedEi
libQt3Support.so.4:_ZN5Q3Ftp14operationMkDirEP18Q3NetworkOperation
libQt3Support.so.4:_ZN5Q3Ftp14piConnectStateEi
libQt3Support.so.4:_ZN5Q3Ftp15checkConnectionEP18Q3NetworkOperation
libQt3Support.so.4:_ZN5Q3Ftp15commandFinishedEib
libQt3Support.so.4:_ZN5Q3Ftp15operationRemoveEP18Q3NetworkOperation
libQt3Support.so.4:_ZN5Q3Ftp15operationRenameEP18Q3NetworkOperation
libQt3Support.so.4:_ZN5Q3Ftp15rawCommandReplyEiRK7QString
libQt3Support.so.4:_ZN5Q3Ftp16dataBytesWrittenEi
libQt3Support.so.4:_ZN5Q3Ftp16startNextCommandEv
libQt3Support.so.4:_ZN5Q3Ftp20clearPendingCommandsEv
libQt3Support.so.4:_ZN5Q3Ftp20dataTransferProgressEii
libQt3Support.so.4:_ZN5Q3Ftp21operationListChildrenEP18Q3NetworkOperation
libQt3Support.so.4:_ZN5Q3Ftp22npDataTransferProgressEii
libQt3Support.so.4:_ZN5Q3Ftp2cdERK7QString
libQt3Support.so.4:_ZN5Q3Ftp3getERK7QStringP9QIODevice
libQt3Support.so.4:_ZN5Q3Ftp3putEP9QIODeviceRK7QString
libQt3Support.so.4:_ZN5Q3Ftp3putERK10QByteArrayRK7QString
libQt3Support.so.4:_ZN5Q3Ftp4doneEb
libQt3Support.so.4:_ZN5Q3Ftp4initEv
libQt3Support.so.4:_ZN5Q3Ftp4listERK7QString
libQt3Support.so.4:_ZN5Q3Ftp5abortEv
libQt3Support.so.4:_ZN5Q3Ftp5closeEv
libQt3Support.so.4:_ZN5Q3Ftp5errorEi
libQt3Support.so.4:_ZN5Q3Ftp5loginERK7QStringS2_
libQt3Support.so.4:_ZN5Q3Ftp5mkdirERK7QString
libQt3Support.so.4:_ZN5Q3Ftp5rmdirERK7QString
libQt3Support.so.4:_ZN5Q3Ftp6closedEv
libQt3Support.so.4:_ZN5Q3Ftp6npDoneEb
libQt3Support.so.4:_ZN5Q3Ftp6removeERK7QString
libQt3Support.so.4:_ZN5Q3Ftp6renameERK7QStringS2_
libQt3Support.so.4:_ZN5Q3Ftp7piErrorEiRK7QString
libQt3Support.so.4:_ZN5Q3Ftp7readAllEv
libQt3Support.so.4:_ZN5Q3Ftp8listInfoERK8QUrlInfo
libQt3Support.so.4:_ZN5Q3Ftp8parseDirERK7QStringR8QUrlInfo
libQt3Support.so.4:_ZN5Q3Ftp9connectedEv
libQt3Support.so.4:_ZN5Q3Ftp9hostFoundEv
libQt3Support.so.4:_ZN5Q3Ftp9readBlockEPcm
libQt3Support.so.4:_ZN5Q3Ftp9readyReadEv
libQt3Support.so.4:_ZN5Q3FtpC1EP7QObjectPKc
libQt3Support.so.4:_ZN5Q3FtpC1Ev
libQt3Support.so.4:_ZN5Q3FtpC2EP7QObjectPKc
libQt3Support.so.4:_ZN5Q3FtpC2Ev
libQt3Support.so.4:_ZN5Q3FtpD0Ev
libQt3Support.so.4:_ZN5Q3FtpD1Ev
libQt3Support.so.4:_ZN5Q3FtpD2Ev
libQt3Support.so.4:_ZN5Q3Url11setFileNameERK7QString
libQt3Support.so.4:_ZN5Q3Url11setPasswordERK7QString
libQt3Support.so.4:_ZN5Q3Url11setProtocolERK7QString
libQt3Support.so.4:_ZN5Q3Url13isRelativeUrlERK7QString
libQt3Support.so.4:_ZN5Q3Url19encodedPathAndQueryEv
libQt3Support.so.4:_ZN5Q3Url22setEncodedPathAndQueryERK7QString
libQt3Support.so.4:_ZN5Q3Url4cdUpEv
libQt3Support.so.4:_ZN5Q3Url5parseERK7QString
libQt3Support.so.4:_ZN5Q3Url5resetEv
libQt3Support.so.4:_ZN5Q3Url6decodeER7QString
libQt3Support.so.4:_ZN5Q3Url6encodeER7QString
libQt3Support.so.4:_ZN5Q3Url6setRefERK7QString
libQt3Support.so.4:_ZN5Q3Url7addPathERK7QString
libQt3Support.so.4:_ZN5Q3Url7setHostERK7QString
libQt3Support.so.4:_ZN5Q3Url7setPathERK7QString
libQt3Support.so.4:_ZN5Q3Url7setPortEi
libQt3Support.so.4:_ZN5Q3Url7setUserERK7QString
libQt3Support.so.4:_ZN5Q3Url8setQueryERK7QString
libQt3Support.so.4:_ZN5Q3UrlC1ERK7QString
libQt3Support.so.4:_ZN5Q3UrlC1ERKS_
libQt3Support.so.4:_ZN5Q3UrlC1ERKS_RK7QStringb
libQt3Support.so.4:_ZN5Q3UrlC1Ev
libQt3Support.so.4:_ZN5Q3UrlC2ERK7QString
libQt3Support.so.4:_ZN5Q3UrlC2ERKS_
libQt3Support.so.4:_ZN5Q3UrlC2ERKS_RK7QStringb
libQt3Support.so.4:_ZN5Q3UrlC2Ev
libQt3Support.so.4:_ZN5Q3UrlD0Ev
libQt3Support.so.4:_ZN5Q3UrlD1Ev
libQt3Support.so.4:_ZN5Q3UrlD2Ev
libQt3Support.so.4:_ZN5Q3UrlaSERK7QString
libQt3Support.so.4:_ZN5Q3UrlaSERKS_
libQt3Support.so.4:_ZN6Q3Grid10setSpacingEi
libQt3Support.so.4:_ZN6Q3Grid11qt_metacallEN11QMetaObject4CallEiPPv
libQt3Support.so.4:_ZN6Q3Grid11qt_metacastEPKc
libQt3Support.so.4:_ZN6Q3Grid12frameChangedEv
libQt3Support.so.4:_ZN6Q3GridC1EiN2Qt11OrientationEP7QWidgetPKc6QFlagsINS0_10WindowTypeEE
libQt3Support.so.4:_ZN6Q3GridC1EiP7QWidgetPKc6QFlagsIN2Qt10WindowTypeEE
libQt3Support.so.4:_ZN6Q3GridC2EiN2Qt11OrientationEP7QWidgetPKc6QFlagsINS0_10WindowTypeEE
libQt3Support.so.4:_ZN6Q3GridC2EiP7QWidgetPKc6QFlagsIN2Qt10WindowTypeEE
libQt3Support.so.4:_ZN6Q3HBox10setSpacingEi
libQt3Support.so.4:_ZN6Q3HBox11qt_metacallEN11QMetaObject4CallEiPPv
libQt3Support.so.4:_ZN6Q3HBox11qt_metacastEPKc
libQt3Support.so.4:_ZN6Q3HBox12frameChangedEv
libQt3Support.so.4:_ZN6Q3HBox16setStretchFactorEP7QWidgeti
libQt3Support.so.4:_ZN6Q3HBoxC1EP7QWidgetPKc6QFlagsIN2Qt10WindowTypeEE
libQt3Support.so.4:_ZN6Q3HBoxC1EbP7QWidgetPKc6QFlagsIN2Qt10WindowTypeEE
libQt3Support.so.4:_ZN6Q3HBoxC2EP7QWidgetPKc6QFlagsIN2Qt10WindowTypeEE
libQt3Support.so.4:_ZN6Q3HBoxC2EbP7QWidgetPKc6QFlagsIN2Qt10WindowTypeEE
libQt3Support.so.4:_ZN6Q3Http10addRequestEP13Q3HttpRequest
libQt3Support.so.4:_ZN6Q3Http10clientDoneEb
libQt3Support.so.4:_ZN6Q3Http10slotClosedEv
libQt3Support.so.4:_ZN6Q3Http10timerEventEP11QTimerEvent
libQt3Support.so.4:_ZN6Q3Http11clientReplyERK20Q3HttpResponseHeader
libQt3Support.so.4:_ZN6Q3Http11qt_metacallEN11QMetaObject4CallEiPPv
libQt3Support.so.4:_ZN6Q3Http11qt_metacastEPKc
libQt3Support.so.4:_ZN6Q3Http11sendRequestEv
libQt3Support.so.4:_ZN6Q3Http12operationGetEP18Q3NetworkOperation
libQt3Support.so.4:_ZN6Q3Http12operationPutEP18Q3NetworkOperation
libQt3Support.so.4:_ZN6Q3Http12stateChangedEi
libQt3Support.so.4:_ZN6Q3Http13killIdleTimerEv
libQt3Support.so.4:_ZN6Q3Http13slotConnectedEv
libQt3Support.so.4:_ZN6Q3Http13slotReadyReadEv
libQt3Support.so.4:_ZN6Q3Http14requestStartedEi
libQt3Support.so.4:_ZN6Q3Http15closeConnectionEv
libQt3Support.so.4:_ZN6Q3Http15requestFinishedEib
libQt3Support.so.4:_ZN6Q3Http16dataReadProgressEii
libQt3Support.so.4:_ZN6Q3Http16dataSendProgressEii
libQt3Support.so.4:_ZN6Q3Http16slotBytesWrittenEi
libQt3Support.so.4:_ZN6Q3Http16startNextRequestEv
libQt3Support.so.4:_ZN6Q3Http17finishedWithErrorERK7QStringi
libQt3Support.so.4:_ZN6Q3Http18clientStateChangedEi
libQt3Support.so.4:_ZN6Q3Http19finishedWithSuccessEv
libQt3Support.so.4:_ZN6Q3Http20clearPendingRequestsEv
libQt3Support.so.4:_ZN6Q3Http22responseHeaderReceivedERK20Q3HttpResponseHeader
libQt3Support.so.4:_ZN6Q3Http3getERK7QStringP9QIODevice
libQt3Support.so.4:_ZN6Q3Http4doneEb
libQt3Support.so.4:_ZN6Q3Http4headERK7QString
libQt3Support.so.4:_ZN6Q3Http4initEv
libQt3Support.so.4:_ZN6Q3Http4postERK7QStringP9QIODeviceS4_
libQt3Support.so.4:_ZN6Q3Http4postERK7QStringRK10QByteArrayP9QIODevice
libQt3Support.so.4:_ZN6Q3Http5abortEv
libQt3Support.so.4:_ZN6Q3Http5closeEv
libQt3Support.so.4:_ZN6Q3Http7readAllEv
libQt3Support.so.4:_ZN6Q3Http7requestERK19Q3HttpRequestHeaderP9QIODeviceS4_
libQt3Support.so.4:_ZN6Q3Http7requestERK19Q3HttpRequestHeaderRK10QByteArrayP9QIODevice
libQt3Support.so.4:_ZN6Q3Http7setHostERK7QStringt
libQt3Support.so.4:_ZN6Q3Http8setStateEi
libQt3Support.so.4:_ZN6Q3Http9readBlockEPcm
libQt3Support.so.4:_ZN6Q3Http9readyReadERK20Q3HttpResponseHeader
libQt3Support.so.4:_ZN6Q3Http9slotErrorEi
libQt3Support.so.4:_ZN6Q3HttpC1EP7QObjectPKc
libQt3Support.so.4:_ZN6Q3HttpC1ERK7QStringtP7QObjectPKc
libQt3Support.so.4:_ZN6Q3HttpC1Ev
libQt3Support.so.4:_ZN6Q3HttpC2EP7QObjectPKc
libQt3Support.so.4:_ZN6Q3HttpC2ERK7QStringtP7QObjectPKc
libQt3Support.so.4:_ZN6Q3HttpC2Ev
libQt3Support.so.4:_ZN6Q3HttpD0Ev
libQt3Support.so.4:_ZN6Q3HttpD1Ev
libQt3Support.so.4:_ZN6Q3HttpD2Ev
libQt3Support.so.4:_ZN6Q3VBox11qt_metacallEN11QMetaObject4CallEiPPv
libQt3Support.so.4:_ZN6Q3VBox11qt_metacastEPKc
libQt3Support.so.4:_ZN6Q3VBoxC1EP7QWidgetPKc6QFlagsIN2Qt10WindowTypeEE
libQt3Support.so.4:_ZN6Q3VBoxC2EP7QWidgetPKc6QFlagsIN2Qt10WindowTypeEE
libQt3Support.so.4:_ZN7Q3Accel10insertItemERK12QKeySequencei
libQt3Support.so.4:_ZN7Q3Accel10removeItemEi
libQt3Support.so.4:_ZN7Q3Accel10setEnabledEb
libQt3Support.so.4:_ZN7Q3Accel11connectItemEiPK7QObjectPKc
libQt3Support.so.4:_ZN7Q3Accel11keyToStringE12QKeySequence
libQt3Support.so.4:_ZN7Q3Accel11qt_metacallEN11QMetaObject4CallEiPPv
libQt3Support.so.4:_ZN7Q3Accel11qt_metacastEPKc
libQt3Support.so.4:_ZN7Q3Accel11shortcutKeyERK7QString
libQt3Support.so.4:_ZN7Q3Accel11stringToKeyERK7QString
libQt3Support.so.4:_ZN7Q3Accel12setWhatsThisEiRK7QString
libQt3Support.so.4:_ZN7Q3Accel14disconnectItemEiPK7QObjectPKc
libQt3Support.so.4:_ZN7Q3Accel14setItemEnabledEib
libQt3Support.so.4:_ZN7Q3Accel18setIgnoreWhatsThisEb
libQt3Support.so.4:_ZN7Q3Accel20activatedAmbiguouslyEi
libQt3Support.so.4:_ZN7Q3Accel3keyEi
libQt3Support.so.4:_ZN7Q3Accel5clearEv
libQt3Support.so.4:_ZN7Q3Accel9activatedEi
libQt3Support.so.4:_ZN7Q3AccelC1EP7QWidgetP7QObjectPKc
libQt3Support.so.4:_ZN7Q3AccelC1EP7QWidgetPKc
libQt3Support.so.4:_ZN7Q3AccelC2EP7QWidgetP7QObjectPKc
libQt3Support.so.4:_ZN7Q3AccelC2EP7QWidgetPKc
libQt3Support.so.4:_ZN7Q3AccelD0Ev
libQt3Support.so.4:_ZN7Q3AccelD1Ev
libQt3Support.so.4:_ZN7Q3AccelD2Ev
libQt3Support.so.4:_ZN7Q3Frame10paintEventEP11QPaintEvent
libQt3Support.so.4:_ZN7Q3Frame11qt_metacallEN11QMetaObject4CallEiPPv
libQt3Support.so.4:_ZN7Q3Frame11qt_metacastEPKc
libQt3Support.so.4:_ZN7Q3Frame11resizeEventEP12QResizeEvent
libQt3Support.so.4:_ZN7Q3Frame12drawContentsEP8QPainter
libQt3Support.so.4:_ZN7Q3Frame12frameChangedEv
libQt3Support.so.4:_ZN7Q3Frame9drawFrameEP8QPainter
libQt3Support.so.4:_ZN7Q3Frame9setMarginEi
libQt3Support.so.4:_ZN7Q3FrameC1EP7QWidgetPKc6QFlagsIN2Qt10WindowTypeEE
libQt3Support.so.4:_ZN7Q3FrameC2EP7QWidgetPKc6QFlagsIN2Qt10WindowTypeEE
libQt3Support.so.4:_ZN7Q3FrameD0Ev
libQt3Support.so.4:_ZN7Q3FrameD1Ev
libQt3Support.so.4:_ZN7Q3FrameD2Ev
libQt3Support.so.4:_ZN7Q3GDict10look_asciiEPKcPvi
libQt3Support.so.4:_ZN7Q3GDict10remove_intElPv
libQt3Support.so.4:_ZN7Q3GDict10remove_ptrEPvS0_
libQt3Support.so.4:_ZN7Q3GDict10take_asciiEPKc
libQt3Support.so.4:_ZN7Q3GDict10unlink_intElPv
libQt3Support.so.4:_ZN7Q3GDict10unlink_ptrEPvS0_
libQt3Support.so.4:_ZN7Q3GDict11look_stringERK7QStringPvi
libQt3Support.so.4:_ZN7Q3GDict11take_stringERK7QString
libQt3Support.so.4:_ZN7Q3GDict12hashKeyAsciiEPKc
libQt3Support.so.4:_ZN7Q3GDict12remove_asciiEPKcPv
libQt3Support.so.4:_ZN7Q3GDict12unlink_asciiEPKcPv
libQt3Support.so.4:_ZN7Q3GDict13hashKeyStringERK7QString
libQt3Support.so.4:_ZN7Q3GDict13remove_stringERK7QStringPv
libQt3Support.so.4:_ZN7Q3GDict13unlink_commonEiP12Q3BaseBucketS1_
libQt3Support.so.4:_ZN7Q3GDict13unlink_stringERK7QStringPv
libQt3Support.so.4:_ZN7Q3GDict4initEjNS_7KeyTypeEbb
libQt3Support.so.4:_ZN7Q3GDict4readER11QDataStream
libQt3Support.so.4:_ZN7Q3GDict4readER11QDataStreamRPv
libQt3Support.so.4:_ZN7Q3GDict5clearEv
libQt3Support.so.4:_ZN7Q3GDict6resizeEj
libQt3Support.so.4:_ZN7Q3GDict8look_intElPvi
libQt3Support.so.4:_ZN7Q3GDict8look_ptrEPvS0_i
libQt3Support.so.4:_ZN7Q3GDict8take_intEl
libQt3Support.so.4:_ZN7Q3GDict8take_ptrEPv
libQt3Support.so.4:_ZN7Q3GDictC1ERKS_
libQt3Support.so.4:_ZN7Q3GDictC1EjNS_7KeyTypeEbb
libQt3Support.so.4:_ZN7Q3GDictC2ERKS_
libQt3Support.so.4:_ZN7Q3GDictC2EjNS_7KeyTypeEbb
libQt3Support.so.4:_ZN7Q3GDictD0Ev
libQt3Support.so.4:_ZN7Q3GDictD1Ev
libQt3Support.so.4:_ZN7Q3GDictD2Ev
libQt3Support.so.4:_ZN7Q3GDictaSERKS_
libQt3Support.so.4:_ZN7Q3GList10relinkNodeEP7Q3LNode
libQt3Support.so.4:_ZN7Q3GList10removeNodeEP7Q3LNode
libQt3Support.so.4:_ZN7Q3GList12compareItemsEPvS0_
libQt3Support.so.4:_ZN7Q3GList16heapSortPushDownEPPvii
libQt3Support.so.4:_ZN7Q3GList4findEPvb
libQt3Support.so.4:_ZN7Q3GList4lastEv
libQt3Support.so.4:_ZN7Q3GList4nextEv
libQt3Support.so.4:_ZN7Q3GList4prevEv
libQt3Support.so.4:_ZN7Q3GList4readER11QDataStream
libQt3Support.so.4:_ZN7Q3GList4readER11QDataStreamRPv
libQt3Support.so.4:_ZN7Q3GList4sortEv
libQt3Support.so.4:_ZN7Q3GList4takeEv
libQt3Support.so.4:_ZN7Q3GList5clearEv
libQt3Support.so.4:_ZN7Q3GList5eraseEP7Q3LNode
libQt3Support.so.4:_ZN7Q3GList5firstEv
libQt3Support.so.4:_ZN7Q3GList6appendEPv
libQt3Support.so.4:_ZN7Q3GList6inSortEPv
libQt3Support.so.4:_ZN7Q3GList6locateEj
libQt3Support.so.4:_ZN7Q3GList6removeEPv
libQt3Support.so.4:_ZN7Q3GList6takeAtEj
libQt3Support.so.4:_ZN7Q3GList6unlinkEv
libQt3Support.so.4:_ZN7Q3GList7findRefEPvb
libQt3Support.so.4:_ZN7Q3GList7prependEPv
libQt3Support.so.4:_ZN7Q3GList8insertAtEjPv
libQt3Support.so.4:_ZN7Q3GList8removeAtEj
libQt3Support.so.4:_ZN7Q3GList8takeLastEv
libQt3Support.so.4:_ZN7Q3GList8takeNodeEP7Q3LNode
libQt3Support.so.4:_ZN7Q3GList9removeRefEPv
libQt3Support.so.4:_ZN7Q3GList9replaceAtEjPv
libQt3Support.so.4:_ZN7Q3GList9takeFirstEv
libQt3Support.so.4:_ZN7Q3GListC1ERKS_
libQt3Support.so.4:_ZN7Q3GListC1Ev
libQt3Support.so.4:_ZN7Q3GListC2ERKS_
libQt3Support.so.4:_ZN7Q3GListC2Ev
libQt3Support.so.4:_ZN7Q3GListD0Ev
libQt3Support.so.4:_ZN7Q3GListD1Ev
libQt3Support.so.4:_ZN7Q3GListD2Ev
libQt3Support.so.4:_ZN7Q3GListaSERKS_
libQt3Support.so.4:_ZN7Q3Table10dragObjectEv
libQt3Support.so.4:_ZN7Q3Table10hideColumnEi
libQt3Support.so.4:_ZN7Q3Table10insertRowsEii
libQt3Support.so.4:_ZN7Q3Table10paintEventEP11QPaintEvent
libQt3Support.so.4:_ZN7Q3Table10paintFocusEP8QPainterRK5QRect
libQt3Support.so.4:_ZN7Q3Table10removeRowsERK10Q3MemArrayIiE
libQt3Support.so.4:_ZN7Q3Table10resizeDataEi
libQt3Support.so.4:_ZN7Q3Table10setEnabledEb
libQt3Support.so.4:_ZN7Q3Table10setNumColsEi
libQt3Support.so.4:_ZN7Q3Table10setNumRowsEi
libQt3Support.so.4:_ZN7Q3Table10setSortingEb
libQt3Support.so.4:_ZN7Q3Table10showColumnEi
libQt3Support.so.4:_ZN7Q3Table10sortColumnEibb
libQt3Support.so.4:_ZN7Q3Table10updateCellEii
libQt3Support.so.4:_ZN7Q3Table11eventFilterEP7QObjectP6QEvent
libQt3Support.so.4:_ZN7Q3Table11qt_metacallEN11QMetaObject4CallEiPPv
libQt3Support.so.4:_ZN7Q3Table11qt_metacastEPKc
libQt3Support.so.4:_ZN7Q3Table11repaintCellEii
libQt3Support.so.4:_ZN7Q3Table11selectCellsEiiii
libQt3Support.so.4:_ZN7Q3Table11setEditModeENS_8EditModeEii
libQt3Support.so.4:_ZN7Q3Table11setReadOnlyEb
libQt3Support.so.4:_ZN7Q3Table11setShowGridEb
libQt3Support.so.4:_ZN7Q3Table11swapColumnsEiib
libQt3Support.so.4:_ZN7Q3Table12addSelectionERK16Q3TableSelection
libQt3Support.so.4:_ZN7Q3Table12adjustColumnEi
libQt3Support.so.4:_ZN7Q3Table12doAutoScrollEv
libQt3Support.so.4:_ZN7Q3Table12drawContentsEP8QPainter
libQt3Support.so.4:_ZN7Q3Table12drawContentsEP8QPainteriiii
libQt3Support.so.4:_ZN7Q3Table12focusInEventEP11QFocusEvent
libQt3Support.so.4:_ZN7Q3Table12insertWidgetEiiP7QWidget
libQt3Support.so.4:_ZN7Q3Table12removeColumnEi
libQt3Support.so.4:_ZN7Q3Table12saveContentsER11Q3PtrVectorI11Q3TableItemERS0_INS_11TableWidgetEE
libQt3Support.so.4:_ZN7Q3Table12selectColumnEi
libQt3Support.so.4:_ZN7Q3Table12setRowHeightEii
libQt3Support.so.4:_ZN7Q3Table12setRowLabelsERK11QStringList
libQt3Support.so.4:_ZN7Q3Table12setTopMarginEi
libQt3Support.so.4:_ZN7Q3Table12valueChangedEii
libQt3Support.so.4:_ZN7Q3Table13columnClickedEi
libQt3Support.so.4:_ZN7Q3Table13doubleClickedEiiiRK6QPoint
libQt3Support.so.4:_ZN7Q3Table13focusOutEventEP11QFocusEvent
libQt3Support.so.4:_ZN7Q3Table13insertColumnsEii
libQt3Support.so.4:_ZN7Q3Table13keyPressEventEP9QKeyEvent
libQt3Support.so.4:_ZN7Q3Table13rangeGeometryEiiiiRb
libQt3Support.so.4:_ZN7Q3Table13removeColumnsERK10Q3MemArrayIiE
libQt3Support.so.4:_ZN7Q3Table13setCellWidgetEiiP7QWidget
libQt3Support.so.4:_ZN7Q3Table13setFocusStyleENS_10FocusStyleE
libQt3Support.so.4:_ZN7Q3Table13setLeftMarginEi
libQt3Support.so.4:_ZN7Q3Table14clearSelectionEb
libQt3Support.so.4:_ZN7Q3Table14currentChangedEii
libQt3Support.so.4:_ZN7Q3Table14doValueChangedEv
libQt3Support.so.4:_ZN7Q3Table14paintEmptyAreaEP8QPainteriiii
libQt3Support.so.4:_ZN7Q3Table14setColumnWidthEii
libQt3Support.so.4:_ZN7Q3Table14setCurrentCellEii
libQt3Support.so.4:_ZN7Q3Table14setCurrentCellEiibb
libQt3Support.so.4:_ZN7Q3Table14setDragEnabledEb
libQt3Support.so.4:_ZN7Q3Table14setRowReadOnlyEib
libQt3Support.so.4:_ZN7Q3Table15clearCellWidgetEii
libQt3Support.so.4:_ZN7Q3Table15removeSelectionERK16Q3TableSelection
libQt3Support.so.4:_ZN7Q3Table15removeSelectionEi
libQt3Support.so.4:_ZN7Q3Table15restoreContentsER11Q3PtrVectorI11Q3TableItemERS0_INS_11TableWidgetEE
libQt3Support.so.4:_ZN7Q3Table15rowIndexChangedEiii
libQt3Support.so.4:_ZN7Q3Table15setColumnLabelsERK11QStringList
libQt3Support.so.4:_ZN7Q3Table16activateNextCellEv
libQt3Support.so.4:_ZN7Q3Table16rowHeightChangedEi
libQt3Support.so.4:_ZN7Q3Table16selectionChangedEv
libQt3Support.so.4:_ZN7Q3Table16setSelectionModeENS_13SelectionModeE
libQt3Support.so.4:_ZN7Q3Table16updateColWidgetsEi
libQt3Support.so.4:_ZN7Q3Table16updateGeometriesEv
libQt3Support.so.4:_ZN7Q3Table16updateRowWidgetsEi
libQt3Support.so.4:_ZN7Q3Table17contentsDropEventEP10QDropEvent
libQt3Support.so.4:_ZN7Q3Table17ensureCellVisibleEii
libQt3Support.so.4:_ZN7Q3Table17repaintSelectionsEP16Q3TableSelectionS1_bb
libQt3Support.so.4:_ZN7Q3Table17repaintSelectionsEv
libQt3Support.so.4:_ZN7Q3Table17setColumnReadOnlyEib
libQt3Support.so.4:_ZN7Q3Table17setRowStretchableEib
libQt3Support.so.4:_ZN7Q3Table18columnIndexChangedEiii
libQt3Support.so.4:_ZN7Q3Table18columnWidthChangedEi
libQt3Support.so.4:_ZN7Q3Table18updateHeaderStatesEv
libQt3Support.so.4:_ZN7Q3Table19contentsToViewport2ERK6QPoint
libQt3Support.so.4:_ZN7Q3Table19contentsToViewport2EiiRiS0_
libQt3Support.so.4:_ZN7Q3Table19finishContentsReszeEb
libQt3Support.so.4:_ZN7Q3Table19setRowMovingEnabledEb
libQt3Support.so.4:_ZN7Q3Table19viewportResizeEventEP12QResizeEvent
libQt3Support.so.4:_ZN7Q3Table19viewportToContents2ERK6QPoint
libQt3Support.so.4:_ZN7Q3Table19viewportToContents2EiiRiS0_
libQt3Support.so.4:_ZN7Q3Table20contextMenuRequestedEiiRK6QPoint
libQt3Support.so.4:_ZN7Q3Table20setColumnStretchableEib
libQt3Support.so.4:_ZN7Q3Table20updateGeometriesSlotEv
libQt3Support.so.4:_ZN7Q3Table21contentsDragMoveEventEP14QDragMoveEvent
libQt3Support.so.4:_ZN7Q3Table22contentsDragEnterEventEP15QDragEnterEvent
libQt3Support.so.4:_ZN7Q3Table22contentsDragLeaveEventEP15QDragLeaveEvent
libQt3Support.so.4:_ZN7Q3Table22contentsMouseMoveEventEP11QMouseEvent
libQt3Support.so.4:_ZN7Q3Table22setColumnMovingEnabledEb
libQt3Support.so.4:_ZN7Q3Table22windowActivationChangeEb
libQt3Support.so.4:_ZN7Q3Table23contentsMousePressEventEP11QMouseEvent
libQt3Support.so.4:_ZN7Q3Table23delayedUpdateGeometriesEv
libQt3Support.so.4:_ZN7Q3Table24contentsContextMenuEventEP17QContextMenuEvent
libQt3Support.so.4:_ZN7Q3Table24setCellContentFromEditorEii
libQt3Support.so.4:_ZN7Q3Table25contentsMousePressEventExEP11QMouseEvent
libQt3Support.so.4:_ZN7Q3Table25contentsMouseReleaseEventEP11QMouseEvent
libQt3Support.so.4:_ZN7Q3Table29contentsMouseDoubleClickEventEP11QMouseEvent
libQt3Support.so.4:_ZN7Q3Table29updateHeaderAndResizeContentsEP13Q3TableHeaderiiiRb
libQt3Support.so.4:_ZN7Q3Table4initEii
libQt3Support.so.4:_ZN7Q3Table6fixColERii
libQt3Support.so.4:_ZN7Q3Table6fixRowERii
libQt3Support.so.4:_ZN7Q3Table7clickedEiiiRK6QPoint
libQt3Support.so.4:_ZN7Q3Table7droppedEP10QDropEvent
libQt3Support.so.4:_ZN7Q3Table7endEditEiibb
libQt3Support.so.4:_ZN7Q3Table7fixCellERiS0_i
libQt3Support.so.4:_ZN7Q3Table7hideRowEi
libQt3Support.so.4:_ZN7Q3Table7pressedEiiiRK6QPoint
libQt3Support.so.4:_ZN7Q3Table7setItemEiiP11Q3TableItem
libQt3Support.so.4:_ZN7Q3Table7setTextEiiRK7QString
libQt3Support.so.4:_ZN7Q3Table7showRowEi
libQt3Support.so.4:_ZN7Q3Table8editCellEiib
libQt3Support.so.4:_ZN7Q3Table8swapRowsEiib
libQt3Support.so.4:_ZN7Q3Table8takeItemEP11Q3TableItem
libQt3Support.so.4:_ZN7Q3Table9adjustRowEi
libQt3Support.so.4:_ZN7Q3Table9beginEditEiib
libQt3Support.so.4:_ZN7Q3Table9clearCellEii
libQt3Support.so.4:_ZN7Q3Table9paintCellEP8QPainteriiRK5QRectb
libQt3Support.so.4:_ZN7Q3Table9paintCellEP8QPainteriiRK5QRectbRK11QColorGroup
libQt3Support.so.4:_ZN7Q3Table9removeRowEi
libQt3Support.so.4:_ZN7Q3Table9selectRowEi
libQt3Support.so.4:_ZN7Q3Table9setPixmapEiiRK7QPixmap
libQt3Support.so.4:_ZN7Q3Table9showEventEP10QShowEvent
libQt3Support.so.4:_ZN7Q3Table9startDragEv
libQt3Support.so.4:_ZN7Q3Table9swapCellsEiiii
libQt3Support.so.4:_ZN7Q3TableC1EP7QWidgetPKc
libQt3Support.so.4:_ZN7Q3TableC1EiiP7QWidgetPKc
libQt3Support.so.4:_ZN7Q3TableC2EP7QWidgetPKc
libQt3Support.so.4:_ZN7Q3TableC2EiiP7QWidgetPKc
libQt3Support.so.4:_ZN7Q3TableD0Ev
libQt3Support.so.4:_ZN7Q3TableD1Ev
libQt3Support.so.4:_ZN7Q3TableD2Ev
libQt3Support.so.4:_ZN8Q3Action10removeFromEP7QWidget
libQt3Support.so.4:_ZN8Q3Action10setEnabledEb
libQt3Support.so.4:_ZN8Q3Action10setIconSetERK5QIcon
libQt3Support.so.4:_ZN8Q3Action10setToolTipERK7QString
libQt3Support.so.4:_ZN8Q3Action10setVisibleEb
libQt3Support.so.4:_ZN8Q3Action11qt_metacallEN11QMetaObject4CallEiPPv
libQt3Support.so.4:_ZN8Q3Action11qt_metacastEPKc
libQt3Support.so.4:_ZN8Q3Action11setDisabledEb
libQt3Support.so.4:_ZN8Q3Action11setMenuTextERK7QString
libQt3Support.so.4:_ZN8Q3Action12setStatusTipERK7QString
libQt3Support.so.4:_ZN8Q3Action12setWhatsThisERK7QString
libQt3Support.so.4:_ZN8Q3Action14menuStatusTextEi
libQt3Support.so.4:_ZN8Q3Action14showStatusTextERK7QString
libQt3Support.so.4:_ZN8Q3Action15clearStatusTextEv
libQt3Support.so.4:_ZN8Q3Action15objectDestroyedEv
libQt3Support.so.4:_ZN8Q3Action15setToggleActionEb
libQt3Support.so.4:_ZN8Q3Action17toolButtonToggledEb
libQt3Support.so.4:_ZN8Q3Action18internalActivationEv
libQt3Support.so.4:_ZN8Q3Action4initEv
libQt3Support.so.4:_ZN8Q3Action5addToEP7QWidget
libQt3Support.so.4:_ZN8Q3Action5setOnEb
libQt3Support.so.4:_ZN8Q3Action6toggleEv
libQt3Support.so.4:_ZN8Q3Action7addedToEP7QWidgetS1_
libQt3Support.so.4:_ZN8Q3Action7addedToEiP11Q3PopupMenu
libQt3Support.so.4:_ZN8Q3Action7setTextERK7QString
libQt3Support.so.4:_ZN8Q3Action7toggledEb
libQt3Support.so.4:_ZN8Q3Action8activateEv
libQt3Support.so.4:_ZN8Q3Action8setAccelERK12QKeySequence
libQt3Support.so.4:_ZN8Q3Action9activatedEv
libQt3Support.so.4:_ZN8Q3ActionC1EP7QObjectPKc
libQt3Support.so.4:_ZN8Q3ActionC1EP7QObjectPKcb
libQt3Support.so.4:_ZN8Q3ActionC1ERK5QIconRK7QString12QKeySequenceP7QObjectPKc
libQt3Support.so.4:_ZN8Q3ActionC1ERK7QString12QKeySequenceP7QObjectPKc
libQt3Support.so.4:_ZN8Q3ActionC1ERK7QStringRK5QIconS2_12QKeySequenceP7QObjectPKcb
libQt3Support.so.4:_ZN8Q3ActionC1ERK7QStringS2_12QKeySequenceP7QObjectPKcb
libQt3Support.so.4:_ZN8Q3ActionC2EP7QObjectPKc
libQt3Support.so.4:_ZN8Q3ActionC2EP7QObjectPKcb
libQt3Support.so.4:_ZN8Q3ActionC2ERK5QIconRK7QString12QKeySequenceP7QObjectPKc
libQt3Support.so.4:_ZN8Q3ActionC2ERK7QString12QKeySequenceP7QObjectPKc
libQt3Support.so.4:_ZN8Q3ActionC2ERK7QStringRK5QIconS2_12QKeySequenceP7QObjectPKcb
libQt3Support.so.4:_ZN8Q3ActionC2ERK7QStringS2_12QKeySequenceP7QObjectPKcb
libQt3Support.so.4:_ZN8Q3ActionD0Ev
libQt3Support.so.4:_ZN8Q3ActionD1Ev
libQt3Support.so.4:_ZN8Q3ActionD2Ev
libQt3Support.so.4:_ZN8Q3Button10drawButtonEP8QPainter
libQt3Support.so.4:_ZN8Q3Button10paintEventEP11QPaintEvent
libQt3Support.so.4:_ZN8Q3Button11qt_metacallEN11QMetaObject4CallEiPPv
libQt3Support.so.4:_ZN8Q3Button11qt_metacastEPKc
libQt3Support.so.4:_ZN8Q3Button15drawButtonLabelEP8QPainter
libQt3Support.so.4:_ZN8Q3ButtonC1EP7QWidgetPKc6QFlagsIN2Qt10WindowTypeEE
libQt3Support.so.4:_ZN8Q3ButtonC2EP7QWidgetPKc6QFlagsIN2Qt10WindowTypeEE
libQt3Support.so.4:_ZN8Q3ButtonD0Ev
libQt3Support.so.4:_ZN8Q3ButtonD1Ev
libQt3Support.so.4:_ZN8Q3ButtonD2Ev
libQt3Support.so.4:_ZN8Q3Canvas10removeItemEP12Q3CanvasItem
libQt3Support.so.4:_ZN8Q3Canvas10removeViewEP12Q3CanvasView
libQt3Support.so.4:_ZN8Q3Canvas10setChangedERK5QRect
libQt3Support.so.4:_ZN8Q3Canvas11qt_metacallEN11QMetaObject4CallEiPPv
libQt3Support.so.4:_ZN8Q3Canvas11qt_metacastEPKc
libQt3Support.so.4:_ZN8Q3Canvas12addAnimationEP12Q3CanvasItem
libQt3Support.so.4:_ZN8Q3Canvas12changeBoundsERK5QRect
libQt3Support.so.4:_ZN8Q3Canvas12drawViewAreaEP12Q3CanvasViewP8QPainterRK5QRectb
libQt3Support.so.4:_ZN8Q3Canvas12setUnchangedERK5QRect
libQt3Support.so.4:_ZN8Q3Canvas13setAllChangedEv
libQt3Support.so.4:_ZN8Q3Canvas14addItemToChunkEP12Q3CanvasItemii
libQt3Support.so.4:_ZN8Q3Canvas14drawBackgroundER8QPainterRK5QRect
libQt3Support.so.4:_ZN8Q3Canvas14drawCanvasAreaERK5QRectP8QPainterb
libQt3Support.so.4:_ZN8Q3Canvas14drawForegroundER8QPainterRK5QRect
libQt3Support.so.4:_ZN8Q3Canvas15removeAnimationEP12Q3CanvasItem
libQt3Support.so.4:_ZN8Q3Canvas15setChangedChunkEii
libQt3Support.so.4:_ZN8Q3Canvas15setUpdatePeriodEi
libQt3Support.so.4:_ZN8Q3Canvas16ensureOffScrSizeEii
libQt3Support.so.4:_ZN8Q3Canvas16setAdvancePeriodEi
libQt3Support.so.4:_ZN8Q3Canvas18setBackgroundColorERK6QColor
libQt3Support.so.4:_ZN8Q3Canvas18setDoubleBufferingEb
libQt3Support.so.4:_ZN8Q3Canvas19removeItemFromChunkEP12Q3CanvasItemii
libQt3Support.so.4:_ZN8Q3Canvas19setBackgroundPixmapERK7QPixmap
libQt3Support.so.4:_ZN8Q3Canvas24addItemToChunkContainingEP12Q3CanvasItemii
libQt3Support.so.4:_ZN8Q3Canvas25setChangedChunkContainingEii
libQt3Support.so.4:_ZN8Q3Canvas29removeItemFromChunkContainingEP12Q3CanvasItemii
libQt3Support.so.4:_ZN8Q3Canvas4initEiiii
libQt3Support.so.4:_ZN8Q3Canvas6resizeEii
libQt3Support.so.4:_ZN8Q3Canvas6retuneEii
libQt3Support.so.4:_ZN8Q3Canvas6updateEv
libQt3Support.so.4:_ZN8Q3Canvas7addItemEP12Q3CanvasItem
libQt3Support.so.4:_ZN8Q3Canvas7addViewEP12Q3CanvasView
libQt3Support.so.4:_ZN8Q3Canvas7advanceEv
libQt3Support.so.4:_ZN8Q3Canvas7resizedEv
libQt3Support.so.4:_ZN8Q3Canvas7setTileEiii
libQt3Support.so.4:_ZN8Q3Canvas8allItemsEv
libQt3Support.so.4:_ZN8Q3Canvas8drawAreaERK5QRectP8QPainterb
libQt3Support.so.4:_ZN8Q3Canvas8setTilesE7QPixmapiiii
libQt3Support.so.4:_ZN8Q3CanvasC1E7QPixmapiiii
libQt3Support.so.4:_ZN8Q3CanvasC1EP7QObjectPKc
libQt3Support.so.4:_ZN8Q3CanvasC1Eii
libQt3Support.so.4:_ZN8Q3CanvasC2E7QPixmapiiii
libQt3Support.so.4:_ZN8Q3CanvasC2EP7QObjectPKc
libQt3Support.so.4:_ZN8Q3CanvasC2Eii
libQt3Support.so.4:_ZN8Q3CanvasD0Ev
libQt3Support.so.4:_ZN8Q3CanvasD1Ev
libQt3Support.so.4:_ZN8Q3CanvasD2Ev
libQt3Support.so.4:_ZN8Q3GArray10deleteDataEPNS_10array_dataE
libQt3Support.so.4:_ZN8Q3GArray10setRawDataEPKcj
libQt3Support.so.4:_ZN8Q3GArray12resetRawDataEPKcj
libQt3Support.so.4:_ZN8Q3GArray4fillEPKcij
libQt3Support.so.4:_ZN8Q3GArray4sortEj
libQt3Support.so.4:_ZN8Q3GArray5storeEPKcj
libQt3Support.so.4:_ZN8Q3GArray6assignEPKcj
libQt3Support.so.4:_ZN8Q3GArray6assignERKS_
libQt3Support.so.4:_ZN8Q3GArray6resizeEj
libQt3Support.so.4:_ZN8Q3GArray6resizeEjNS_12OptimizationE
libQt3Support.so.4:_ZN8Q3GArray7newDataEv
libQt3Support.so.4:_ZN8Q3GArray9duplicateEPKcj
libQt3Support.so.4:_ZN8Q3GArray9duplicateERKS_
libQt3Support.so.4:_ZN8Q3GArray9msg_indexEj
libQt3Support.so.4:_ZN8Q3GArray9setExpandEjPKcj
libQt3Support.so.4:_ZN8Q3GArrayC1ERKS_
libQt3Support.so.4:_ZN8Q3GArrayC1Ei
libQt3Support.so.4:_ZN8Q3GArrayC1Eii
libQt3Support.so.4:_ZN8Q3GArrayC1Ev
libQt3Support.so.4:_ZN8Q3GArrayC2ERKS_
libQt3Support.so.4:_ZN8Q3GArrayC2Ei
libQt3Support.so.4:_ZN8Q3GArrayC2Eii
libQt3Support.so.4:_ZN8Q3GArrayC2Ev
libQt3Support.so.4:_ZN8Q3GArrayD0Ev
libQt3Support.so.4:_ZN8Q3GArrayD1Ev
libQt3Support.so.4:_ZN8Q3GArrayD2Ev
libQt3Support.so.4:_ZN8Q3GCache10setMaxCostEi
libQt3Support.so.4:_ZN8Q3GCache10take_otherEPKc
libQt3Support.so.4:_ZN8Q3GCache11makeRoomForEii
libQt3Support.so.4:_ZN8Q3GCache11take_stringERK7QString
libQt3Support.so.4:_ZN8Q3GCache12insert_otherEPKcPvii
libQt3Support.so.4:_ZN8Q3GCache12remove_otherEPKc
libQt3Support.so.4:_ZN8Q3GCache13insert_stringERK7QStringPvii
libQt3Support.so.4:_ZN8Q3GCache13remove_stringERK7QString
libQt3Support.so.4:_ZN8Q3GCache5clearEv
libQt3Support.so.4:_ZN8Q3GCacheC1ERKS_
libQt3Support.so.4:_ZN8Q3GCacheC1EijNS_7KeyTypeEbb
libQt3Support.so.4:_ZN8Q3GCacheC2ERKS_
libQt3Support.so.4:_ZN8Q3GCacheC2EijNS_7KeyTypeEbb
libQt3Support.so.4:_ZN8Q3GCacheD0Ev
libQt3Support.so.4:_ZN8Q3GCacheD1Ev
libQt3Support.so.4:_ZN8Q3GCacheD2Ev
libQt3Support.so.4:_ZN8Q3GCacheaSERKS_
libQt3Support.so.4:_ZN8Q3Header10paintEventEP11QPaintEvent
libQt3Support.so.4:_ZN8Q3Header10sizeChangeEiii
libQt3Support.so.4:_ZN8Q3Header10unMarkLineEi
libQt3Support.so.4:_ZN8Q3Header11changeEventEP6QEvent
libQt3Support.so.4:_ZN8Q3Header11indexChangeEiii
libQt3Support.so.4:_ZN8Q3Header11moveSectionEii
libQt3Support.so.4:_ZN8Q3Header11qt_metacallEN11QMetaObject4CallEiPPv
libQt3Support.so.4:_ZN8Q3Header11qt_metacastEPKc
libQt3Support.so.4:_ZN8Q3Header11removeLabelEi
libQt3Support.so.4:_ZN8Q3Header11resizeEventEP12QResizeEvent
libQt3Support.so.4:_ZN8Q3Header11setCellSizeEii
libQt3Support.so.4:_ZN8Q3Header12paintSectionEP8QPainteriRK5QRect
libQt3Support.so.4:_ZN8Q3Header12resizeArraysEi
libQt3Support.so.4:_ZN8Q3Header13keyPressEventEP9QKeyEvent
libQt3Support.so.4:_ZN8Q3Header13resizeSectionEii
libQt3Support.so.4:_ZN8Q3Header14mouseMoveEventEP11QMouseEvent
libQt3Support.so.4:_ZN8Q3Header14sectionClickedEi
libQt3Support.so.4:_ZN8Q3Header14setOrientationEN2Qt11OrientationE
libQt3Support.so.4:_ZN8Q3Header15keyReleaseEventEP9QKeyEvent
libQt3Support.so.4:_ZN8Q3Header15mousePressEventEP11QMouseEvent
libQt3Support.so.4:_ZN8Q3Header15setClickEnabledEbi
libQt3Support.so.4:_ZN8Q3Header16adjustHeaderSizeEi
libQt3Support.so.4:_ZN8Q3Header16handleColumnMoveEii
libQt3Support.so.4:_ZN8Q3Header16setMovingEnabledEb
libQt3Support.so.4:_ZN8Q3Header16setResizeEnabledEbi
libQt3Support.so.4:_ZN8Q3Header16setSortIndicatorEib
libQt3Support.so.4:_ZN8Q3Header17mouseReleaseEventEP11QMouseEvent
libQt3Support.so.4:_ZN8Q3Header17paintSectionLabelEP8QPainteriRK5QRect
libQt3Support.so.4:_ZN8Q3Header17setIsATableHeaderEb
libQt3Support.so.4:_ZN8Q3Header17setStretchEnabledEbi
libQt3Support.so.4:_ZN8Q3Header17setUpdatesEnabledEb
libQt3Support.so.4:_ZN8Q3Header18calculatePositionsEbi
libQt3Support.so.4:_ZN8Q3Header18handleColumnResizeEiibb
libQt3Support.so.4:_ZN8Q3Header21mouseDoubleClickEventEP11QMouseEvent
libQt3Support.so.4:_ZN8Q3Header23setSectionSizeAndHeightEii
libQt3Support.so.4:_ZN8Q3Header26sectionHandleDoubleClickedEi
libQt3Support.so.4:_ZN8Q3Header4initEi
libQt3Support.so.4:_ZN8Q3Header5movedEii
libQt3Support.so.4:_ZN8Q3Header5sRectEi
libQt3Support.so.4:_ZN8Q3Header7clickedEi
libQt3Support.so.4:_ZN8Q3Header7pressedEi
libQt3Support.so.4:_ZN8Q3Header8addLabelERK5QIconRK7QStringi
libQt3Support.so.4:_ZN8Q3Header8addLabelERK7QStringi
libQt3Support.so.4:_ZN8Q3Header8findLineEi
libQt3Support.so.4:_ZN8Q3Header8handleAtEi
libQt3Support.so.4:_ZN8Q3Header8markLineEi
libQt3Support.so.4:_ZN8Q3Header8moveCellEii
libQt3Support.so.4:_ZN8Q3Header8releasedEi
libQt3Support.so.4:_ZN8Q3Header8setLabelEiRK5QIconRK7QStringi
libQt3Support.so.4:_ZN8Q3Header8setLabelEiRK7QStringi
libQt3Support.so.4:_ZN8Q3Header9paintRectEii
libQt3Support.so.4:_ZN8Q3Header9setOffsetEi
libQt3Support.so.4:_ZN8Q3Header9showEventEP10QShowEvent
libQt3Support.so.4:_ZN8Q3HeaderC1EP7QWidgetPKc
libQt3Support.so.4:_ZN8Q3HeaderC1EiP7QWidgetPKc
libQt3Support.so.4:_ZN8Q3HeaderC2EP7QWidgetPKc
libQt3Support.so.4:_ZN8Q3HeaderC2EiP7QWidgetPKc
libQt3Support.so.4:_ZN8Q3HeaderD0Ev
libQt3Support.so.4:_ZN8Q3HeaderD1Ev
libQt3Support.so.4:_ZN8Q3HeaderD2Ev
libQt3Support.so.4:_ZN8Q3Membuf11scanNewlineEP10QByteArray
libQt3Support.so.4:_ZN8Q3Membuf12consumeBytesEmPc
libQt3Support.so.4:_ZN8Q3Membuf7ungetchEi
libQt3Support.so.4:_ZN8Q3MembufC1Ev
libQt3Support.so.4:_ZN8Q3MembufC2Ev
libQt3Support.so.4:_ZN8Q3MembufD1Ev
libQt3Support.so.4:_ZN8Q3MembufD2Ev
libQt3Support.so.4:_ZN8Q3Signal10disconnectEPK7QObjectPKc
libQt3Support.so.4:_ZN8Q3Signal11qt_metacallEN11QMetaObject4CallEiPPv
libQt3Support.so.4:_ZN8Q3Signal11qt_metacastEPKc
libQt3Support.so.4:_ZN8Q3Signal12setParameterEi
libQt3Support.so.4:_ZN8Q3Signal6signalERK8QVariant
libQt3Support.so.4:_ZN8Q3Signal7connectEPK7QObjectPKc
libQt3Support.so.4:_ZN8Q3Signal8activateEv
libQt3Support.so.4:_ZN8Q3Signal8setValueERK8QVariant
libQt3Support.so.4:_ZN8Q3Signal9intSignalEi
libQt3Support.so.4:_ZN8Q3SignalC1EP7QObjectPKc
libQt3Support.so.4:_ZN8Q3SignalC2EP7QObjectPKc
libQt3Support.so.4:_ZN8Q3SignalD0Ev
libQt3Support.so.4:_ZN8Q3SignalD1Ev
libQt3Support.so.4:_ZN8Q3SignalD2Ev
libQt3Support.so.4:_ZN8Q3Socket11qt_metacallEN11QMetaObject4CallEiPPv
libQt3Support.so.4:_ZN8Q3Socket11qt_metacastEPKc
libQt3Support.so.4:_ZN8Q3Socket12bytesWrittenEi
libQt3Support.so.4:_ZN8Q3Socket12socketDeviceEv
libQt3Support.so.4:_ZN8Q3Socket13connectToHostERK7QStringt
libQt3Support.so.4:_ZN8Q3Socket13tryConnectingEv
libQt3Support.so.4:_ZN8Q3Socket13tryConnectionEv
libQt3Support.so.4:_ZN8Q3Socket15consumeWriteBufEm
libQt3Support.so.4:_ZN8Q3Socket15setSocketDeviceEP14Q3SocketDevice
libQt3Support.so.4:_ZN8Q3Socket15setSocketInternEi
libQt3Support.so.4:_ZN8Q3Socket16clearPendingDataEv
libQt3Support.so.4:_ZN8Q3Socket16connectionClosedEv
libQt3Support.so.4:_ZN8Q3Socket17setReadBufferSizeEm
libQt3Support.so.4:_ZN8Q3Socket20delayedCloseFinishedEv
libQt3Support.so.4:_ZN8Q3Socket26emitErrorConnectionRefusedEv
libQt3Support.so.4:_ZN8Q3Socket2atEx
libQt3Support.so.4:_ZN8Q3Socket4openE6QFlagsIN9QIODevice12OpenModeFlagEE
libQt3Support.so.4:_ZN8Q3Socket5closeEv
libQt3Support.so.4:_ZN8Q3Socket5errorEi
libQt3Support.so.4:_ZN8Q3Socket5flushEv
libQt3Support.so.4:_ZN8Q3Socket5getchEv
libQt3Support.so.4:_ZN8Q3Socket5putchEi
libQt3Support.so.4:_ZN8Q3Socket7sn_readEb
libQt3Support.so.4:_ZN8Q3Socket7ungetchEi
libQt3Support.so.4:_ZN8Q3Socket8readDataEPcx
libQt3Support.so.4:_ZN8Q3Socket8sn_writeEv
libQt3Support.so.4:_ZN8Q3Socket9connectedEv
libQt3Support.so.4:_ZN8Q3Socket9hostFoundEv
libQt3Support.so.4:_ZN8Q3Socket9readyReadEv
libQt3Support.so.4:_ZN8Q3Socket9setSocketEi
libQt3Support.so.4:_ZN8Q3Socket9writeDataEPKcx
libQt3Support.so.4:_ZN8Q3SocketC1EP7QObjectPKc
libQt3Support.so.4:_ZN8Q3SocketC2EP7QObjectPKc
libQt3Support.so.4:_ZN8Q3SocketD0Ev
libQt3Support.so.4:_ZN8Q3SocketD1Ev
libQt3Support.so.4:_ZN8Q3SocketD2Ev
libQt3Support.so.4:_ZN8Q3Wizard10insertPageEP7QWidgetRK7QStringi
libQt3Support.so.4:_ZN8Q3Wizard10removePageEP7QWidget
libQt3Support.so.4:_ZN8Q3Wizard10setVisibleEb
libQt3Support.so.4:_ZN8Q3Wizard11eventFilterEP7QObjectP6QEvent
libQt3Support.so.4:_ZN8Q3Wizard11helpClickedEv
libQt3Support.so.4:_ZN8Q3Wizard11qt_metacallEN11QMetaObject4CallEiPPv
libQt3Support.so.4:_ZN8Q3Wizard11qt_metacastEPKc
libQt3Support.so.4:_ZN8Q3Wizard12setTitleFontERK5QFont
libQt3Support.so.4:_ZN8Q3Wizard13updateButtonsEv
libQt3Support.so.4:_ZN8Q3Wizard14layOutTitleRowEP11QHBoxLayoutRK7QString
libQt3Support.so.4:_ZN8Q3Wizard14setAppropriateEP7QWidgetb
libQt3Support.so.4:_ZN8Q3Wizard14setBackEnabledEP7QWidgetb
libQt3Support.so.4:_ZN8Q3Wizard14setBackEnabledEb
libQt3Support.so.4:_ZN8Q3Wizard14setHelpEnabledEP7QWidgetb
libQt3Support.so.4:_ZN8Q3Wizard14setHelpEnabledEb
libQt3Support.so.4:_ZN8Q3Wizard14setNextEnabledEP7QWidgetb
libQt3Support.so.4:_ZN8Q3Wizard14setNextEnabledEb
libQt3Support.so.4:_ZN8Q3Wizard15layOutButtonRowEP11QHBoxLayout
libQt3Support.so.4:_ZN8Q3Wizard16setFinishEnabledEP7QWidgetb
libQt3Support.so.4:_ZN8Q3Wizard4backEv
libQt3Support.so.4:_ZN8Q3Wizard4helpEv
libQt3Support.so.4:_ZN8Q3Wizard4nextEv
libQt3Support.so.4:_ZN8Q3Wizard6layOutEv
libQt3Support.so.4:_ZN8Q3Wizard7addPageEP7QWidgetRK7QString
libQt3Support.so.4:_ZN8Q3Wizard7setFontERK5QFont
libQt3Support.so.4:_ZN8Q3Wizard8selectedERK7QString
libQt3Support.so.4:_ZN8Q3Wizard8setTitleEP7QWidgetRK7QString
libQt3Support.so.4:_ZN8Q3Wizard8showPageEP7QWidget
libQt3Support.so.4:_ZN8Q3WizardC1EP7QWidgetPKcb6QFlagsIN2Qt10WindowTypeEE
libQt3Support.so.4:_ZN8Q3WizardC2EP7QWidgetPKcb6QFlagsIN2Qt10WindowTypeEE
libQt3Support.so.4:_ZN8Q3WizardD0Ev
libQt3Support.so.4:_ZN8Q3WizardD1Ev
libQt3Support.so.4:_ZN8Q3WizardD2Ev
libQt3Support.so.4:_ZN9Q3CString6setNumEdci
libQt3Support.so.4:_ZN9Q3CString6setNumEl
libQt3Support.so.4:_ZN9Q3CString6setNumEm
libQt3Support.so.4:_ZN9Q3CString7sprintfEPKcz
libQt3Support.so.4:_ZN9Q3CString9setExpandEjc
libQt3Support.so.4:_ZN9Q3GVector12compareItemsEPvS0_
libQt3Support.so.4:_ZN9Q3GVector12insertExpandEjPv
libQt3Support.so.4:_ZN9Q3GVector17warningIndexRangeEj
libQt3Support.so.4:_ZN9Q3GVector4fillEPvi
libQt3Support.so.4:_ZN9Q3GVector4readER11QDataStream
libQt3Support.so.4:_ZN9Q3GVector4readER11QDataStreamRPv
libQt3Support.so.4:_ZN9Q3GVector4sortEv
libQt3Support.so.4:_ZN9Q3GVector4takeEj
libQt3Support.so.4:_ZN9Q3GVector5clearEv
libQt3Support.so.4:_ZN9Q3GVector6insertEjPv
libQt3Support.so.4:_ZN9Q3GVector6removeEj
libQt3Support.so.4:_ZN9Q3GVector6resizeEj
libQt3Support.so.4:_ZN9Q3GVectorC1ERKS_
libQt3Support.so.4:_ZN9Q3GVectorC1Ej
libQt3Support.so.4:_ZN9Q3GVectorC1Ev
libQt3Support.so.4:_ZN9Q3GVectorC2ERKS_
libQt3Support.so.4:_ZN9Q3GVectorC2Ej
libQt3Support.so.4:_ZN9Q3GVectorC2Ev
libQt3Support.so.4:_ZN9Q3GVectorD0Ev
libQt3Support.so.4:_ZN9Q3GVectorD1Ev
libQt3Support.so.4:_ZN9Q3GVectorD2Ev
libQt3Support.so.4:_ZN9Q3GVectoraSERKS_
libQt3Support.so.4:_ZN9Q3ListBox10changeItemEPK13Q3ListBoxItemi
libQt3Support.so.4:_ZN9Q3ListBox10changeItemERK7QPixmapRK7QStringi
libQt3Support.so.4:_ZN9Q3ListBox10changeItemERK7QPixmapi
libQt3Support.so.4:_ZN9Q3ListBox10changeItemERK7QStringi
libQt3Support.so.4:_ZN9Q3ListBox10drawRubberEv
libQt3Support.so.4:_ZN9Q3ListBox10insertItemEPK13Q3ListBoxItemS2_
libQt3Support.so.4:_ZN9Q3ListBox10insertItemEPK13Q3ListBoxItemi
libQt3Support.so.4:_ZN9Q3ListBox10insertItemERK7QPixmapRK7QStringi
libQt3Support.so.4:_ZN9Q3ListBox10insertItemERK7QPixmapi
libQt3Support.so.4:_ZN9Q3ListBox10insertItemERK7QStringi
libQt3Support.so.4:_ZN9Q3ListBox10onViewportEv
libQt3Support.so.4:_ZN9Q3ListBox10removeItemEi
libQt3Support.so.4:_ZN9Q3ListBox10setRowModeENS_10LayoutModeE
libQt3Support.so.4:_ZN9Q3ListBox10setRowModeEi
libQt3Support.so.4:_ZN9Q3ListBox10setTopItemEi
libQt3Support.so.4:_ZN9Q3ListBox10updateItemEP13Q3ListBoxItem
libQt3Support.so.4:_ZN9Q3ListBox10updateItemEi
libQt3Support.so.4:_ZN9Q3ListBox11adjustItemsEv
libQt3Support.so.4:_ZN9Q3ListBox11changeEventEP6QEvent
libQt3Support.so.4:_ZN9Q3ListBox11eventFilterEP7QObjectP6QEvent
libQt3Support.so.4:_ZN9Q3ListBox11highlightedEP13Q3ListBoxItem
libQt3Support.so.4:_ZN9Q3ListBox11highlightedERK7QString
libQt3Support.so.4:_ZN9Q3ListBox11highlightedEi
libQt3Support.so.4:_ZN9Q3ListBox11itemVisibleEPK13Q3ListBoxItem
libQt3Support.so.4:_ZN9Q3ListBox11itemVisibleEi
libQt3Support.so.4:_ZN9Q3ListBox11qt_metacallEN11QMetaObject4CallEiPPv
libQt3Support.so.4:_ZN9Q3ListBox11qt_metacastEPKc
libQt3Support.so.4:_ZN9Q3ListBox11refreshSlotEv
libQt3Support.so.4:_ZN9Q3ListBox11resizeEventEP12QResizeEvent
libQt3Support.so.4:_ZN9Q3ListBox11selectRangeEP13Q3ListBoxItemS1_bbb
libQt3Support.so.4:_ZN9Q3ListBox11setSelectedEP13Q3ListBoxItemb
libQt3Support.so.4:_ZN9Q3ListBox11setSelectedEib
libQt3Support.so.4:_ZN9Q3ListBox12doAutoScrollEv
libQt3Support.so.4:_ZN9Q3ListBox12focusInEventEP11QFocusEvent
libQt3Support.so.4:_ZN9Q3ListBox13doubleClickedEP13Q3ListBoxItem
libQt3Support.so.4:_ZN9Q3ListBox13focusOutEventEP11QFocusEvent
libQt3Support.so.4:_ZN9Q3ListBox13insertStrListEPPKcii
libQt3Support.so.4:_ZN9Q3ListBox13keyPressEventEP9QKeyEvent
libQt3Support.so.4:_ZN9Q3ListBox13returnPressedEP13Q3ListBoxItem
libQt3Support.so.4:_ZN9Q3ListBox13setBottomItemEi
libQt3Support.so.4:_ZN9Q3ListBox13setColumnModeENS_10LayoutModeE
libQt3Support.so.4:_ZN9Q3ListBox13setColumnModeEi
libQt3Support.so.4:_ZN9Q3ListBox13triggerUpdateEb
libQt3Support.so.4:_ZN9Q3ListBox14clearSelectionEv
libQt3Support.so.4:_ZN9Q3ListBox14currentChangedEP13Q3ListBoxItem
libQt3Support.so.4:_ZN9Q3ListBox14mouseMoveEventEP11QMouseEvent
libQt3Support.so.4:_ZN9Q3ListBox14setCurrentItemEP13Q3ListBoxItem
libQt3Support.so.4:_ZN9Q3ListBox14setCurrentItemEi
libQt3Support.so.4:_ZN9Q3ListBox15invertSelectionEv
libQt3Support.so.4:_ZN9Q3ListBox15mousePressEventEP11QMouseEvent
libQt3Support.so.4:_ZN9Q3ListBox15updateSelectionEv
libQt3Support.so.4:_ZN9Q3ListBox16clearInputStringEv
libQt3Support.so.4:_ZN9Q3ListBox16handleItemChangeEP13Q3ListBoxItembb
libQt3Support.so.4:_ZN9Q3ListBox16insertStringListERK11QStringListi
libQt3Support.so.4:_ZN9Q3ListBox16repaintSelectionEv
libQt3Support.so.4:_ZN9Q3ListBox16selectionChangedEP13Q3ListBoxItem
libQt3Support.so.4:_ZN9Q3ListBox16selectionChangedEv
libQt3Support.so.4:_ZN9Q3ListBox16setSelectionModeENS_13SelectionModeE
libQt3Support.so.4:_ZN9Q3ListBox16setVariableWidthEb
libQt3Support.so.4:_ZN9Q3ListBox17doRubberSelectionERK5QRectS2_
libQt3Support.so.4:_ZN9Q3ListBox17emitChangedSignalEb
libQt3Support.so.4:_ZN9Q3ListBox17mousePressEventExEP11QMouseEvent
libQt3Support.so.4:_ZN9Q3ListBox17mouseReleaseEventEP11QMouseEvent
libQt3Support.so.4:_ZN9Q3ListBox17setMultiSelectionEb
libQt3Support.so.4:_ZN9Q3ListBox17setVariableHeightEb
libQt3Support.so.4:_ZN9Q3ListBox17toggleCurrentItemEv
libQt3Support.so.4:_ZN9Q3ListBox18mouseButtonClickedEiP13Q3ListBoxItemRK6QPoint
libQt3Support.so.4:_ZN9Q3ListBox18mouseButtonPressedEiP13Q3ListBoxItemRK6QPoint
libQt3Support.so.4:_ZN9Q3ListBox18rightButtonClickedEP13Q3ListBoxItemRK6QPoint
libQt3Support.so.4:_ZN9Q3ListBox18rightButtonPressedEP13Q3ListBoxItemRK6QPoint
libQt3Support.so.4:_ZN9Q3ListBox18viewportPaintEventEP11QPaintEvent
libQt3Support.so.4:_ZN9Q3ListBox20contextMenuRequestedEP13Q3ListBoxItemRK6QPoint
libQt3Support.so.4:_ZN9Q3ListBox20ensureCurrentVisibleEv
libQt3Support.so.4:_ZN9Q3ListBox21mouseDoubleClickEventEP11QMouseEvent
libQt3Support.so.4:_ZN9Q3ListBox24contentsContextMenuEventEP17QContextMenuEvent
libQt3Support.so.4:_ZN9Q3ListBox4sortEb
libQt3Support.so.4:_ZN9Q3ListBox5clearEv
libQt3Support.so.4:_ZN9Q3ListBox6inSortEPK13Q3ListBoxItem
libQt3Support.so.4:_ZN9Q3ListBox6inSortERK7QString
libQt3Support.so.4:_ZN9Q3ListBox6onItemEP13Q3ListBoxItem
libQt3Support.so.4:_ZN9Q3ListBox7clickedEP13Q3ListBoxItem
libQt3Support.so.4:_ZN9Q3ListBox7clickedEP13Q3ListBoxItemRK6QPoint
libQt3Support.so.4:_ZN9Q3ListBox7pressedEP13Q3ListBoxItem
libQt3Support.so.4:_ZN9Q3ListBox7pressedEP13Q3ListBoxItemRK6QPoint
libQt3Support.so.4:_ZN9Q3ListBox8selectedEP13Q3ListBoxItem
libQt3Support.so.4:_ZN9Q3ListBox8selectedERK7QString
libQt3Support.so.4:_ZN9Q3ListBox8selectedEi
libQt3Support.so.4:_ZN9Q3ListBox8takeItemEPK13Q3ListBoxItem
libQt3Support.so.4:_ZN9Q3ListBox9paintCellEP8QPainterii
libQt3Support.so.4:_ZN9Q3ListBox9selectAllEb
libQt3Support.so.4:_ZN9Q3ListBox9showEventEP10QShowEvent
libQt3Support.so.4:_ZN9Q3ListBoxC1EP7QWidgetPKc6QFlagsIN2Qt10WindowTypeEE
libQt3Support.so.4:_ZN9Q3ListBoxC2EP7QWidgetPKc6QFlagsIN2Qt10WindowTypeEE
libQt3Support.so.4:_ZN9Q3ListBoxD0Ev
libQt3Support.so.4:_ZN9Q3ListBoxD1Ev
libQt3Support.so.4:_ZN9Q3ListBoxD2Ev
libQt3Support.so.4:_ZN9Q3LocalFs11qt_metacallEN11QMetaObject4CallEiPPv
libQt3Support.so.4:_ZN9Q3LocalFs11qt_metacastEPKc
libQt3Support.so.4:_ZN9Q3LocalFs12operationGetEP18Q3NetworkOperation
libQt3Support.so.4:_ZN9Q3LocalFs12operationPutEP18Q3NetworkOperation
libQt3Support.so.4:_ZN9Q3LocalFs14operationMkDirEP18Q3NetworkOperation
libQt3Support.so.4:_ZN9Q3LocalFs15operationRemoveEP18Q3NetworkOperation
libQt3Support.so.4:_ZN9Q3LocalFs15operationRenameEP18Q3NetworkOperation
libQt3Support.so.4:_ZN9Q3LocalFs21operationListChildrenEP18Q3NetworkOperation
libQt3Support.so.4:_ZN9Q3LocalFsC1Ev
libQt3Support.so.4:_ZN9Q3LocalFsC2Ev
libQt3Support.so.4:_ZN9Q3Painter17adjustedRectangleERK5QRect
libQt3Support.so.4:_ZN9Q3Picture4loadEP9QIODevicePKc
libQt3Support.so.4:_ZN9Q3Picture4loadERK7QStringPKc
libQt3Support.so.4:_ZN9Q3Picture4saveEP9QIODevicePKc
libQt3Support.so.4:_ZN9Q3Picture4saveERK7QStringPKc
libQt3Support.so.4:_ZN9Q3Process10closeStdinEv
libQt3Support.so.4:_ZN9Q3Process10flushStdinEv
libQt3Support.so.4:_ZN9Q3Process10readStderrEv
libQt3Support.so.4:_ZN9Q3Process10readStdoutEv
libQt3Support.so.4:_ZN9Q3Process10socketReadEi
libQt3Support.so.4:_ZN9Q3Process11addArgumentERK7QString
libQt3Support.so.4:_ZN9Q3Process11qt_metacallEN11QMetaObject4CallEiPPv
libQt3Support.so.4:_ZN9Q3Process11qt_metacastEPKc
libQt3Support.so.4:_ZN9Q3Process11socketWriteEi
libQt3Support.so.4:_ZN9Q3Process12membufStderrEv
libQt3Support.so.4:_ZN9Q3Process12membufStdoutEv
libQt3Support.so.4:_ZN9Q3Process12setArgumentsERK11QStringList
libQt3Support.so.4:_ZN9Q3Process12writeToStdinERK10QByteArray
libQt3Support.so.4:_ZN9Q3Process12writeToStdinERK7QString
libQt3Support.so.4:_ZN9Q3Process12wroteToStdinEv
libQt3Support.so.4:_ZN9Q3Process13connectNotifyEPKc
libQt3Support.so.4:_ZN9Q3Process13processExitedEv
libQt3Support.so.4:_ZN9Q3Process14clearArgumentsEv
libQt3Support.so.4:_ZN9Q3Process14launchFinishedEv
libQt3Support.so.4:_ZN9Q3Process14readLineStderrEv
libQt3Support.so.4:_ZN9Q3Process14readLineStdoutEv
libQt3Support.so.4:_ZN9Q3Process15readyReadStderrEv
libQt3Support.so.4:_ZN9Q3Process15readyReadStdoutEv
libQt3Support.so.4:_ZN9Q3Process15setNotifyOnExitEb
libQt3Support.so.4:_ZN9Q3Process16closeStdinLaunchEv
libQt3Support.so.4:_ZN9Q3Process16disconnectNotifyEPKc
libQt3Support.so.4:_ZN9Q3Process16setCommunicationEi
libQt3Support.so.4:_ZN9Q3Process16setIoRedirectionEb
libQt3Support.so.4:_ZN9Q3Process17processIdentifierEv
libQt3Support.so.4:_ZN9Q3Process19setWorkingDirectoryERK4QDir
libQt3Support.so.4:_ZN9Q3Process22setWroteStdinConnectedEb
libQt3Support.so.4:_ZN9Q3Process4initEv
libQt3Support.so.4:_ZN9Q3Process5resetEv
libQt3Support.so.4:_ZN9Q3Process5startEP11QStringList
libQt3Support.so.4:_ZN9Q3Process6launchERK10QByteArrayP11QStringList
libQt3Support.so.4:_ZN9Q3Process6launchERK7QStringP11QStringList
libQt3Support.so.4:_ZN9Q3Process7timeoutEv
libQt3Support.so.4:_ZN9Q3ProcessC1EP7QObjectPKc
libQt3Support.so.4:_ZN9Q3ProcessC1ERK11QStringListP7QObjectPKc
libQt3Support.so.4:_ZN9Q3ProcessC1ERK7QStringP7QObjectPKc
libQt3Support.so.4:_ZN9Q3ProcessC2EP7QObjectPKc
libQt3Support.so.4:_ZN9Q3ProcessC2ERK11QStringListP7QObjectPKc
libQt3Support.so.4:_ZN9Q3ProcessC2ERK7QStringP7QObjectPKc
libQt3Support.so.4:_ZN9Q3ProcessD0Ev
libQt3Support.so.4:_ZN9Q3ProcessD1Ev
libQt3Support.so.4:_ZN9Q3ProcessD2Ev
libQt3Support.so.4:_ZN9Q3SqlForm10readFieldsEv
libQt3Support.so.4:_ZN9Q3SqlForm10writeFieldEP7QWidget
libQt3Support.so.4:_ZN9Q3SqlForm11clearValuesEv
libQt3Support.so.4:_ZN9Q3SqlForm11qt_metacallEN11QMetaObject4CallEiPPv
libQt3Support.so.4:_ZN9Q3SqlForm11qt_metacastEPKc
libQt3Support.so.4:_ZN9Q3SqlForm11writeFieldsEv
libQt3Support.so.4:_ZN9Q3SqlForm18installPropertyMapEP16Q3SqlPropertyMap
libQt3Support.so.4:_ZN9Q3SqlForm4syncEv
libQt3Support.so.4:_ZN9Q3SqlForm5clearEv
libQt3Support.so.4:_ZN9Q3SqlForm6insertEP7QWidgetP9QSqlField
libQt3Support.so.4:_ZN9Q3SqlForm6insertEP7QWidgetRK7QString
libQt3Support.so.4:_ZN9Q3SqlForm6removeEP7QWidget
libQt3Support.so.4:_ZN9Q3SqlForm6removeERK7QString
libQt3Support.so.4:_ZN9Q3SqlForm8clearMapEv
libQt3Support.so.4:_ZN9Q3SqlForm9readFieldEP7QWidget
libQt3Support.so.4:_ZN9Q3SqlForm9setRecordEP10QSqlRecord
libQt3Support.so.4:_ZN9Q3SqlFormC1EP7QObject
libQt3Support.so.4:_ZN9Q3SqlFormC2EP7QObject
libQt3Support.so.4:_ZN9Q3SqlFormD0Ev
libQt3Support.so.4:_ZN9Q3SqlFormD1Ev
libQt3Support.so.4:_ZN9Q3SqlFormD2Ev
libQt3Support.so.4:_ZN9Q3ToolBar10setVisibleEb
libQt3Support.so.4:_ZN9Q3ToolBar11actionEventEP12QActionEvent
libQt3Support.so.4:_ZN9Q3ToolBar11createPopupEv
libQt3Support.so.4:_ZN9Q3ToolBar11qt_metacallEN11QMetaObject4CallEiPPv
libQt3Support.so.4:_ZN9Q3ToolBar11qt_metacastEPKc
libQt3Support.so.4:_ZN9Q3ToolBar11resizeEventEP12QResizeEvent
libQt3Support.so.4:_ZN9Q3ToolBar11styleChangeER6QStyle
libQt3Support.so.4:_ZN9Q3ToolBar12addSeparatorEv
libQt3Support.so.4:_ZN9Q3ToolBar14setMinimumSizeEii
libQt3Support.so.4:_ZN9Q3ToolBar14setOrientationEN2Qt11OrientationE
libQt3Support.so.4:_ZN9Q3ToolBar17checkForExtensionERK5QSize
libQt3Support.so.4:_ZN9Q3ToolBar20setStretchableWidgetEP7QWidget
libQt3Support.so.4:_ZN9Q3ToolBar4initEv
libQt3Support.so.4:_ZN9Q3ToolBar5clearEv
libQt3Support.so.4:_ZN9Q3ToolBar5eventEP6QEvent
libQt3Support.so.4:_ZN9Q3ToolBar8setLabelERK7QString
libQt3Support.so.4:_ZN9Q3ToolBarC1EP12Q3MainWindowPKc
libQt3Support.so.4:_ZN9Q3ToolBarC1ERK7QStringP12Q3MainWindowN2Qt4DockEbPKc
libQt3Support.so.4:_ZN9Q3ToolBarC1ERK7QStringP12Q3MainWindowP7QWidgetbPKc6QFlagsIN2Qt10WindowTypeEE
libQt3Support.so.4:_ZN9Q3ToolBarC2EP12Q3MainWindowPKc
libQt3Support.so.4:_ZN9Q3ToolBarC2ERK7QStringP12Q3MainWindowN2Qt4DockEbPKc
libQt3Support.so.4:_ZN9Q3ToolBarC2ERK7QStringP12Q3MainWindowP7QWidgetbPKc6QFlagsIN2Qt10WindowTypeEE
libQt3Support.so.4:_ZN9Q3ToolBarD0Ev
libQt3Support.so.4:_ZN9Q3ToolBarD1Ev
libQt3Support.so.4:_ZN9Q3ToolBarD2Ev
libQt3Support.so.4:_ZN9Q3UriDrag11qt_metacallEN11QMetaObject4CallEiPPv
libQt3Support.so.4:_ZN9Q3UriDrag11qt_metacastEPKc
libQt3Support.so.4:_ZN9Q3UriDrag12setFileNamesERK11QStringList
libQt3Support.so.4:_ZN9Q3UriDrag14localFileToUriERK7QString
libQt3Support.so.4:_ZN9Q3UriDrag14setUnicodeUrisERK11QStringList
libQt3Support.so.4:_ZN9Q3UriDrag14uriToLocalFileEPKc
libQt3Support.so.4:_ZN9Q3UriDrag15unicodeUriToUriERK7QString
libQt3Support.so.4:_ZN9Q3UriDrag15uriToUnicodeUriEPKc
libQt3Support.so.4:_ZN9Q3UriDrag16decodeLocalFilesEPK11QMimeSourceR11QStringList
libQt3Support.so.4:_ZN9Q3UriDrag19decodeToUnicodeUrisEPK11QMimeSourceR11QStringList
libQt3Support.so.4:_ZN9Q3UriDrag6decodeEPK11QMimeSourceR9Q3StrList
libQt3Support.so.4:_ZN9Q3UriDrag7setUrisERK5QListI10QByteArrayE
libQt3Support.so.4:_ZN9Q3UriDrag9canDecodeEPK11QMimeSource
libQt3Support.so.4:_ZN9Q3UriDragC1EP7QWidgetPKc
libQt3Support.so.4:_ZN9Q3UriDragC1ERK9Q3StrListP7QWidgetPKc
libQt3Support.so.4:_ZN9Q3UriDragC2EP7QWidgetPKc
libQt3Support.so.4:_ZN9Q3UriDragC2ERK9Q3StrListP7QWidgetPKc
libQt3Support.so.4:_ZN9Q3UriDragD0Ev
libQt3Support.so.4:_ZN9Q3UriDragD1Ev
libQt3Support.so.4:_ZN9Q3UriDragD2Ev
libQt3Support.so.4:_ZNK10Q3ComboBox10autoResizeEv
libQt3Support.so.4:_ZNK10Q3ComboBox10metaObjectEv
libQt3Support.so.4:_ZNK10Q3ComboBox11currentItemEv
libQt3Support.so.4:_ZNK10Q3ComboBox11currentTextEv
libQt3Support.so.4:_ZNK10Q3ComboBox14autoCompletionEv
libQt3Support.so.4:_ZNK10Q3ComboBox15completionIndexERK7QStringi
libQt3Support.so.4:_ZNK10Q3ComboBox15insertionPolicyEv
libQt3Support.so.4:_ZNK10Q3ComboBox17duplicatesEnabledEv
libQt3Support.so.4:_ZNK10Q3ComboBox4textEi
libQt3Support.so.4:_ZNK10Q3ComboBox5countEv
libQt3Support.so.4:_ZNK10Q3ComboBox6pixmapEi
libQt3Support.so.4:_ZNK10Q3ComboBox7listBoxEv
libQt3Support.so.4:_ZNK10Q3ComboBox8editableEv
libQt3Support.so.4:_ZNK10Q3ComboBox8lineEditEv
libQt3Support.so.4:_ZNK10Q3ComboBox8maxCountEv
libQt3Support.so.4:_ZNK10Q3ComboBox8sizeHintEv
libQt3Support.so.4:_ZNK10Q3ComboBox9sizeLimitEv
libQt3Support.so.4:_ZNK10Q3ComboBox9validatorEv
libQt3Support.so.4:_ZNK10Q3DataView10metaObjectEv
libQt3Support.so.4:_ZNK10Q3DateEdit10metaObjectEv
libQt3Support.so.4:_ZNK10Q3DateEdit10outOfRangeEiii
libQt3Support.so.4:_ZNK10Q3DateEdit11autoAdvanceEv
libQt3Support.so.4:_ZNK10Q3DateEdit11sectionTextEi
libQt3Support.so.4:_ZNK10Q3DateEdit13sectionLengthEi
libQt3Support.so.4:_ZNK10Q3DateEdit15minimumSizeHintEv
libQt3Support.so.4:_ZNK10Q3DateEdit16sectionOffsetEndEi
libQt3Support.so.4:_ZNK10Q3DateEdit4dateEv
libQt3Support.so.4:_ZNK10Q3DateEdit5orderEv
libQt3Support.so.4:_ZNK10Q3DateEdit8maxValueEv
libQt3Support.so.4:_ZNK10Q3DateEdit8minValueEv
libQt3Support.so.4:_ZNK10Q3DateEdit8sizeHintEv
libQt3Support.so.4:_ZNK10Q3DateEdit9separatorEv
libQt3Support.so.4:_ZNK10Q3DockArea10metaObjectEv
libQt3Support.so.4:_ZNK10Q3DockArea14dockWindowListEv
libQt3Support.so.4:_ZNK10Q3DockArea5countEv
libQt3Support.so.4:_ZNK10Q3DockArea7isEmptyEv
libQt3Support.so.4:_ZNK10Q3GridView10metaObjectEv
libQt3Support.so.4:_ZNK10Q3GroupBox10frameShapeEv
libQt3Support.so.4:_ZNK10Q3GroupBox10frameStyleEv
libQt3Support.so.4:_ZNK10Q3GroupBox10frameWidthEv
libQt3Support.so.4:_ZNK10Q3GroupBox10metaObjectEv
libQt3Support.so.4:_ZNK10Q3GroupBox11frameShadowEv
libQt3Support.so.4:_ZNK10Q3GroupBox11orientationEv
libQt3Support.so.4:_ZNK10Q3GroupBox12insideMarginEv
libQt3Support.so.4:_ZNK10Q3GroupBox12midLineWidthEv
libQt3Support.so.4:_ZNK10Q3GroupBox13insideSpacingEv
libQt3Support.so.4:_ZNK10Q3GroupBox7columnsEv
libQt3Support.so.4:_ZNK10Q3GroupBox9frameRectEv
libQt3Support.so.4:_ZNK10Q3GroupBox9lineWidthEv
libQt3Support.so.4:_ZNK10Q3IconDrag10metaObjectEv
libQt3Support.so.4:_ZNK10Q3IconDrag11encodedDataEPKc
libQt3Support.so.4:_ZNK10Q3IconDrag6formatEi
libQt3Support.so.4:_ZNK10Q3IconView10isRenamingEv
libQt3Support.so.4:_ZNK10Q3IconView10metaObjectEv
libQt3Support.so.4:_ZNK10Q3IconView10resizeModeEv
libQt3Support.so.4:_ZNK10Q3IconView11arrangementEv
libQt3Support.so.4:_ZNK10Q3IconView11autoArrangeEv
libQt3Support.so.4:_ZNK10Q3IconView11calcGridNumEii
libQt3Support.so.4:_ZNK10Q3IconView11currentItemEv
libQt3Support.so.4:_ZNK10Q3IconView11itemTextPosEv
libQt3Support.so.4:_ZNK10Q3IconView12itemsMovableEv
libQt3Support.so.4:_ZNK10Q3IconView12maxItemWidthEv
libQt3Support.so.4:_ZNK10Q3IconView12showToolTipsEv
libQt3Support.so.4:_ZNK10Q3IconView13neighbourItemENS_9DirectionERK6QPointPK14Q3IconViewItem
libQt3Support.so.4:_ZNK10Q3IconView13selectionModeEv
libQt3Support.so.4:_ZNK10Q3IconView13sortDirectionEv
libQt3Support.so.4:_ZNK10Q3IconView15minimumSizeHintEv
libQt3Support.so.4:_ZNK10Q3IconView16inputMethodQueryEN2Qt16InputMethodQueryE
libQt3Support.so.4:_ZNK10Q3IconView16wordWrapIconTextEv
libQt3Support.so.4:_ZNK10Q3IconView17maxItemTextLengthEv
libQt3Support.so.4:_ZNK10Q3IconView18itemTextBackgroundEv
libQt3Support.so.4:_ZNK10Q3IconView19findLastVisibleItemERK5QRect
libQt3Support.so.4:_ZNK10Q3IconView20findFirstVisibleItemERK5QRect
libQt3Support.so.4:_ZNK10Q3IconView4maskEP7QPixmap
libQt3Support.so.4:_ZNK10Q3IconView5countEv
libQt3Support.so.4:_ZNK10Q3IconView5gridXEv
libQt3Support.so.4:_ZNK10Q3IconView5gridYEv
libQt3Support.so.4:_ZNK10Q3IconView5indexEPK14Q3IconViewItem
libQt3Support.so.4:_ZNK10Q3IconView7sortingEv
libQt3Support.so.4:_ZNK10Q3IconView7spacingEv
libQt3Support.so.4:_ZNK10Q3IconView8findItemENS_9DirectionERK6QPointRK5QRect
libQt3Support.so.4:_ZNK10Q3IconView8findItemERK6QPoint
libQt3Support.so.4:_ZNK10Q3IconView8findItemERK7QStringj
libQt3Support.so.4:_ZNK10Q3IconView8lastItemEv
libQt3Support.so.4:_ZNK10Q3IconView8rowBeginEP14Q3IconViewItem
libQt3Support.so.4:_ZNK10Q3IconView8sizeHintEv
libQt3Support.so.4:_ZNK10Q3IconView9firstItemEv
libQt3Support.so.4:_ZNK10Q3ListView10childCountEv
libQt3Support.so.4:_ZNK10Q3ListView10columnTextEi
libQt3Support.so.4:_ZNK10Q3ListView10firstChildEv
libQt3Support.so.4:_ZNK10Q3ListView10isRenamingEv
libQt3Support.so.4:_ZNK10Q3ListView10isSelectedEPK14Q3ListViewItem
libQt3Support.so.4:_ZNK10Q3ListView10itemMarginEv
libQt3Support.so.4:_ZNK10Q3ListView10metaObjectEv
libQt3Support.so.4:_ZNK10Q3ListView10resizeModeEv
libQt3Support.so.4:_ZNK10Q3ListView10sortColumnEv
libQt3Support.so.4:_ZNK10Q3ListView11columnWidthEi
libQt3Support.so.4:_ZNK10Q3ListView11currentItemEv
libQt3Support.so.4:_ZNK10Q3ListView11repaintItemEPK14Q3ListViewItem
libQt3Support.so.4:_ZNK10Q3ListView12selectedItemEv
libQt3Support.so.4:_ZNK10Q3ListView12showToolTipsEv
libQt3Support.so.4:_ZNK10Q3ListView12treeStepSizeEv
libQt3Support.so.4:_ZNK10Q3ListView13selectionModeEv
libQt3Support.so.4:_ZNK10Q3ListView15columnAlignmentEi
libQt3Support.so.4:_ZNK10Q3ListView15columnWidthModeEi
libQt3Support.so.4:_ZNK10Q3ListView15minimumSizeHintEv
libQt3Support.so.4:_ZNK10Q3ListView15rootIsDecoratedEv
libQt3Support.so.4:_ZNK10Q3ListView16inputMethodQueryEN2Qt16InputMethodQueryE
libQt3Support.so.4:_ZNK10Q3ListView16isMultiSelectionEv
libQt3Support.so.4:_ZNK10Q3ListView17buildDrawableListEv
libQt3Support.so.4:_ZNK10Q3ListView17showSortIndicatorEv
libQt3Support.so.4:_ZNK10Q3ListView19allColumnsShowFocusEv
libQt3Support.so.4:_ZNK10Q3ListView19defaultRenameActionEv
libQt3Support.so.4:_ZNK10Q3ListView6headerEv
libQt3Support.so.4:_ZNK10Q3ListView6isOpenEPK14Q3ListViewItem
libQt3Support.so.4:_ZNK10Q3ListView6itemAtERK6QPoint
libQt3Support.so.4:_ZNK10Q3ListView7columnsEv
libQt3Support.so.4:_ZNK10Q3ListView8findItemERK7QStringij
libQt3Support.so.4:_ZNK10Q3ListView8itemRectEPK14Q3ListViewItem
libQt3Support.so.4:_ZNK10Q3ListView8lastItemEv
libQt3Support.so.4:_ZNK10Q3ListView8sizeHintEv
libQt3Support.so.4:_ZNK10Q3ListView9sortOrderEv
libQt3Support.so.4:_ZNK10Q3TextDrag10metaObjectEv
libQt3Support.so.4:_ZNK10Q3TextDrag11encodedDataEPKc
libQt3Support.so.4:_ZNK10Q3TextDrag6formatEi
libQt3Support.so.4:_ZNK10Q3TextEdit10dragObjectEP7QWidget
libQt3Support.so.4:_ZNK10Q3TextEdit10isModifiedEv
libQt3Support.so.4:_ZNK10Q3TextEdit10metaObjectEv
libQt3Support.so.4:_ZNK10Q3TextEdit10paragraphsEv
libQt3Support.so.4:_ZNK10Q3TextEdit10styleSheetEv
libQt3Support.so.4:_ZNK10Q3TextEdit10textFormatEv
libQt3Support.so.4:_ZNK10Q3TextEdit10wrapPolicyEv
libQt3Support.so.4:_ZNK10Q3TextEdit11currentFontEv
libQt3Support.so.4:_ZNK10Q3TextEdit11maxLogLinesEv
libQt3Support.so.4:_ZNK10Q3TextEdit11paragraphAtERK6QPoint
libQt3Support.so.4:_ZNK10Q3TextEdit12UndoRedoInfo5validEv
libQt3Support.so.4:_ZNK10Q3TextEdit12getSelectionEPiS0_S0_S0_i
libQt3Support.so.4:_ZNK10Q3TextEdit12selectedTextEv
libQt3Support.so.4:_ZNK10Q3TextEdit12tabStopWidthEv
libQt3Support.so.4:_ZNK10Q3TextEdit13documentTitleEv
libQt3Support.so.4:_ZNK10Q3TextEdit13linkUnderlineEv
libQt3Support.so.4:_ZNK10Q3TextEdit13paragraphRectEi
libQt3Support.so.4:_ZNK10Q3TextEdit14autoFormattingEv
libQt3Support.so.4:_ZNK10Q3TextEdit14heightForWidthEi
libQt3Support.so.4:_ZNK10Q3TextEdit14optimCharIndexERK7QStringi
libQt3Support.so.4:_ZNK10Q3TextEdit15hasSelectedTextEv
libQt3Support.so.4:_ZNK10Q3TextEdit15isRedoAvailableEv
libQt3Support.so.4:_ZNK10Q3TextEdit15isUndoAvailableEv
libQt3Support.so.4:_ZNK10Q3TextEdit15paragraphLengthEi
libQt3Support.so.4:_ZNK10Q3TextEdit15tabChangesFocusEv
libQt3Support.so.4:_ZNK10Q3TextEdit16inputMethodQueryEN2Qt16InputMethodQueryE
libQt3Support.so.4:_ZNK10Q3TextEdit16linesOfParagraphEi
libQt3Support.so.4:_ZNK10Q3TextEdit17getCursorPositionEPiS0_
libQt3Support.so.4:_ZNK10Q3TextEdit17isUndoRedoEnabledEv
libQt3Support.so.4:_ZNK10Q3TextEdit17mimeSourceFactoryEv
libQt3Support.so.4:_ZNK10Q3TextEdit17optimHasSelectionEv
libQt3Support.so.4:_ZNK10Q3TextEdit17optimSelectedTextEv
libQt3Support.so.4:_ZNK10Q3TextEdit17syntaxHighlighterEv
libQt3Support.so.4:_ZNK10Q3TextEdit17verticalAlignmentEv
libQt3Support.so.4:_ZNK10Q3TextEdit17wrapColumnOrWidthEv
libQt3Support.so.4:_ZNK10Q3TextEdit24paragraphBackgroundColorEi
libQt3Support.so.4:_ZNK10Q3TextEdit4boldEv
libQt3Support.so.4:_ZNK10Q3TextEdit4fontEv
libQt3Support.so.4:_ZNK10Q3TextEdit4textEi
libQt3Support.so.4:_ZNK10Q3TextEdit4textEv
libQt3Support.so.4:_ZNK10Q3TextEdit5colorEv
libQt3Support.so.4:_ZNK10Q3TextEdit5linesEv
libQt3Support.so.4:_ZNK10Q3TextEdit5paperEv
libQt3Support.so.4:_ZNK10Q3TextEdit6charAtERK6QPointPi
libQt3Support.so.4:_ZNK10Q3TextEdit6familyEv
libQt3Support.so.4:_ZNK10Q3TextEdit6italicEv
libQt3Support.so.4:_ZNK10Q3TextEdit6lengthEv
libQt3Support.so.4:_ZNK10Q3TextEdit7contextEv
libQt3Support.so.4:_ZNK10Q3TextEdit8sizeHintEv
libQt3Support.so.4:_ZNK10Q3TextEdit8wordWrapEv
libQt3Support.so.4:_ZNK10Q3TextEdit9alignmentEv
libQt3Support.so.4:_ZNK10Q3TextEdit9optimTextEv
libQt3Support.so.4:_ZNK10Q3TextEdit9pointSizeEv
libQt3Support.so.4:_ZNK10Q3TextEdit9underlineEv
libQt3Support.so.4:_ZNK10Q3TextEdit9undoDepthEv
libQt3Support.so.4:_ZNK10Q3TextFlow12boundingRectEv
libQt3Support.so.4:_ZNK10Q3TextView10metaObjectEv
libQt3Support.so.4:_ZNK10Q3TimeEdit10metaObjectEv
libQt3Support.so.4:_ZNK10Q3TimeEdit10outOfRangeEiii
libQt3Support.so.4:_ZNK10Q3TimeEdit11autoAdvanceEv
libQt3Support.so.4:_ZNK10Q3TimeEdit15minimumSizeHintEv
libQt3Support.so.4:_ZNK10Q3TimeEdit4timeEv
libQt3Support.so.4:_ZNK10Q3TimeEdit7displayEv
libQt3Support.so.4:_ZNK10Q3TimeEdit8maxValueEv
libQt3Support.so.4:_ZNK10Q3TimeEdit8minValueEv
libQt3Support.so.4:_ZNK10Q3TimeEdit8sizeHintEv
libQt3Support.so.4:_ZNK10Q3TimeEdit9separatorEv
libQt3Support.so.4:_ZNK10Q3TitleBar10metaObjectEv
libQt3Support.so.4:_ZNK10Q3TitleBar14getStyleOptionEv
libQt3Support.so.4:_ZNK10Q3TitleBar15fakeWindowFlagsEv
libQt3Support.so.4:_ZNK10Q3TitleBar15usesActiveColorEv
libQt3Support.so.4:_ZNK10Q3TitleBar6isToolEv
libQt3Support.so.4:_ZNK10Q3TitleBar6windowEv
libQt3Support.so.4:_ZNK10Q3TitleBar8isActiveEv
libQt3Support.so.4:_ZNK10Q3TitleBar8sizeHintEv
libQt3Support.so.4:_ZNK10Q3TitleBar9autoRaiseEv
libQt3Support.so.4:_ZNK10Q3TitleBar9isMovableEv
libQt3Support.so.4:_ZNK11Q3ColorDrag10metaObjectEv
libQt3Support.so.4:_ZNK11Q3DataTable10autoDeleteEv
libQt3Support.so.4:_ZNK11Q3DataTable10dateFormatEv
libQt3Support.so.4:_ZNK11Q3DataTable10metaObjectEv
libQt3Support.so.4:_ZNK11Q3DataTable12confirmEditsEv
libQt3Support.so.4:_ZNK11Q3DataTable12createEditorEiib
libQt3Support.so.4:_ZNK11Q3DataTable13confirmDeleteEv
libQt3Support.so.4:_ZNK11Q3DataTable13confirmInsertEv
libQt3Support.so.4:_ZNK11Q3DataTable13confirmUpdateEv
libQt3Support.so.4:_ZNK11Q3DataTable13currentRecordEv
libQt3Support.so.4:_ZNK11Q3DataTable14confirmCancelsEv
libQt3Support.so.4:_ZNK11Q3DataTable4itemEii
libQt3Support.so.4:_ZNK11Q3DataTable4sortEv
libQt3Support.so.4:_ZNK11Q3DataTable4textEii
libQt3Support.so.4:_ZNK11Q3DataTable5valueEii
libQt3Support.so.4:_ZNK11Q3DataTable6filterEv
libQt3Support.so.4:_ZNK11Q3DataTable7indexOfEj
libQt3Support.so.4:_ZNK11Q3DataTable7numColsEv
libQt3Support.so.4:_ZNK11Q3DataTable7numRowsEv
libQt3Support.so.4:_ZNK11Q3DataTable8autoEditEv
libQt3Support.so.4:_ZNK11Q3DataTable8nullTextEv
libQt3Support.so.4:_ZNK11Q3DataTable8trueTextEv
libQt3Support.so.4:_ZNK11Q3DataTable9falseTextEv
libQt3Support.so.4:_ZNK11Q3DataTable9sqlCursorEv
libQt3Support.so.4:_ZNK11Q3HGroupBox10metaObjectEv
libQt3Support.so.4:_ZNK11Q3ImageDrag10metaObjectEv
libQt3Support.so.4:_ZNK11Q3ImageDrag11encodedDataEPKc
libQt3Support.so.4:_ZNK11Q3ImageDrag6formatEi
libQt3Support.so.4:_ZNK11Q3PopupMenu10metaObjectEv
libQt3Support.so.4:_ZNK11Q3Semaphore5totalEv
libQt3Support.so.4:_ZNK11Q3Semaphore9availableEv
libQt3Support.so.4:_ZNK11Q3SqlCursor10isReadOnlyEv
libQt3Support.so.4:_ZNK11Q3SqlCursor12isCalculatedERK7QString
libQt3Support.so.4:_ZNK11Q3SqlCursor12primaryIndexEb
libQt3Support.so.4:_ZNK11Q3SqlCursor4modeEv
libQt3Support.so.4:_ZNK11Q3SqlCursor4nameEv
libQt3Support.so.4:_ZNK11Q3SqlCursor4sortEv
libQt3Support.so.4:_ZNK11Q3SqlCursor5indexERK11QStringList
libQt3Support.so.4:_ZNK11Q3SqlCursor5indexERK7QString
libQt3Support.so.4:_ZNK11Q3SqlCursor5valueEi
libQt3Support.so.4:_ZNK11Q3SqlCursor6filterEv
libQt3Support.so.4:_ZNK11Q3SqlCursor6isNullERK7QString
libQt3Support.so.4:_ZNK11Q3SqlCursor6isNullEi
libQt3Support.so.4:_ZNK11Q3SqlCursor8toStringEP10QSqlRecordRK7QStringS4_S4_
libQt3Support.so.4:_ZNK11Q3SqlCursor8toStringERK7QStringP9QSqlFieldS2_
libQt3Support.so.4:_ZNK11Q3SqlCursor8toStringERK7QStringS2_
libQt3Support.so.4:_ZNK11Q3SqlCursor8toStringERK9QSqlIndexP10QSqlRecordRK7QStringS7_S7_
libQt3Support.so.4:_ZNK11Q3SqlCursor9canDeleteEv
libQt3Support.so.4:_ZNK11Q3SqlCursor9canInsertEv
libQt3Support.so.4:_ZNK11Q3SqlCursor9canUpdateEv
libQt3Support.so.4:_ZNK11Q3SqlCursor9isTrimmedERK7QString
libQt3Support.so.4:_ZNK11Q3TabDialog10metaObjectEv
libQt3Support.so.4:_ZNK11Q3TabDialog11currentPageEv
libQt3Support.so.4:_ZNK11Q3TabDialog11hasOkButtonEv
libQt3Support.so.4:_ZNK11Q3TabDialog12isTabEnabledEP7QWidget
libQt3Support.so.4:_ZNK11Q3TabDialog12isTabEnabledEPKc
libQt3Support.so.4:_ZNK11Q3TabDialog13hasHelpButtonEv
libQt3Support.so.4:_ZNK11Q3TabDialog14hasApplyButtonEv
libQt3Support.so.4:_ZNK11Q3TabDialog15hasCancelButtonEv
libQt3Support.so.4:_ZNK11Q3TabDialog16hasDefaultButtonEv
libQt3Support.so.4:_ZNK11Q3TabDialog6tabBarEv
libQt3Support.so.4:_ZNK11Q3TableItem12createEditorEv
libQt3Support.so.4:_ZNK11Q3TableItem13isReplaceableEv
libQt3Support.so.4:_ZNK11Q3TableItem3colEv
libQt3Support.so.4:_ZNK11Q3TableItem3keyEv
libQt3Support.so.4:_ZNK11Q3TableItem3rowEv
libQt3Support.so.4:_ZNK11Q3TableItem4rttiEv
libQt3Support.so.4:_ZNK11Q3TableItem4textEv
libQt3Support.so.4:_ZNK11Q3TableItem6pixmapEv
libQt3Support.so.4:_ZNK11Q3TableItem7colSpanEv
libQt3Support.so.4:_ZNK11Q3TableItem7rowSpanEv
libQt3Support.so.4:_ZNK11Q3TableItem8editTypeEv
libQt3Support.so.4:_ZNK11Q3TableItem8sizeHintEv
libQt3Support.so.4:_ZNK11Q3TableItem8wordWrapEv
libQt3Support.so.4:_ZNK11Q3TableItem9alignmentEv
libQt3Support.so.4:_ZNK11Q3TableItem9isEnabledEv
libQt3Support.so.4:_ZNK11Q3TextImage8richTextEv
libQt3Support.so.4:_ZNK11Q3TextTable12minimumWidthEv
libQt3Support.so.4:_ZNK11Q3TextTable8richTextEv
libQt3Support.so.4:_ZNK11Q3VGroupBox10metaObjectEv
libQt3Support.so.4:_ZNK11Q3WhatsThis10metaObjectEv
libQt3Support.so.4:_ZNK12Q3CanvasItem10collisionsEb
libQt3Support.so.4:_ZNK12Q3CanvasItem20boundingRectAdvancedEv
libQt3Support.so.4:_ZNK12Q3CanvasItem4rttiEv
libQt3Support.so.4:_ZNK12Q3CanvasItem6chunksEv
libQt3Support.so.4:_ZNK12Q3CanvasItem8animatedEv
libQt3Support.so.4:_ZNK12Q3CanvasItem9xVelocityEv
libQt3Support.so.4:_ZNK12Q3CanvasItem9yVelocityEv
libQt3Support.so.4:_ZNK12Q3CanvasLine10areaPointsEv
libQt3Support.so.4:_ZNK12Q3CanvasLine4rttiEv
libQt3Support.so.4:_ZNK12Q3CanvasText12boundingRectEv
libQt3Support.so.4:_ZNK12Q3CanvasText12collidesWithEPK12Q3CanvasItem
libQt3Support.so.4:_ZNK12Q3CanvasText12collidesWithEPK14Q3CanvasSpritePK21Q3CanvasPolygonalItemPK17Q3CanvasRectanglePK15Q3CanvasEllipsePKS_
libQt3Support.so.4:_ZNK12Q3CanvasText4fontEv
libQt3Support.so.4:_ZNK12Q3CanvasText4rttiEv
libQt3Support.so.4:_ZNK12Q3CanvasText4textEv
libQt3Support.so.4:_ZNK12Q3CanvasText5colorEv
libQt3Support.so.4:_ZNK12Q3CanvasView10metaObjectEv
libQt3Support.so.4:_ZNK12Q3CanvasView11worldMatrixEv
libQt3Support.so.4:_ZNK12Q3CanvasView18inverseWorldMatrixEv
libQt3Support.so.4:_ZNK12Q3CanvasView8sizeHintEv
libQt3Support.so.4:_ZNK12Q3DockWindow10metaObjectEv
libQt3Support.so.4:_ZNK12Q3DockWindow11fixedExtentEv
libQt3Support.so.4:_ZNK12Q3DockWindow11minimumSizeEv
libQt3Support.so.4:_ZNK12Q3DockWindow11orientationEv
libQt3Support.so.4:_ZNK12Q3DockWindow11windowTitleEv
libQt3Support.so.4:_ZNK12Q3DockWindow12opaqueMovingEv
libQt3Support.so.4:_ZNK12Q3DockWindow13isStretchableEv
libQt3Support.so.4:_ZNK12Q3DockWindow14isCloseEnabledEv
libQt3Support.so.4:_ZNK12Q3DockWindow15isMovingEnabledEv
libQt3Support.so.4:_ZNK12Q3DockWindow15isResizeEnabledEv
libQt3Support.so.4:_ZNK12Q3DockWindow15minimumSizeHintEv
libQt3Support.so.4:_ZNK12Q3DockWindow23isVerticallyStretchableEv
libQt3Support.so.4:_ZNK12Q3DockWindow25isHorizontallyStretchableEv
libQt3Support.so.4:_ZNK12Q3DockWindow6offsetEv
libQt3Support.so.4:_ZNK12Q3DockWindow6widgetEv
libQt3Support.so.4:_ZNK12Q3DockWindow7newLineEv
libQt3Support.so.4:_ZNK12Q3DockWindow8sizeHintEv
libQt3Support.so.4:_ZNK12Q3DockWindow9closeModeEv
libQt3Support.so.4:_ZNK12Q3DragObject10metaObjectEv
libQt3Support.so.4:_ZNK12Q3DragObject13pixmapHotSpotEv
libQt3Support.so.4:_ZNK12Q3DragObject6pixmapEv
libQt3Support.so.4:_ZNK12Q3FileDialog10metaObjectEv
libQt3Support.so.4:_ZNK12Q3FileDialog11previewModeEv
libQt3Support.so.4:_ZNK12Q3FileDialog12selectedFileEv
libQt3Support.so.4:_ZNK12Q3FileDialog13selectedFilesEv
libQt3Support.so.4:_ZNK12Q3FileDialog14selectedFilterEv
libQt3Support.so.4:_ZNK12Q3FileDialog15showHiddenFilesEv
libQt3Support.so.4:_ZNK12Q3FileDialog20isInfoPreviewEnabledEv
libQt3Support.so.4:_ZNK12Q3FileDialog24isContentsPreviewEnabledEv
libQt3Support.so.4:_ZNK12Q3FileDialog3dirEv
libQt3Support.so.4:_ZNK12Q3FileDialog3urlEv
libQt3Support.so.4:_ZNK12Q3FileDialog4modeEv
libQt3Support.so.4:_ZNK12Q3FileDialog7dirPathEv
libQt3Support.so.4:_ZNK12Q3FileDialog8viewModeEv
libQt3Support.so.4:_ZNK12Q3HttpHeader11contentTypeEv
libQt3Support.so.4:_ZNK12Q3HttpHeader13contentLengthEv
libQt3Support.so.4:_ZNK12Q3HttpHeader14hasContentTypeEv
libQt3Support.so.4:_ZNK12Q3HttpHeader16hasContentLengthEv
libQt3Support.so.4:_ZNK12Q3HttpHeader4keysEv
libQt3Support.so.4:_ZNK12Q3HttpHeader5valueERK7QString
libQt3Support.so.4:_ZNK12Q3HttpHeader6hasKeyERK7QString
libQt3Support.so.4:_ZNK12Q3HttpHeader7isValidEv
libQt3Support.so.4:_ZNK12Q3HttpHeader8toStringEv
libQt3Support.so.4:_ZNK12Q3MainWindow10bottomDockEv
libQt3Support.so.4:_ZNK12Q3MainWindow10metaObjectEv
libQt3Support.so.4:_ZNK12Q3MainWindow11appropriateEP12Q3DockWindow
libQt3Support.so.4:_ZNK12Q3MainWindow11dockWindowsEN2Qt4DockE
libQt3Support.so.4:_ZNK12Q3MainWindow11dockWindowsEv
libQt3Support.so.4:_ZNK12Q3MainWindow11getLocationEP12Q3DockWindowRN2Qt4DockERiRbS5_
libQt3Support.so.4:_ZNK12Q3MainWindow12opaqueMovingEv
libQt3Support.so.4:_ZNK12Q3MainWindow13centralWidgetEv
libQt3Support.so.4:_ZNK12Q3MainWindow13isDockEnabledEN2Qt4DockE
libQt3Support.so.4:_ZNK12Q3MainWindow13isDockEnabledEP10Q3DockArea
libQt3Support.so.4:_ZNK12Q3MainWindow13isDockEnabledEP12Q3DockWindowN2Qt4DockE
libQt3Support.so.4:_ZNK12Q3MainWindow13isDockEnabledEP12Q3DockWindowP10Q3DockArea
libQt3Support.so.4:_ZNK12Q3MainWindow13usesTextLabelEv
libQt3Support.so.4:_ZNK12Q3MainWindow14dockMainWindowEP7QObject
libQt3Support.so.4:_ZNK12Q3MainWindow14isCustomizableEv
libQt3Support.so.4:_ZNK12Q3MainWindow14usesBigPixmapsEv
libQt3Support.so.4:_ZNK12Q3MainWindow15minimumSizeHintEv
libQt3Support.so.4:_ZNK12Q3MainWindow17isDockMenuEnabledEv
libQt3Support.so.4:_ZNK12Q3MainWindow18dockWindowsMovableEv
libQt3Support.so.4:_ZNK12Q3MainWindow18rightJustificationEv
libQt3Support.so.4:_ZNK12Q3MainWindow20createDockWindowMenuENS_11DockWindowsE
libQt3Support.so.4:_ZNK12Q3MainWindow7menuBarEv
libQt3Support.so.4:_ZNK12Q3MainWindow7topDockEv
libQt3Support.so.4:_ZNK12Q3MainWindow8leftDockEv
libQt3Support.so.4:_ZNK12Q3MainWindow8sizeHintEv
libQt3Support.so.4:_ZNK12Q3MainWindow8toolBarsEN2Qt4DockE
libQt3Support.so.4:_ZNK12Q3MainWindow9rightDockEv
libQt3Support.so.4:_ZNK12Q3MainWindow9statusBarEv
libQt3Support.so.4:_ZNK12Q3PointArray11cubicBezierEv
libQt3Support.so.4:_ZNK12Q3ScrollView10leftMarginEv
libQt3Support.so.4:_ZNK12Q3ScrollView10metaObjectEv
libQt3Support.so.4:_ZNK12Q3ScrollView11rightMarginEv
libQt3Support.so.4:_ZNK12Q3ScrollView12bottomMarginEv
libQt3Support.so.4:_ZNK12Q3ScrollView12cornerWidgetEv
libQt3Support.so.4:_ZNK12Q3ScrollView12resizePolicyEv
libQt3Support.so.4:_ZNK12Q3ScrollView12viewportSizeEii
libQt3Support.so.4:_ZNK12Q3ScrollView12visibleWidthEv
libQt3Support.so.4:_ZNK12Q3ScrollView13contentsWidthEv
libQt3Support.so.4:_ZNK12Q3ScrollView13visibleHeightEv
libQt3Support.so.4:_ZNK12Q3ScrollView14cachedSizeHintEv
libQt3Support.so.4:_ZNK12Q3ScrollView14contentsHeightEv
libQt3Support.so.4:_ZNK12Q3ScrollView14dragAutoScrollEv
libQt3Support.so.4:_ZNK12Q3ScrollView14hScrollBarModeEv
libQt3Support.so.4:_ZNK12Q3ScrollView14vScrollBarModeEv
libQt3Support.so.4:_ZNK12Q3ScrollView15minimumSizeHintEv
libQt3Support.so.4:_ZNK12Q3ScrollView17setCachedSizeHintERK5QSize
libQt3Support.so.4:_ZNK12Q3ScrollView17verticalScrollBarEv
libQt3Support.so.4:_ZNK12Q3ScrollView18contentsToViewportERK6QPoint
libQt3Support.so.4:_ZNK12Q3ScrollView18contentsToViewportEiiRiS0_
libQt3Support.so.4:_ZNK12Q3ScrollView18viewportToContentsERK6QPoint
libQt3Support.so.4:_ZNK12Q3ScrollView18viewportToContentsEiiRiS0_
libQt3Support.so.4:_ZNK12Q3ScrollView19hasStaticBackgroundEv
libQt3Support.so.4:_ZNK12Q3ScrollView19horizontalScrollBarEv
libQt3Support.so.4:_ZNK12Q3ScrollView7clipperEv
libQt3Support.so.4:_ZNK12Q3ScrollView8sizeHintEv
libQt3Support.so.4:_ZNK12Q3ScrollView8viewportEv
libQt3Support.so.4:_ZNK12Q3ScrollView9contentsXEv
libQt3Support.so.4:_ZNK12Q3ScrollView9contentsYEv
libQt3Support.so.4:_ZNK12Q3ScrollView9topMarginEv
libQt3Support.so.4:_ZNK12Q3SpinWidget10metaObjectEv
libQt3Support.so.4:_ZNK12Q3SpinWidget11isUpEnabledEv
libQt3Support.so.4:_ZNK12Q3SpinWidget13buttonSymbolsEv
libQt3Support.so.4:_ZNK12Q3SpinWidget13isDownEnabledEv
libQt3Support.so.4:_ZNK12Q3SpinWidget6upRectEv
libQt3Support.so.4:_ZNK12Q3SpinWidget8downRectEv
libQt3Support.so.4:_ZNK12Q3StoredDrag10metaObjectEv
libQt3Support.so.4:_ZNK12Q3StoredDrag11encodedDataEPKc
libQt3Support.so.4:_ZNK12Q3StoredDrag6formatEi
libQt3Support.so.4:_ZNK12Q3StyleSheet10metaObjectEv
libQt3Support.so.4:_ZNK12Q3StyleSheet4itemERK7QString
libQt3Support.so.4:_ZNK12Q3StyleSheet5errorERK7QString
libQt3Support.so.4:_ZNK12Q3StyleSheet9scaleFontER5QFonti
libQt3Support.so.4:_ZNK12Q3TextCursor12totalOffsetXEv
libQt3Support.so.4:_ZNK12Q3TextCursor12totalOffsetYEv
libQt3Support.so.4:_ZNK12Q3TextCursor1xEv
libQt3Support.so.4:_ZNK12Q3TextCursor1yEv
libQt3Support.so.4:_ZNK12Q3TextCursor7globalXEv
libQt3Support.so.4:_ZNK12Q3TextCursor7globalYEv
libQt3Support.so.4:_ZNK12Q3TextCursor8documentEv
libQt3Support.so.4:_ZNK12Q3TextCursoreqERKS_
libQt3Support.so.4:_ZNK12Q3TextFormat14makeTextFormatEPK16Q3StyleSheetItemRK4QMapI7QStringS4_Ed
libQt3Support.so.4:_ZNK12Q3TextFormat14minLeftBearingEv
libQt3Support.so.4:_ZNK12Q3TextFormat15minRightBearingEv
libQt3Support.so.4:_ZNK12Q3TextFormat17makeFormatEndTagsEPS_RK7QString
libQt3Support.so.4:_ZNK12Q3TextFormat20makeFormatChangeTagsEPS_S0_RK7QStringS3_
libQt3Support.so.4:_ZNK12Q3TextFormat5widthERK5QChar
libQt3Support.so.4:_ZNK12Q3TextFormat5widthERK7QStringi
libQt3Support.so.4:_ZNK12Q3TextFormat6ascentEv
libQt3Support.so.4:_ZNK12Q3TextFormat6heightEv
libQt3Support.so.4:_ZNK12Q3TextFormat7descentEv
libQt3Support.so.4:_ZNK12Q3TextFormat7leadingEv
libQt3Support.so.4:_ZNK12Q3TextString5widthEi
libQt3Support.so.4:_ZNK12Q3TextString9checkBidiEv
libQt3Support.so.4:_ZNK13Q3ActionGroup10metaObjectEv
libQt3Support.so.4:_ZNK13Q3ActionGroup11isExclusiveEv
libQt3Support.so.4:_ZNK13Q3ActionGroup12usesDropDownEv
libQt3Support.so.4:_ZNK13Q3ButtonGroup10metaObjectEv
libQt3Support.so.4:_ZNK13Q3ButtonGroup10selectedIdEv
libQt3Support.so.4:_ZNK13Q3ButtonGroup11fixChildrenEv
libQt3Support.so.4:_ZNK13Q3ButtonGroup11isExclusiveEv
libQt3Support.so.4:_ZNK13Q3ButtonGroup2idEP15QAbstractButton
libQt3Support.so.4:_ZNK13Q3ButtonGroup4findEi
libQt3Support.so.4:_ZNK13Q3ButtonGroup5countEv
libQt3Support.so.4:_ZNK13Q3ButtonGroup8selectedEv
libQt3Support.so.4:_ZNK13Q3DataBrowser10isReadOnlyEv
libQt3Support.so.4:_ZNK13Q3DataBrowser10metaObjectEv
libQt3Support.so.4:_ZNK13Q3DataBrowser12confirmEditsEv
libQt3Support.so.4:_ZNK13Q3DataBrowser13confirmDeleteEv
libQt3Support.so.4:_ZNK13Q3DataBrowser13confirmInsertEv
libQt3Support.so.4:_ZNK13Q3DataBrowser13confirmUpdateEv
libQt3Support.so.4:_ZNK13Q3DataBrowser14confirmCancelsEv
libQt3Support.so.4:_ZNK13Q3DataBrowser16boundaryCheckingEv
libQt3Support.so.4:_ZNK13Q3DataBrowser4sortEv
libQt3Support.so.4:_ZNK13Q3DataBrowser6filterEv
libQt3Support.so.4:_ZNK13Q3DataBrowser8autoEditEv
libQt3Support.so.4:_ZNK13Q3DataBrowser9sqlCursorEv
libQt3Support.so.4:_ZNK13Q3DataManager12confirmEditsEv
libQt3Support.so.4:_ZNK13Q3DataManager13confirmDeleteEv
libQt3Support.so.4:_ZNK13Q3DataManager13confirmInsertEv
libQt3Support.so.4:_ZNK13Q3DataManager13confirmUpdateEv
libQt3Support.so.4:_ZNK13Q3DataManager14confirmCancelsEv
libQt3Support.so.4:_ZNK13Q3DataManager4modeEv
libQt3Support.so.4:_ZNK13Q3DataManager8autoEditEv
libQt3Support.so.4:_ZNK13Q3ListBoxItem4nextEv
libQt3Support.so.4:_ZNK13Q3ListBoxItem4prevEv
libQt3Support.so.4:_ZNK13Q3ListBoxItem4rttiEv
libQt3Support.so.4:_ZNK13Q3ListBoxItem4textEv
libQt3Support.so.4:_ZNK13Q3ListBoxItem5widthEPK9Q3ListBox
libQt3Support.so.4:_ZNK13Q3ListBoxItem6heightEPK9Q3ListBox
libQt3Support.so.4:_ZNK13Q3ListBoxItem6pixmapEv
libQt3Support.so.4:_ZNK13Q3ListBoxItem7listBoxEv
libQt3Support.so.4:_ZNK13Q3ListBoxItem9isCurrentEv
libQt3Support.so.4:_ZNK13Q3ListBoxText4rttiEv
libQt3Support.so.4:_ZNK13Q3ListBoxText5widthEPK9Q3ListBox
libQt3Support.so.4:_ZNK13Q3ListBoxText6heightEPK9Q3ListBox
libQt3Support.so.4:_ZNK13Q3ProgressBar10metaObjectEv
libQt3Support.so.4:_ZNK13Q3ProgressBar15minimumSizeHintEv
libQt3Support.so.4:_ZNK13Q3ProgressBar8sizeHintEv
libQt3Support.so.4:_ZNK13Q3TableHeader10metaObjectEv
libQt3Support.so.4:_ZNK13Q3TableHeader10sectionPosEi
libQt3Support.so.4:_ZNK13Q3TableHeader11sectionSizeEi
libQt3Support.so.4:_ZNK13Q3TableHeader12sectionStateEi
libQt3Support.so.4:_ZNK13Q3TableHeader20isSectionStretchableEi
libQt3Support.so.4:_ZNK13Q3TableHeader9sectionAtEi
libQt3Support.so.4:_ZNK13Q3TextBrowser10metaObjectEv
libQt3Support.so.4:_ZNK13Q3TextBrowser6sourceEv
libQt3Support.so.4:_ZNK13Q3TextCommand4typeEv
libQt3Support.so.4:_ZNK13Q3UrlOperator10metaObjectEv
libQt3Support.so.4:_ZNK13Q3UrlOperator10nameFilterEv
libQt3Support.so.4:_ZNK13Q3UrlOperator4infoERK7QString
libQt3Support.so.4:_ZNK13Q3WidgetStack10metaObjectEv
libQt3Support.so.4:_ZNK13Q3WidgetStack13visibleWidgetEv
libQt3Support.so.4:_ZNK13Q3WidgetStack15minimumSizeHintEv
libQt3Support.so.4:_ZNK13Q3WidgetStack2idEP7QWidget
libQt3Support.so.4:_ZNK13Q3WidgetStack6widgetEi
libQt3Support.so.4:_ZNK13Q3WidgetStack8sizeHintEv
libQt3Support.so.4:_ZNK14Q3CanvasSpline13controlPointsEv
libQt3Support.so.4:_ZNK14Q3CanvasSpline4rttiEv
libQt3Support.so.4:_ZNK14Q3CanvasSpline6closedEv
libQt3Support.so.4:_ZNK14Q3CanvasSprite10bottomEdgeEi
libQt3Support.so.4:_ZNK14Q3CanvasSprite10bottomEdgeEv
libQt3Support.so.4:_ZNK14Q3CanvasSprite12boundingRectEv
libQt3Support.so.4:_ZNK14Q3CanvasSprite12collidesWithEPK12Q3CanvasItem
libQt3Support.so.4:_ZNK14Q3CanvasSprite12collidesWithEPKS_PK21Q3CanvasPolygonalItemPK17Q3CanvasRectanglePK15Q3CanvasEllipsePK12Q3CanvasText
libQt3Support.so.4:_ZNK14Q3CanvasSprite13imageAdvancedEv
libQt3Support.so.4:_ZNK14Q3CanvasSprite4rttiEv
libQt3Support.so.4:_ZNK14Q3CanvasSprite5widthEv
libQt3Support.so.4:_ZNK14Q3CanvasSprite6heightEv
libQt3Support.so.4:_ZNK14Q3CanvasSprite7topEdgeEi
libQt3Support.so.4:_ZNK14Q3CanvasSprite7topEdgeEv
libQt3Support.so.4:_ZNK14Q3CanvasSprite8leftEdgeEi
libQt3Support.so.4:_ZNK14Q3CanvasSprite8leftEdgeEv
libQt3Support.so.4:_ZNK14Q3CanvasSprite9rightEdgeEi
libQt3Support.so.4:_ZNK14Q3CanvasSprite9rightEdgeEv
libQt3Support.so.4:_ZNK14Q3DateTimeEdit10metaObjectEv
libQt3Support.so.4:_ZNK14Q3DateTimeEdit11autoAdvanceEv
libQt3Support.so.4:_ZNK14Q3DateTimeEdit15minimumSizeHintEv
libQt3Support.so.4:_ZNK14Q3DateTimeEdit8dateTimeEv
libQt3Support.so.4:_ZNK14Q3DateTimeEdit8sizeHintEv
libQt3Support.so.4:_ZNK14Q3HButtonGroup10metaObjectEv
libQt3Support.so.4:_ZNK14Q3IconDragData10pixmapRectEv
libQt3Support.so.4:_ZNK14Q3IconDragData8textRectEv
libQt3Support.so.4:_ZNK14Q3IconDragDataeqERKS_
libQt3Support.so.4:_ZNK14Q3IconDragItem4dataEv
libQt3Support.so.4:_ZNK14Q3IconDragItemeqERKS_
libQt3Support.so.4:_ZNK14Q3IconViewItem10acceptDropEPK11QMimeSource
libQt3Support.so.4:_ZNK14Q3IconViewItem10intersectsERK5QRect
libQt3Support.so.4:_ZNK14Q3IconViewItem10isSelectedEv
libQt3Support.so.4:_ZNK14Q3IconViewItem10pixmapRectEb
libQt3Support.so.4:_ZNK14Q3IconViewItem11dragEnabledEv
libQt3Support.so.4:_ZNK14Q3IconViewItem11dropEnabledEv
libQt3Support.so.4:_ZNK14Q3IconViewItem12isSelectableEv
libQt3Support.so.4:_ZNK14Q3IconViewItem13renameEnabledEv
libQt3Support.so.4:_ZNK14Q3IconViewItem1xEv
libQt3Support.so.4:_ZNK14Q3IconViewItem1yEv
libQt3Support.so.4:_ZNK14Q3IconViewItem3keyEv
libQt3Support.so.4:_ZNK14Q3IconViewItem3posEv
libQt3Support.so.4:_ZNK14Q3IconViewItem4rectEv
libQt3Support.so.4:_ZNK14Q3IconViewItem4rttiEv
libQt3Support.so.4:_ZNK14Q3IconViewItem4sizeEv
libQt3Support.so.4:_ZNK14Q3IconViewItem4textEv
libQt3Support.so.4:_ZNK14Q3IconViewItem5indexEv
libQt3Support.so.4:_ZNK14Q3IconViewItem5widthEv
libQt3Support.so.4:_ZNK14Q3IconViewItem6heightEv
libQt3Support.so.4:_ZNK14Q3IconViewItem6pixmapEv
libQt3Support.so.4:_ZNK14Q3IconViewItem7compareEPS_
libQt3Support.so.4:_ZNK14Q3IconViewItem7pictureEv
libQt3Support.so.4:_ZNK14Q3IconViewItem8containsERK6QPoint
libQt3Support.so.4:_ZNK14Q3IconViewItem8iconViewEv
libQt3Support.so.4:_ZNK14Q3IconViewItem8nextItemEv
libQt3Support.so.4:_ZNK14Q3IconViewItem8prevItemEv
libQt3Support.so.4:_ZNK14Q3IconViewItem8tempTextEv
libQt3Support.so.4:_ZNK14Q3IconViewItem8textRectEb
libQt3Support.so.4:_ZNK14Q3ListViewItem10acceptDropEPK11QMimeSource
libQt3Support.so.4:_ZNK14Q3ListViewItem10firstChildEv
libQt3Support.so.4:_ZNK14Q3ListViewItem11dragEnabledEv
libQt3Support.so.4:_ZNK14Q3ListViewItem11dropEnabledEv
libQt3Support.so.4:_ZNK14Q3ListViewItem11totalHeightEv
libQt3Support.so.4:_ZNK14Q3ListViewItem12widthChangedEi
libQt3Support.so.4:_ZNK14Q3ListViewItem13renameEnabledEi
libQt3Support.so.4:_ZNK14Q3ListViewItem16enforceSortOrderEv
libQt3Support.so.4:_ZNK14Q3ListViewItem17multiLinesEnabledEv
libQt3Support.so.4:_ZNK14Q3ListViewItem3keyEib
libQt3Support.so.4:_ZNK14Q3ListViewItem4rttiEv
libQt3Support.so.4:_ZNK14Q3ListViewItem4textEi
libQt3Support.so.4:_ZNK14Q3ListViewItem5depthEv
libQt3Support.so.4:_ZNK14Q3ListViewItem5widthERK12QFontMetricsPK10Q3ListViewi
libQt3Support.so.4:_ZNK14Q3ListViewItem6heightEv
libQt3Support.so.4:_ZNK14Q3ListViewItem6parentEv
libQt3Support.so.4:_ZNK14Q3ListViewItem6pixmapEi
libQt3Support.so.4:_ZNK14Q3ListViewItem7compareEPS_ib
libQt3Support.so.4:_ZNK14Q3ListViewItem7itemPosEv
libQt3Support.so.4:_ZNK14Q3ListViewItem7repaintEv
libQt3Support.so.4:_ZNK14Q3ListViewItem8listViewEv
libQt3Support.so.4:_ZNK14Q3ListViewItem9isEnabledEv
libQt3Support.so.4:_ZNK14Q3ListViewItem9isVisibleEv
libQt3Support.so.4:_ZNK14Q3ListViewItem9itemAboveEv
libQt3Support.so.4:_ZNK14Q3ListViewItem9itemBelowEv
libQt3Support.so.4:_ZNK14Q3RangeControl17positionFromValueEii
libQt3Support.so.4:_ZNK14Q3RangeControl17valueFromPositionEii
libQt3Support.so.4:_ZNK14Q3RangeControl5boundEi
libQt3Support.so.4:_ZNK14Q3ServerSocket10metaObjectEv
libQt3Support.so.4:_ZNK14Q3ServerSocket2okEv
libQt3Support.so.4:_ZNK14Q3ServerSocket4portEv
libQt3Support.so.4:_ZNK14Q3ServerSocket6socketEv
libQt3Support.so.4:_ZNK14Q3ServerSocket7addressEv
libQt3Support.so.4:_ZNK14Q3SocketDevice11getProtocolEv
libQt3Support.so.4:_ZNK14Q3SocketDevice11peerAddressEv
libQt3Support.so.4:_ZNK14Q3SocketDevice11waitForMoreEiPb
libQt3Support.so.4:_ZNK14Q3SocketDevice14bytesAvailableEv
libQt3Support.so.4:_ZNK14Q3SocketDevice14sendBufferSizeEv
libQt3Support.so.4:_ZNK14Q3SocketDevice15addressReusableEv
libQt3Support.so.4:_ZNK14Q3SocketDevice17receiveBufferSizeEv
libQt3Support.so.4:_ZNK14Q3SocketDevice2atEv
libQt3Support.so.4:_ZNK14Q3SocketDevice4portEv
libQt3Support.so.4:_ZNK14Q3SocketDevice4sizeEv
libQt3Support.so.4:_ZNK14Q3SocketDevice4typeEv
libQt3Support.so.4:_ZNK14Q3SocketDevice5atEndEv
libQt3Support.so.4:_ZNK14Q3SocketDevice5errorEv
libQt3Support.so.4:_ZNK14Q3SocketDevice6optionENS_6OptionE
libQt3Support.so.4:_ZNK14Q3SocketDevice6socketEv
libQt3Support.so.4:_ZNK14Q3SocketDevice7addressEv
libQt3Support.so.4:_ZNK14Q3SocketDevice7isValidEv
libQt3Support.so.4:_ZNK14Q3SocketDevice8blockingEv
libQt3Support.so.4:_ZNK14Q3SocketDevice8peerPortEv
libQt3Support.so.4:_ZNK14Q3SocketDevice8protocolEv
libQt3Support.so.4:_ZNK14Q3TextDocument10metaObjectEv
libQt3Support.so.4:_ZNK14Q3TextDocument10textFormatEv
libQt3Support.so.4:_ZNK14Q3TextDocument11inSelectionEiRK6QPoint
libQt3Support.so.4:_ZNK14Q3TextDocument12hasSelectionEib
libQt3Support.so.4:_ZNK14Q3TextDocument12selectedTextEib
libQt3Support.so.4:_ZNK14Q3TextDocument17hasFocusParagraphEv
libQt3Support.so.4:_ZNK14Q3TextDocument4textEi
libQt3Support.so.4:_ZNK14Q3TextDocument4textEv
libQt3Support.so.4:_ZNK14Q3TextDocument6heightEv
libQt3Support.so.4:_ZNK14Q3TextDocument6lengthEv
libQt3Support.so.4:_ZNK14Q3TextDocument7paragAtEi
libQt3Support.so.4:_ZNK14Q3TextDocument8richTextEv
libQt3Support.so.4:_ZNK14Q3TextDocument9focusHrefEv
libQt3Support.so.4:_ZNK14Q3TextDocument9focusNameEv
libQt3Support.so.4:_ZNK14Q3TextDocument9plainTextEv
libQt3Support.so.4:_ZNK14Q3TextDocument9widthUsedEv
libQt3Support.so.4:_ZNK14Q3VButtonGroup10metaObjectEv
libQt3Support.so.4:_ZNK15Q3CanvasEllipse10areaPointsEv
libQt3Support.so.4:_ZNK15Q3CanvasEllipse12collidesWithEPK12Q3CanvasItem
libQt3Support.so.4:_ZNK15Q3CanvasEllipse12collidesWithEPK14Q3CanvasSpritePK21Q3CanvasPolygonalItemPK17Q3CanvasRectanglePKS_PK12Q3CanvasText
libQt3Support.so.4:_ZNK15Q3CanvasEllipse4rttiEv
libQt3Support.so.4:_ZNK15Q3CanvasEllipse5widthEv
libQt3Support.so.4:_ZNK15Q3CanvasEllipse6heightEv
libQt3Support.so.4:_ZNK15Q3CanvasPolygon10areaPointsEv
libQt3Support.so.4:_ZNK15Q3CanvasPolygon4rttiEv
libQt3Support.so.4:_ZNK15Q3CanvasPolygon6pointsEv
libQt3Support.so.4:_ZNK15Q3CheckListItem10isTristateEv
libQt3Support.so.4:_ZNK15Q3CheckListItem11storedStateEPS_
libQt3Support.so.4:_ZNK15Q3CheckListItem13internalStateEv
libQt3Support.so.4:_ZNK15Q3CheckListItem4rttiEv
libQt3Support.so.4:_ZNK15Q3CheckListItem5stateEv
libQt3Support.so.4:_ZNK15Q3CheckListItem5widthERK12QFontMetricsPK10Q3ListViewi
libQt3Support.so.4:_ZNK15Q3ListBoxPixmap4rttiEv
libQt3Support.so.4:_ZNK15Q3ListBoxPixmap5widthEPK9Q3ListBox
libQt3Support.so.4:_ZNK15Q3ListBoxPixmap6heightEPK9Q3ListBox
libQt3Support.so.4:_ZNK15Q3MultiLineEdit10lineLengthEi
libQt3Support.so.4:_ZNK15Q3MultiLineEdit10markedTextEv
libQt3Support.so.4:_ZNK15Q3MultiLineEdit10metaObjectEv
libQt3Support.so.4:_ZNK15Q3MultiLineEdit11atBeginningEv
libQt3Support.so.4:_ZNK15Q3MultiLineEdit11cursorPointEv
libQt3Support.so.4:_ZNK15Q3MultiLineEdit13hasMarkedTextEv
libQt3Support.so.4:_ZNK15Q3MultiLineEdit15getMarkedRegionEPiS0_S0_S0_
libQt3Support.so.4:_ZNK15Q3MultiLineEdit5atEndEv
libQt3Support.so.4:_ZNK15Q3MultiLineEdit6editedEv
libQt3Support.so.4:_ZNK15Q3MultiLineEdit8numLinesEv
libQt3Support.so.4:_ZNK15Q3MultiLineEdit8textLineEi
libQt3Support.so.4:_ZNK15Q3MultiLineEdit9alignmentEv
libQt3Support.so.4:_ZNK15Q3TextParagraph10leftMarginEv
libQt3Support.so.4:_ZNK15Q3TextParagraph10lineHeightEi
libQt3Support.so.4:_ZNK15Q3TextParagraph10selectionsEv
libQt3Support.so.4:_ZNK15Q3TextParagraph11lineSpacingEv
libQt3Support.so.4:_ZNK15Q3TextParagraph11rightMarginEv
libQt3Support.so.4:_ZNK15Q3TextParagraph12bottomMarginEv
libQt3Support.so.4:_ZNK15Q3TextParagraph12fullSelectedEi
libQt3Support.so.4:_ZNK15Q3TextParagraph12hasSelectionEi
libQt3Support.so.4:_ZNK15Q3TextParagraph12lineBaseLineEi
libQt3Support.so.4:_ZNK15Q3TextParagraph12selectionEndEi
libQt3Support.so.4:_ZNK15Q3TextParagraph13floatingItemsEv
libQt3Support.so.4:_ZNK15Q3TextParagraph14selectionStartEi
libQt3Support.so.4:_ZNK15Q3TextParagraph15firstLineMarginEv
libQt3Support.so.4:_ZNK15Q3TextParagraph15lineStartOfCharEiPiS0_
libQt3Support.so.4:_ZNK15Q3TextParagraph15lineStartOfLineEiPi
libQt3Support.so.4:_ZNK15Q3TextParagraph16formatCollectionEv
libQt3Support.so.4:_ZNK15Q3TextParagraph16lineHeightOfCharEiPiS0_
libQt3Support.so.4:_ZNK15Q3TextParagraph21writeStyleInformationER11QDataStream
libQt3Support.so.4:_ZNK15Q3TextParagraph5lineYEi
libQt3Support.so.4:_ZNK15Q3TextParagraph5linesEv
libQt3Support.so.4:_ZNK15Q3TextParagraph7leftGapEv
libQt3Support.so.4:_ZNK15Q3TextParagraph8lineInfoEiRiS0_S0_
libQt3Support.so.4:_ZNK15Q3TextParagraph8richTextEv
libQt3Support.so.4:_ZNK15Q3TextParagraph8tabArrayEv
libQt3Support.so.4:_ZNK15Q3TextParagraph9directionEv
libQt3Support.so.4:_ZNK15Q3TextParagraph9formatterEv
libQt3Support.so.4:_ZNK15Q3TextParagraph9topMarginEv
libQt3Support.so.4:_ZNK15Q3TextTableCell11maximumSizeEv
libQt3Support.so.4:_ZNK15Q3TextTableCell11minimumSizeEv
libQt3Support.so.4:_ZNK15Q3TextTableCell14heightForWidthEi
libQt3Support.so.4:_ZNK15Q3TextTableCell17hasHeightForWidthEv
libQt3Support.so.4:_ZNK15Q3TextTableCell19expandingDirectionsEv
libQt3Support.so.4:_ZNK15Q3TextTableCell23verticalAlignmentOffsetEv
libQt3Support.so.4:_ZNK15Q3TextTableCell25horizontalAlignmentOffsetEv
libQt3Support.so.4:_ZNK15Q3TextTableCell7isEmptyEv
libQt3Support.so.4:_ZNK15Q3TextTableCell8geometryEv
libQt3Support.so.4:_ZNK15Q3TextTableCell8sizeHintEv
libQt3Support.so.4:_ZNK16Q3CanvasItemListplERKS_
libQt3Support.so.4:_ZNK16Q3CheckTableItem12createEditorEv
libQt3Support.so.4:_ZNK16Q3CheckTableItem4rttiEv
libQt3Support.so.4:_ZNK16Q3CheckTableItem8sizeHintEv
libQt3Support.so.4:_ZNK16Q3CheckTableItem9isCheckedEv
libQt3Support.so.4:_ZNK16Q3ComboTableItem10isEditableEv
libQt3Support.so.4:_ZNK16Q3ComboTableItem11currentItemEv
libQt3Support.so.4:_ZNK16Q3ComboTableItem11currentTextEv
libQt3Support.so.4:_ZNK16Q3ComboTableItem12createEditorEv
libQt3Support.so.4:_ZNK16Q3ComboTableItem4rttiEv
libQt3Support.so.4:_ZNK16Q3ComboTableItem4textEi
libQt3Support.so.4:_ZNK16Q3ComboTableItem5countEv
libQt3Support.so.4:_ZNK16Q3ComboTableItem8sizeHintEv
libQt3Support.so.4:_ZNK16Q3DockAreaLayout10metaObjectEv
libQt3Support.so.4:_ZNK16Q3DockAreaLayout11minimumSizeEv
libQt3Support.so.4:_ZNK16Q3DockAreaLayout14heightForWidthEi
libQt3Support.so.4:_ZNK16Q3DockAreaLayout14widthForHeightEi
libQt3Support.so.4:_ZNK16Q3DockAreaLayout17hasHeightForWidthEv
libQt3Support.so.4:_ZNK16Q3DockAreaLayout5countEv
libQt3Support.so.4:_ZNK16Q3DockAreaLayout6itemAtEi
libQt3Support.so.4:_ZNK16Q3DockAreaLayout8sizeHintEv
libQt3Support.so.4:_ZNK16Q3GCacheIterator11getKeyAsciiEv
libQt3Support.so.4:_ZNK16Q3GCacheIterator12getKeyStringEv
libQt3Support.so.4:_ZNK16Q3GCacheIterator3getEv
libQt3Support.so.4:_ZNK16Q3GCacheIterator5countEv
libQt3Support.so.4:_ZNK16Q3GCacheIterator6atLastEv
libQt3Support.so.4:_ZNK16Q3GCacheIterator7atFirstEv
libQt3Support.so.4:_ZNK16Q3GCacheIterator9getKeyIntEv
libQt3Support.so.4:_ZNK16Q3ProgressDialog10metaObjectEv
libQt3Support.so.4:_ZNK16Q3ProgressDialog10totalStepsEv
libQt3Support.so.4:_ZNK16Q3ProgressDialog11wasCanceledEv
libQt3Support.so.4:_ZNK16Q3ProgressDialog12wasCancelledEv
libQt3Support.so.4:_ZNK16Q3ProgressDialog15minimumDurationEv
libQt3Support.so.4:_ZNK16Q3ProgressDialog3barEv
libQt3Support.so.4:_ZNK16Q3ProgressDialog5labelEv
libQt3Support.so.4:_ZNK16Q3ProgressDialog8progressEv
libQt3Support.so.4:_ZNK16Q3ProgressDialog8sizeHintEv
libQt3Support.so.4:_ZNK16Q3ProgressDialog9autoCloseEv
libQt3Support.so.4:_ZNK16Q3ProgressDialog9autoResetEv
libQt3Support.so.4:_ZNK16Q3ProgressDialog9labelTextEv
libQt3Support.so.4:_ZNK16Q3SimpleRichText4drawEP8QPainteriiRK5QRectRK11QColorGroupPK6QBrush
libQt3Support.so.4:_ZNK16Q3SimpleRichText5widthEv
libQt3Support.so.4:_ZNK16Q3SimpleRichText6heightEv
libQt3Support.so.4:_ZNK16Q3SimpleRichText6inTextERK6QPoint
libQt3Support.so.4:_ZNK16Q3SimpleRichText7contextEv
libQt3Support.so.4:_ZNK16Q3SimpleRichText8anchorAtERK6QPoint
libQt3Support.so.4:_ZNK16Q3SimpleRichText9widthUsedEv
libQt3Support.so.4:_ZNK16Q3StyleSheetItem10fontFamilyEv
libQt3Support.so.4:_ZNK16Q3StyleSheetItem10fontItalicEv
libQt3Support.so.4:_ZNK16Q3StyleSheetItem10fontWeightEv
libQt3Support.so.4:_ZNK16Q3StyleSheetItem10styleSheetEv
libQt3Support.so.4:_ZNK16Q3StyleSheetItem11displayModeEv
libQt3Support.so.4:_ZNK16Q3StyleSheetItem11lineSpacingEv
libQt3Support.so.4:_ZNK16Q3StyleSheetItem11selfNestingEv
libQt3Support.so.4:_ZNK16Q3StyleSheetItem13fontStrikeOutEv
libQt3Support.so.4:_ZNK16Q3StyleSheetItem13fontUnderlineEv
libQt3Support.so.4:_ZNK16Q3StyleSheetItem14whiteSpaceModeEv
libQt3Support.so.4:_ZNK16Q3StyleSheetItem15logicalFontSizeEv
libQt3Support.so.4:_ZNK16Q3StyleSheetItem15numberOfColumnsEv
libQt3Support.so.4:_ZNK16Q3StyleSheetItem16allowedInContextEPKS_
libQt3Support.so.4:_ZNK16Q3StyleSheetItem17definesFontItalicEv
libQt3Support.so.4:_ZNK16Q3StyleSheetItem17verticalAlignmentEv
libQt3Support.so.4:_ZNK16Q3StyleSheetItem19logicalFontSizeStepEv
libQt3Support.so.4:_ZNK16Q3StyleSheetItem20definesFontStrikeOutEv
libQt3Support.so.4:_ZNK16Q3StyleSheetItem20definesFontUnderlineEv
libQt3Support.so.4:_ZNK16Q3StyleSheetItem4nameEv
libQt3Support.so.4:_ZNK16Q3StyleSheetItem5colorEv
libQt3Support.so.4:_ZNK16Q3StyleSheetItem6marginENS_6MarginE
libQt3Support.so.4:_ZNK16Q3StyleSheetItem8contextsEv
libQt3Support.so.4:_ZNK16Q3StyleSheetItem8fontSizeEv
libQt3Support.so.4:_ZNK16Q3StyleSheetItem8isAnchorEv
libQt3Support.so.4:_ZNK16Q3StyleSheetItem9alignmentEv
libQt3Support.so.4:_ZNK16Q3StyleSheetItem9listStyleEv
libQt3Support.so.4:_ZNK16Q3TableSelection7numColsEv
libQt3Support.so.4:_ZNK16Q3TableSelection7numRowsEv
libQt3Support.so.4:_ZNK16Q3TableSelectioneqERKS_
libQt3Support.so.4:_ZNK16Q3TextCustomItem12minimumWidthEv
libQt3Support.so.4:_ZNK16Q3TextCustomItem7ownLineEv
libQt3Support.so.4:_ZNK16Q3TextCustomItem8isNestedEv
libQt3Support.so.4:_ZNK16Q3TextCustomItem8richTextEv
libQt3Support.so.4:_ZNK16Q3TextCustomItem9placementEv
libQt3Support.so.4:_ZNK16Q3TextStringChar10anchorHrefEv
libQt3Support.so.4:_ZNK16Q3TextStringChar10anchorNameEv
libQt3Support.so.4:_ZNK17Q3CanvasRectangle10areaPointsEv
libQt3Support.so.4:_ZNK17Q3CanvasRectangle12collidesWithEPK12Q3CanvasItem
libQt3Support.so.4:_ZNK17Q3CanvasRectangle12collidesWithEPK14Q3CanvasSpritePK21Q3CanvasPolygonalItemPKS_PK15Q3CanvasEllipsePK12Q3CanvasText
libQt3Support.so.4:_ZNK17Q3CanvasRectangle4rttiEv
libQt3Support.so.4:_ZNK17Q3CanvasRectangle5widthEv
libQt3Support.so.4:_ZNK17Q3CanvasRectangle6chunksEv
libQt3Support.so.4:_ZNK17Q3CanvasRectangle6heightEv
libQt3Support.so.4:_ZNK17Q3NetworkProtocol10autoDeleteEv
libQt3Support.so.4:_ZNK17Q3NetworkProtocol10metaObjectEv
libQt3Support.so.4:_ZNK17Q3NetworkProtocol19operationInProgressEv
libQt3Support.so.4:_ZNK17Q3NetworkProtocol19supportedOperationsEv
libQt3Support.so.4:_ZNK17Q3NetworkProtocol3urlEv
libQt3Support.so.4:_ZNK18Q3DateTimeEditBase10metaObjectEv
libQt3Support.so.4:_ZNK18Q3FileIconProvider10metaObjectEv
libQt3Support.so.4:_ZNK18Q3IconDragDataItemeqERKS_
libQt3Support.so.4:_ZNK18Q3NetworkOperation10metaObjectEv
libQt3Support.so.4:_ZNK18Q3NetworkOperation14protocolDetailEv
libQt3Support.so.4:_ZNK18Q3NetworkOperation3argEi
libQt3Support.so.4:_ZNK18Q3NetworkOperation3rawEi
libQt3Support.so.4:_ZNK18Q3NetworkOperation5stateEv
libQt3Support.so.4:_ZNK18Q3NetworkOperation6rawArgEi
libQt3Support.so.4:_ZNK18Q3NetworkOperation9errorCodeEv
libQt3Support.so.4:_ZNK18Q3NetworkOperation9operationEv
libQt3Support.so.4:_ZNK18Q3SqlCursorManager10autoDeleteEv
libQt3Support.so.4:_ZNK18Q3SqlCursorManager4sortEv
libQt3Support.so.4:_ZNK18Q3SqlCursorManager6cursorEv
libQt3Support.so.4:_ZNK18Q3SqlCursorManager6filterEv
libQt3Support.so.4:_ZNK19Q3CanvasPixmapArray7isValidEv
libQt3Support.so.4:_ZNK19Q3HttpRequestHeader12majorVersionEv
libQt3Support.so.4:_ZNK19Q3HttpRequestHeader12minorVersionEv
libQt3Support.so.4:_ZNK19Q3HttpRequestHeader4pathEv
libQt3Support.so.4:_ZNK19Q3HttpRequestHeader6methodEv
libQt3Support.so.4:_ZNK19Q3HttpRequestHeader8toStringEv
libQt3Support.so.4:_ZNK19Q3MimeSourceFactory12dataInternalERK7QStringRK4QMapIS0_S0_E
libQt3Support.so.4:_ZNK19Q3MimeSourceFactory12makeAbsoluteERK7QStringS2_
libQt3Support.so.4:_ZNK19Q3MimeSourceFactory4dataERK7QString
libQt3Support.so.4:_ZNK19Q3MimeSourceFactory4dataERK7QStringS2_
libQt3Support.so.4:_ZNK19Q3MimeSourceFactory8filePathEv
libQt3Support.so.4:_ZNK19Q3SyntaxHighlighter16currentParagraphEv
libQt3Support.so.4:_ZNK20Q3HttpResponseHeader10statusCodeEv
libQt3Support.so.4:_ZNK20Q3HttpResponseHeader12majorVersionEv
libQt3Support.so.4:_ZNK20Q3HttpResponseHeader12minorVersionEv
libQt3Support.so.4:_ZNK20Q3HttpResponseHeader12reasonPhraseEv
libQt3Support.so.4:_ZNK20Q3HttpResponseHeader8toStringEv
libQt3Support.so.4:_ZNK20Q3TextHorizontalLine8richTextEv
libQt3Support.so.4:_ZNK21Q3CanvasPolygonalItem11scanPolygonERK12Q3PointArrayiR19QPolygonalProcessor
libQt3Support.so.4:_ZNK21Q3CanvasPolygonalItem12boundingRectEv
libQt3Support.so.4:_ZNK21Q3CanvasPolygonalItem12collidesWithEPK12Q3CanvasItem
libQt3Support.so.4:_ZNK21Q3CanvasPolygonalItem12collidesWithEPK14Q3CanvasSpritePKS_PK17Q3CanvasRectanglePK15Q3CanvasEllipsePK12Q3CanvasText
libQt3Support.so.4:_ZNK21Q3CanvasPolygonalItem18areaPointsAdvancedEv
libQt3Support.so.4:_ZNK21Q3CanvasPolygonalItem4rttiEv
libQt3Support.so.4:_ZNK21Q3CanvasPolygonalItem6chunksEv
libQt3Support.so.4:_ZNK21Q3CanvasPolygonalItem7windingEv
libQt3Support.so.4:_ZNK22Q3ListViewItemIterator12matchesFlagsEPK14Q3ListViewItem
libQt3Support.so.4:_ZNK22Q3ListViewItemIterator7currentEv
libQt3Support.so.4:_ZNK22Q3ListViewItemIterator9isCheckedEPK14Q3ListViewItem
libQt3Support.so.4:_ZNK5Q3Dns10metaObjectEv
libQt3Support.so.4:_ZNK5Q3Dns11mailServersEv
libQt3Support.so.4:_ZNK5Q3Dns13canonicalNameEv
libQt3Support.so.4:_ZNK5Q3Dns5textsEv
libQt3Support.so.4:_ZNK5Q3Dns7serversEv
libQt3Support.so.4:_ZNK5Q3Dns9addressesEv
libQt3Support.so.4:_ZNK5Q3Dns9hostNamesEv
libQt3Support.so.4:_ZNK5Q3Dns9isWorkingEv
libQt3Support.so.4:_ZNK5Q3Ftp10metaObjectEv
libQt3Support.so.4:_ZNK5Q3Ftp11errorStringEv
libQt3Support.so.4:_ZNK5Q3Ftp13currentDeviceEv
libQt3Support.so.4:_ZNK5Q3Ftp14bytesAvailableEv
libQt3Support.so.4:_ZNK5Q3Ftp14currentCommandEv
libQt3Support.so.4:_ZNK5Q3Ftp18hasPendingCommandsEv
libQt3Support.so.4:_ZNK5Q3Ftp19supportedOperationsEv
libQt3Support.so.4:_ZNK5Q3Ftp5errorEv
libQt3Support.so.4:_ZNK5Q3Ftp5stateEv
libQt3Support.so.4:_ZNK5Q3Ftp9currentIdEv
libQt3Support.so.4:_ZNK5Q3Url11hasPasswordEv
libQt3Support.so.4:_ZNK5Q3Url11isLocalFileEv
libQt3Support.so.4:_ZNK5Q3Url3refEv
libQt3Support.so.4:_ZNK5Q3Url4hostEv
libQt3Support.so.4:_ZNK5Q3Url4pathEb
libQt3Support.so.4:_ZNK5Q3Url4portEv
libQt3Support.so.4:_ZNK5Q3Url4userEv
libQt3Support.so.4:_ZNK5Q3Url5queryEv
libQt3Support.so.4:_ZNK5Q3Url6hasRefEv
libQt3Support.so.4:_ZNK5Q3Url7dirPathEv
libQt3Support.so.4:_ZNK5Q3Url7hasHostEv
libQt3Support.so.4:_ZNK5Q3Url7hasPathEv
libQt3Support.so.4:_ZNK5Q3Url7hasPortEv
libQt3Support.so.4:_ZNK5Q3Url7hasUserEv
libQt3Support.so.4:_ZNK5Q3Url7isValidEv
libQt3Support.so.4:_ZNK5Q3Url8fileNameEv
libQt3Support.so.4:_ZNK5Q3Url8passwordEv
libQt3Support.so.4:_ZNK5Q3Url8protocolEv
libQt3Support.so.4:_ZNK5Q3Url8toStringEbb
libQt3Support.so.4:_ZNK5Q3Urlcv7QStringEv
libQt3Support.so.4:_ZNK5Q3UrleqERK7QString
libQt3Support.so.4:_ZNK5Q3UrleqERKS_
libQt3Support.so.4:_ZNK6Q3Grid10metaObjectEv
libQt3Support.so.4:_ZNK6Q3Grid8sizeHintEv
libQt3Support.so.4:_ZNK6Q3HBox10metaObjectEv
libQt3Support.so.4:_ZNK6Q3HBox8sizeHintEv
libQt3Support.so.4:_ZNK6Q3Http10metaObjectEv
libQt3Support.so.4:_ZNK6Q3Http11errorStringEv
libQt3Support.so.4:_ZNK6Q3Http14bytesAvailableEv
libQt3Support.so.4:_ZNK6Q3Http14currentRequestEv
libQt3Support.so.4:_ZNK6Q3Http18hasPendingRequestsEv
libQt3Support.so.4:_ZNK6Q3Http19currentSourceDeviceEv
libQt3Support.so.4:_ZNK6Q3Http19supportedOperationsEv
libQt3Support.so.4:_ZNK6Q3Http24currentDestinationDeviceEv
libQt3Support.so.4:_ZNK6Q3Http5errorEv
libQt3Support.so.4:_ZNK6Q3Http5stateEv
libQt3Support.so.4:_ZNK6Q3Http9currentIdEv
libQt3Support.so.4:_ZNK6Q3VBox10metaObjectEv
libQt3Support.so.4:_ZNK7Q3Accel10metaObjectEv
libQt3Support.so.4:_ZNK7Q3Accel13isItemEnabledEi
libQt3Support.so.4:_ZNK7Q3Accel15ignoreWhatsThisEv
libQt3Support.so.4:_ZNK7Q3Accel5countEv
libQt3Support.so.4:_ZNK7Q3Accel7findKeyERK12QKeySequence
libQt3Support.so.4:_ZNK7Q3Accel9isEnabledEv
libQt3Support.so.4:_ZNK7Q3Accel9whatsThisEi
libQt3Support.so.4:_ZNK7Q3Frame10frameWidthEv
libQt3Support.so.4:_ZNK7Q3Frame10metaObjectEv
libQt3Support.so.4:_ZNK7Q3Frame12contentsRectEv
libQt3Support.so.4:_ZNK7Q3GDict10statisticsEv
libQt3Support.so.4:_ZNK7Q3GDict5writeER11QDataStream
libQt3Support.so.4:_ZNK7Q3GDict5writeER11QDataStreamPv
libQt3Support.so.4:_ZNK7Q3GList11containsRefEPv
libQt3Support.so.4:_ZNK7Q3GList5writeER11QDataStream
libQt3Support.so.4:_ZNK7Q3GList5writeER11QDataStreamPv
libQt3Support.so.4:_ZNK7Q3GList8containsEPv
libQt3Support.so.4:_ZNK7Q3GList8toVectorEP9Q3GVector
libQt3Support.so.4:_ZNK7Q3GListeqERKS_
libQt3Support.so.4:_ZNK7Q3Table10cellWidgetEii
libQt3Support.so.4:_ZNK7Q3Table10focusStyleEv
libQt3Support.so.4:_ZNK7Q3Table10isReadOnlyEv
libQt3Support.so.4:_ZNK7Q3Table10isSelectedEii
libQt3Support.so.4:_ZNK7Q3Table10isSelectedEiib
libQt3Support.so.4:_ZNK7Q3Table10metaObjectEv
libQt3Support.so.4:_ZNK7Q3Table11columnWidthEi
libQt3Support.so.4:_ZNK7Q3Table11currEditColEv
libQt3Support.so.4:_ZNK7Q3Table11currEditRowEv
libQt3Support.so.4:_ZNK7Q3Table11dragEnabledEv
libQt3Support.so.4:_ZNK7Q3Table11isRowHiddenEi
libQt3Support.so.4:_ZNK7Q3Table12cellGeometryEii
libQt3Support.so.4:_ZNK7Q3Table12createEditorEiib
libQt3Support.so.4:_ZNK7Q3Table13isRowReadOnlyEi
libQt3Support.so.4:_ZNK7Q3Table13isRowSelectedEib
libQt3Support.so.4:_ZNK7Q3Table13numSelectionsEv
libQt3Support.so.4:_ZNK7Q3Table13selectionModeEv
libQt3Support.so.4:_ZNK7Q3Table14isColumnHiddenEi
libQt3Support.so.4:_ZNK7Q3Table14verticalHeaderEv
libQt3Support.so.4:_ZNK7Q3Table16currentSelectionEv
libQt3Support.so.4:_ZNK7Q3Table16horizontalHeaderEv
libQt3Support.so.4:_ZNK7Q3Table16inputMethodQueryEN2Qt16InputMethodQueryE
libQt3Support.so.4:_ZNK7Q3Table16isColumnReadOnlyEi
libQt3Support.so.4:_ZNK7Q3Table16isColumnSelectedEib
libQt3Support.so.4:_ZNK7Q3Table16isRowStretchableEi
libQt3Support.so.4:_ZNK7Q3Table16rowMovingEnabledEv
libQt3Support.so.4:_ZNK7Q3Table19columnMovingEnabledEv
libQt3Support.so.4:_ZNK7Q3Table19isColumnStretchableEi
libQt3Support.so.4:_ZNK7Q3Table4itemEii
libQt3Support.so.4:_ZNK7Q3Table4textEii
libQt3Support.so.4:_ZNK7Q3Table5rowAtEi
libQt3Support.so.4:_ZNK7Q3Table6pixmapEii
libQt3Support.so.4:_ZNK7Q3Table6rowPosEi
libQt3Support.so.4:_ZNK7Q3Table7indexOfEii
libQt3Support.so.4:_ZNK7Q3Table7numColsEv
libQt3Support.so.4:_ZNK7Q3Table7numRowsEv
libQt3Support.so.4:_ZNK7Q3Table7sortingEv
libQt3Support.so.4:_ZNK7Q3Table8cellRectEii
libQt3Support.so.4:_ZNK7Q3Table8columnAtEi
libQt3Support.so.4:_ZNK7Q3Table8editModeEv
libQt3Support.so.4:_ZNK7Q3Table8showGridEv
libQt3Support.so.4:_ZNK7Q3Table8sizeHintEv
libQt3Support.so.4:_ZNK7Q3Table9columnPosEi
libQt3Support.so.4:_ZNK7Q3Table9isEditingEv
libQt3Support.so.4:_ZNK7Q3Table9rowHeightEi
libQt3Support.so.4:_ZNK7Q3Table9selectionEi
libQt3Support.so.4:_ZNK7Q3Table9tableSizeEv
libQt3Support.so.4:_ZNK8Q3Action10metaObjectEv
libQt3Support.so.4:_ZNK8Q3Action14isToggleActionEv
libQt3Support.so.4:_ZNK8Q3Action4isOnEv
libQt3Support.so.4:_ZNK8Q3Action4textEv
libQt3Support.so.4:_ZNK8Q3Action5accelEv
libQt3Support.so.4:_ZNK8Q3Action7iconSetEv
libQt3Support.so.4:_ZNK8Q3Action7toolTipEv
libQt3Support.so.4:_ZNK8Q3Action8menuTextEv
libQt3Support.so.4:_ZNK8Q3Action9isEnabledEv
libQt3Support.so.4:_ZNK8Q3Action9isVisibleEv
libQt3Support.so.4:_ZNK8Q3Action9statusTipEv
libQt3Support.so.4:_ZNK8Q3Action9whatsThisEv
libQt3Support.so.4:_ZNK8Q3Button10metaObjectEv
libQt3Support.so.4:_ZNK8Q3Canvas10collisionsERK12Q3PointArrayPK12Q3CanvasItemb
libQt3Support.so.4:_ZNK8Q3Canvas10collisionsERK5QRect
libQt3Support.so.4:_ZNK8Q3Canvas10collisionsERK6QPoint
libQt3Support.so.4:_ZNK8Q3Canvas10metaObjectEv
libQt3Support.so.4:_ZNK8Q3Canvas15backgroundColorEv
libQt3Support.so.4:_ZNK8Q3Canvas15chunkContainingEii
libQt3Support.so.4:_ZNK8Q3Canvas16backgroundPixmapEv
libQt3Support.so.4:_ZNK8Q3Canvas5chunkEii
libQt3Support.so.4:_ZNK8Q3GArray4findEPKcjj
libQt3Support.so.4:_ZNK8Q3GArray7bsearchEPKcj
libQt3Support.so.4:_ZNK8Q3GArray7isEqualERKS_
libQt3Support.so.4:_ZNK8Q3GArray8containsEPKcj
libQt3Support.so.4:_ZNK8Q3GCache10find_otherEPKcb
libQt3Support.so.4:_ZNK8Q3GCache10statisticsEv
libQt3Support.so.4:_ZNK8Q3GCache11find_stringERK7QStringb
libQt3Support.so.4:_ZNK8Q3GCache4sizeEv
libQt3Support.so.4:_ZNK8Q3GCache5countEv
libQt3Support.so.4:_ZNK8Q3Header10mapToIndexEi
libQt3Support.so.4:_ZNK8Q3Header10metaObjectEv
libQt3Support.so.4:_ZNK8Q3Header10sectionPosEi
libQt3Support.so.4:_ZNK8Q3Header11headerWidthEv
libQt3Support.so.4:_ZNK8Q3Header11mapToActualEi
libQt3Support.so.4:_ZNK8Q3Header11sectionRectEi
libQt3Support.so.4:_ZNK8Q3Header11sectionSizeEi
libQt3Support.so.4:_ZNK8Q3Header12mapToLogicalEi
libQt3Support.so.4:_ZNK8Q3Header12mapToSectionEi
libQt3Support.so.4:_ZNK8Q3Header14isClickEnabledEi
libQt3Support.so.4:_ZNK8Q3Header15isMovingEnabledEv
libQt3Support.so.4:_ZNK8Q3Header15isResizeEnabledEi
libQt3Support.so.4:_ZNK8Q3Header15sectionSizeHintEiRK12QFontMetrics
libQt3Support.so.4:_ZNK8Q3Header16isStretchEnabledEi
libQt3Support.so.4:_ZNK8Q3Header16isStretchEnabledEv
libQt3Support.so.4:_ZNK8Q3Header18sortIndicatorOrderEv
libQt3Support.so.4:_ZNK8Q3Header20sortIndicatorSectionEv
libQt3Support.so.4:_ZNK8Q3Header4pPosEi
libQt3Support.so.4:_ZNK8Q3Header5countEv
libQt3Support.so.4:_ZNK8Q3Header5labelEi
libQt3Support.so.4:_ZNK8Q3Header5pSizeEi
libQt3Support.so.4:_ZNK8Q3Header6offsetEv
libQt3Support.so.4:_ZNK8Q3Header7cellPosEi
libQt3Support.so.4:_ZNK8Q3Header7iconSetEi
libQt3Support.so.4:_ZNK8Q3Header7reverseEv
libQt3Support.so.4:_ZNK8Q3Header8sizeHintEv
libQt3Support.so.4:_ZNK8Q3Header9sectionAtEi
libQt3Support.so.4:_ZNK8Q3Signal10metaObjectEv
libQt3Support.so.4:_ZNK8Q3Signal5valueEv
libQt3Support.so.4:_ZNK8Q3Signal9parameterEv
libQt3Support.so.4:_ZNK8Q3Socket10metaObjectEv
libQt3Support.so.4:_ZNK8Q3Socket11canReadLineEv
libQt3Support.so.4:_ZNK8Q3Socket11peerAddressEv
libQt3Support.so.4:_ZNK8Q3Socket11waitForMoreEi
libQt3Support.so.4:_ZNK8Q3Socket11waitForMoreEiPb
libQt3Support.so.4:_ZNK8Q3Socket12bytesToWriteEv
libQt3Support.so.4:_ZNK8Q3Socket14bytesAvailableEv
libQt3Support.so.4:_ZNK8Q3Socket14readBufferSizeEv
libQt3Support.so.4:_ZNK8Q3Socket2atEv
libQt3Support.so.4:_ZNK8Q3Socket4portEv
libQt3Support.so.4:_ZNK8Q3Socket4sizeEv
libQt3Support.so.4:_ZNK8Q3Socket5atEndEv
libQt3Support.so.4:_ZNK8Q3Socket5stateEv
libQt3Support.so.4:_ZNK8Q3Socket6socketEv
libQt3Support.so.4:_ZNK8Q3Socket7addressEv
libQt3Support.so.4:_ZNK8Q3Socket8peerNameEv
libQt3Support.so.4:_ZNK8Q3Socket8peerPortEv
libQt3Support.so.4:_ZNK8Q3Wizard10backButtonEv
libQt3Support.so.4:_ZNK8Q3Wizard10helpButtonEv
libQt3Support.so.4:_ZNK8Q3Wizard10metaObjectEv
libQt3Support.so.4:_ZNK8Q3Wizard10nextButtonEv
libQt3Support.so.4:_ZNK8Q3Wizard11appropriateEP7QWidget
libQt3Support.so.4:_ZNK8Q3Wizard11currentPageEv
libQt3Support.so.4:_ZNK8Q3Wizard12cancelButtonEv
libQt3Support.so.4:_ZNK8Q3Wizard12finishButtonEv
libQt3Support.so.4:_ZNK8Q3Wizard4pageEi
libQt3Support.so.4:_ZNK8Q3Wizard5titleEP7QWidget
libQt3Support.so.4:_ZNK8Q3Wizard7indexOfEP7QWidget
libQt3Support.so.4:_ZNK8Q3Wizard9pageCountEv
libQt3Support.so.4:_ZNK8Q3Wizard9titleFontEv
libQt3Support.so.4:_ZNK9Q3CString11leftJustifyEjcb
libQt3Support.so.4:_ZNK9Q3CString12rightJustifyEjcb
libQt3Support.so.4:_ZNK9Q3CString5toIntEPb
libQt3Support.so.4:_ZNK9Q3CString6toLongEPb
libQt3Support.so.4:_ZNK9Q3CString6toUIntEPb
libQt3Support.so.4:_ZNK9Q3CString7toFloatEPb
libQt3Support.so.4:_ZNK9Q3CString7toShortEPb
libQt3Support.so.4:_ZNK9Q3CString7toULongEPb
libQt3Support.so.4:_ZNK9Q3CString8toDoubleEPb
libQt3Support.so.4:_ZNK9Q3CString8toUShortEPb
libQt3Support.so.4:_ZNK9Q3GVector11containsRefEPv
libQt3Support.so.4:_ZNK9Q3GVector4findEPvj
libQt3Support.so.4:_ZNK9Q3GVector5writeER11QDataStream
libQt3Support.so.4:_ZNK9Q3GVector5writeER11QDataStreamPv
libQt3Support.so.4:_ZNK9Q3GVector6toListEP7Q3GList
libQt3Support.so.4:_ZNK9Q3GVector7bsearchEPv
libQt3Support.so.4:_ZNK9Q3GVector7findRefEPvj
libQt3Support.so.4:_ZNK9Q3GVector8containsEPv
libQt3Support.so.4:_ZNK9Q3GVectoreqERKS_
libQt3Support.so.4:_ZNK9Q3ListBox10columnModeEv
libQt3Support.so.4:_ZNK9Q3ListBox10currentRowEv
libQt3Support.so.4:_ZNK9Q3ListBox10isSelectedEPK13Q3ListBoxItem
libQt3Support.so.4:_ZNK9Q3ListBox10isSelectedEi
libQt3Support.so.4:_ZNK9Q3ListBox10itemHeightEi
libQt3Support.so.4:_ZNK9Q3ListBox10metaObjectEv
libQt3Support.so.4:_ZNK9Q3ListBox10numColumnsEv
libQt3Support.so.4:_ZNK9Q3ListBox11currentItemEv
libQt3Support.so.4:_ZNK9Q3ListBox11tryGeometryEii
libQt3Support.so.4:_ZNK9Q3ListBox12maxItemWidthEv
libQt3Support.so.4:_ZNK9Q3ListBox12selectedItemEv
libQt3Support.so.4:_ZNK9Q3ListBox13currentColumnEv
libQt3Support.so.4:_ZNK9Q3ListBox13selectionModeEv
libQt3Support.so.4:_ZNK9Q3ListBox13variableWidthEv
libQt3Support.so.4:_ZNK9Q3ListBox14variableHeightEv
libQt3Support.so.4:_ZNK9Q3ListBox15minimumSizeHintEv
libQt3Support.so.4:_ZNK9Q3ListBox15numItemsVisibleEv
libQt3Support.so.4:_ZNK9Q3ListBox16inputMethodQueryEN2Qt16InputMethodQueryE
libQt3Support.so.4:_ZNK9Q3ListBox16isMultiSelectionEv
libQt3Support.so.4:_ZNK9Q3ListBox17isRubberSelectingEv
libQt3Support.so.4:_ZNK9Q3ListBox4itemEi
libQt3Support.so.4:_ZNK9Q3ListBox4textEi
libQt3Support.so.4:_ZNK9Q3ListBox5countEv
libQt3Support.so.4:_ZNK9Q3ListBox5indexEPK13Q3ListBoxItem
libQt3Support.so.4:_ZNK9Q3ListBox5rowAtEi
libQt3Support.so.4:_ZNK9Q3ListBox6itemAtERK6QPoint
libQt3Support.so.4:_ZNK9Q3ListBox6pixmapEi
libQt3Support.so.4:_ZNK9Q3ListBox7numRowsEv
libQt3Support.so.4:_ZNK9Q3ListBox7rowModeEv
libQt3Support.so.4:_ZNK9Q3ListBox7topItemEv
libQt3Support.so.4:_ZNK9Q3ListBox8columnAtEi
libQt3Support.so.4:_ZNK9Q3ListBox8doLayoutEv
libQt3Support.so.4:_ZNK9Q3ListBox8findItemERK7QStringj
libQt3Support.so.4:_ZNK9Q3ListBox8itemRectEP13Q3ListBoxItem
libQt3Support.so.4:_ZNK9Q3ListBox8sizeHintEv
libQt3Support.so.4:_ZNK9Q3ListBox9firstItemEv
libQt3Support.so.4:_ZNK9Q3LocalFs10metaObjectEv
libQt3Support.so.4:_ZNK9Q3LocalFs13calcBlockSizeEi
libQt3Support.so.4:_ZNK9Q3LocalFs19supportedOperationsEv
libQt3Support.so.4:_ZNK9Q3Process10exitStatusEv
libQt3Support.so.4:_ZNK9Q3Process10metaObjectEv
libQt3Support.so.4:_ZNK9Q3Process10normalExitEv
libQt3Support.so.4:_ZNK9Q3Process12tryTerminateEv
libQt3Support.so.4:_ZNK9Q3Process13communicationEv
libQt3Support.so.4:_ZNK9Q3Process16workingDirectoryEv
libQt3Support.so.4:_ZNK9Q3Process17canReadLineStderrEv
libQt3Support.so.4:_ZNK9Q3Process17canReadLineStdoutEv
libQt3Support.so.4:_ZNK9Q3Process4killEv
libQt3Support.so.4:_ZNK9Q3Process9argumentsEv
libQt3Support.so.4:_ZNK9Q3Process9isRunningEv
libQt3Support.so.4:_ZNK9Q3SqlForm10metaObjectEv
libQt3Support.so.4:_ZNK9Q3SqlForm13fieldToWidgetEP9QSqlField
libQt3Support.so.4:_ZNK9Q3SqlForm13widgetToFieldEP7QWidget
libQt3Support.so.4:_ZNK9Q3SqlForm5countEv
libQt3Support.so.4:_ZNK9Q3SqlForm6widgetEi
libQt3Support.so.4:_ZNK9Q3ToolBar10mainWindowEv
libQt3Support.so.4:_ZNK9Q3ToolBar10metaObjectEv
libQt3Support.so.4:_ZNK9Q3ToolBar11minimumSizeEv
libQt3Support.so.4:_ZNK9Q3ToolBar15minimumSizeHintEv
libQt3Support.so.4:_ZNK9Q3ToolBar5labelEv
libQt3Support.so.4:_ZNK9Q3UriDrag10metaObjectEv
libQt3Support.so.4:_ZThn16_N10Q3ComboBoxD0Ev
libQt3Support.so.4:_ZThn16_N10Q3ComboBoxD1Ev
libQt3Support.so.4:_ZThn16_N10Q3DataViewD0Ev
libQt3Support.so.4:_ZThn16_N10Q3DataViewD1Ev
libQt3Support.so.4:_ZThn16_N10Q3DateEditD0Ev
libQt3Support.so.4:_ZThn16_N10Q3DateEditD1Ev
libQt3Support.so.4:_ZThn16_N10Q3DockAreaD0Ev
libQt3Support.so.4:_ZThn16_N10Q3DockAreaD1Ev
libQt3Support.so.4:_ZThn16_N10Q3GridViewD0Ev
libQt3Support.so.4:_ZThn16_N10Q3GridViewD1Ev
libQt3Support.so.4:_ZThn16_N10Q3GroupBoxD0Ev
libQt3Support.so.4:_ZThn16_N10Q3GroupBoxD1Ev
libQt3Support.so.4:_ZThn16_N10Q3IconDragD0Ev
libQt3Support.so.4:_ZThn16_N10Q3IconDragD1Ev
libQt3Support.so.4:_ZThn16_N10Q3IconViewD0Ev
libQt3Support.so.4:_ZThn16_N10Q3IconViewD1Ev
libQt3Support.so.4:_ZThn16_N10Q3ListViewD0Ev
libQt3Support.so.4:_ZThn16_N10Q3ListViewD1Ev
libQt3Support.so.4:_ZThn16_N10Q3TextDragD0Ev
libQt3Support.so.4:_ZThn16_N10Q3TextDragD1Ev
libQt3Support.so.4:_ZThn16_N10Q3TextEditD0Ev
libQt3Support.so.4:_ZThn16_N10Q3TextEditD1Ev
libQt3Support.so.4:_ZThn16_N10Q3TextViewD0Ev
libQt3Support.so.4:_ZThn16_N10Q3TextViewD1Ev
libQt3Support.so.4:_ZThn16_N10Q3TimeEditD0Ev
libQt3Support.so.4:_ZThn16_N10Q3TimeEditD1Ev
libQt3Support.so.4:_ZThn16_N10Q3TitleBarD0Ev
libQt3Support.so.4:_ZThn16_N10Q3TitleBarD1Ev
libQt3Support.so.4:_ZThn16_N11Q3DataTableD0Ev
libQt3Support.so.4:_ZThn16_N11Q3DataTableD1Ev
libQt3Support.so.4:_ZThn16_N11Q3HGroupBoxD0Ev
libQt3Support.so.4:_ZThn16_N11Q3HGroupBoxD1Ev
libQt3Support.so.4:_ZThn16_N11Q3ImageDragD0Ev
libQt3Support.so.4:_ZThn16_N11Q3ImageDragD1Ev
libQt3Support.so.4:_ZThn16_N11Q3TabDialogD0Ev
libQt3Support.so.4:_ZThn16_N11Q3TabDialogD1Ev
libQt3Support.so.4:_ZThn16_N11Q3VGroupBoxD0Ev
libQt3Support.so.4:_ZThn16_N11Q3VGroupBoxD1Ev
libQt3Support.so.4:_ZThn16_N12Q3CanvasViewD0Ev
libQt3Support.so.4:_ZThn16_N12Q3CanvasViewD1Ev
libQt3Support.so.4:_ZThn16_N12Q3DockWindowD0Ev
libQt3Support.so.4:_ZThn16_N12Q3DockWindowD1Ev
libQt3Support.so.4:_ZThn16_N12Q3DragObjectD0Ev
libQt3Support.so.4:_ZThn16_N12Q3DragObjectD1Ev
libQt3Support.so.4:_ZThn16_N12Q3FileDialogD0Ev
libQt3Support.so.4:_ZThn16_N12Q3FileDialogD1Ev
libQt3Support.so.4:_ZThn16_N12Q3MainWindowD0Ev
libQt3Support.so.4:_ZThn16_N12Q3MainWindowD1Ev
libQt3Support.so.4:_ZThn16_N12Q3ScrollViewD0Ev
libQt3Support.so.4:_ZThn16_N12Q3ScrollViewD1Ev
libQt3Support.so.4:_ZThn16_N12Q3SpinWidgetD0Ev
libQt3Support.so.4:_ZThn16_N12Q3SpinWidgetD1Ev
libQt3Support.so.4:_ZThn16_N12Q3StoredDragD0Ev
libQt3Support.so.4:_ZThn16_N12Q3StoredDragD1Ev
libQt3Support.so.4:_ZThn16_N13Q3ButtonGroupD0Ev
libQt3Support.so.4:_ZThn16_N13Q3ButtonGroupD1Ev
libQt3Support.so.4:_ZThn16_N13Q3DataBrowserD0Ev
libQt3Support.so.4:_ZThn16_N13Q3DataBrowserD1Ev
libQt3Support.so.4:_ZThn16_N13Q3TextBrowserD0Ev
libQt3Support.so.4:_ZThn16_N13Q3TextBrowserD1Ev
libQt3Support.so.4:_ZThn16_N13Q3UrlOperator4cdUpEv
libQt3Support.so.4:_ZThn16_N13Q3UrlOperator5parseERK7QString
libQt3Support.so.4:_ZThn16_N13Q3UrlOperator5resetEv
libQt3Support.so.4:_ZThn16_N13Q3UrlOperator7setPathERK7QString
libQt3Support.so.4:_ZThn16_N13Q3UrlOperatorD0Ev
libQt3Support.so.4:_ZThn16_N13Q3UrlOperatorD1Ev
libQt3Support.so.4:_ZThn16_N13Q3WidgetStackD0Ev
libQt3Support.so.4:_ZThn16_N13Q3WidgetStackD1Ev
libQt3Support.so.4:_ZThn16_N14Q3DateTimeEditD0Ev
libQt3Support.so.4:_ZThn16_N14Q3DateTimeEditD1Ev
libQt3Support.so.4:_ZThn16_N15Q3MultiLineEditD0Ev
libQt3Support.so.4:_ZThn16_N15Q3MultiLineEditD1Ev
libQt3Support.so.4:_ZThn16_N16Q3DockAreaLayout10invalidateEv
libQt3Support.so.4:_ZThn16_N16Q3DockAreaLayout11setGeometryERK5QRect
libQt3Support.so.4:_ZThn16_N16Q3ProgressDialogD0Ev
libQt3Support.so.4:_ZThn16_N16Q3ProgressDialogD1Ev
libQt3Support.so.4:_ZThn16_N7Q3FrameD0Ev
libQt3Support.so.4:_ZThn16_N7Q3FrameD1Ev
libQt3Support.so.4:_ZThn16_N7Q3TableD0Ev
libQt3Support.so.4:_ZThn16_N7Q3TableD1Ev
libQt3Support.so.4:_ZThn16_N8Q3ButtonD0Ev
libQt3Support.so.4:_ZThn16_N8Q3ButtonD1Ev
libQt3Support.so.4:_ZThn16_N8Q3HeaderD0Ev
libQt3Support.so.4:_ZThn16_N8Q3HeaderD1Ev
libQt3Support.so.4:_ZThn16_N8Q3WizardD0Ev
libQt3Support.so.4:_ZThn16_N8Q3WizardD1Ev
libQt3Support.so.4:_ZThn16_N9Q3ListBoxD0Ev
libQt3Support.so.4:_ZThn16_N9Q3ListBoxD1Ev
libQt3Support.so.4:_ZThn16_N9Q3ToolBarD0Ev
libQt3Support.so.4:_ZThn16_N9Q3ToolBarD1Ev
libQt3Support.so.4:_ZThn16_N9Q3UriDragD0Ev
libQt3Support.so.4:_ZThn16_N9Q3UriDragD1Ev
libQt3Support.so.4:_ZThn16_NK10Q3IconDrag11encodedDataEPKc
libQt3Support.so.4:_ZThn16_NK10Q3IconDrag6formatEi
libQt3Support.so.4:_ZThn16_NK10Q3TextDrag11encodedDataEPKc
libQt3Support.so.4:_ZThn16_NK10Q3TextDrag6formatEi
libQt3Support.so.4:_ZThn16_NK11Q3ImageDrag11encodedDataEPKc
libQt3Support.so.4:_ZThn16_NK11Q3ImageDrag6formatEi
libQt3Support.so.4:_ZThn16_NK12Q3StoredDrag11encodedDataEPKc
libQt3Support.so.4:_ZThn16_NK12Q3StoredDrag6formatEi
libQt3Support.so.4:_ZThn16_NK16Q3DockAreaLayout11minimumSizeEv
libQt3Support.so.4:_ZThn16_NK16Q3DockAreaLayout14heightForWidthEi
libQt3Support.so.4:_ZThn16_NK16Q3DockAreaLayout17hasHeightForWidthEv
libQt3Support.so.4:_ZThn16_NK16Q3DockAreaLayout8sizeHintEv
libQt3Support.so.4:_ZlsR11QDataStreamRK7Q3GList
libQt3Support.so.4:_ZlsR11QDataStreamRK9Q3CString
libQt3Support.so.4:_ZlsR11QDataStreamRK9Q3GVector
libQt3Support.so.4:_ZlsR11QTextStreamRK10Q3DockArea
libQt3Support.so.4:_ZlsR11QTextStreamRK12Q3MainWindow
libQt3Support.so.4:_ZrsR11QDataStreamR7Q3GList
libQt3Support.so.4:_ZrsR11QDataStreamR9Q3CString
libQt3Support.so.4:_ZrsR11QDataStreamR9Q3GVector
libQt3Support.so.4:_ZrsR11QTextStreamR10Q3DockArea
libQt3Support.so.4:_ZrsR11QTextStreamR12Q3MainWindow
libQtCLucene.so.4:_ZN12QCLuceneHits2idEi
libQtCLucene.so.4:_ZN12QCLuceneHits5scoreEi
libQtCLucene.so.4:_ZN12QCLuceneHits8documentEi
libQtCLucene.so.4:_ZN12QCLuceneHitsC1ERK16QCLuceneSearcherRK13QCLuceneQueryRK14QCLuceneFilter
libQtCLucene.so.4:_ZN12QCLuceneHitsC1ERK16QCLuceneSearcherRK13QCLuceneQueryRK14QCLuceneFilterRK12QCLuceneSort
libQtCLucene.so.4:_ZN12QCLuceneHitsC2ERK16QCLuceneSearcherRK13QCLuceneQueryRK14QCLuceneFilter
libQtCLucene.so.4:_ZN12QCLuceneHitsC2ERK16QCLuceneSearcherRK13QCLuceneQueryRK14QCLuceneFilterRK12QCLuceneSort
libQtCLucene.so.4:_ZN12QCLuceneHitsD0Ev
libQtCLucene.so.4:_ZN12QCLuceneHitsD1Ev
libQtCLucene.so.4:_ZN12QCLuceneHitsD2Ev
libQtCLucene.so.4:_ZN12QCLuceneSort7setSortERK11QStringList
libQtCLucene.so.4:_ZN12QCLuceneSort7setSortERK7QStringb
libQtCLucene.so.4:_ZN12QCLuceneSortC1ERK11QStringList
libQtCLucene.so.4:_ZN12QCLuceneSortC1ERK7QStringb
libQtCLucene.so.4:_ZN12QCLuceneSortC1Ev
libQtCLucene.so.4:_ZN12QCLuceneSortC2ERK11QStringList
libQtCLucene.so.4:_ZN12QCLuceneSortC2ERK7QStringb
libQtCLucene.so.4:_ZN12QCLuceneSortC2Ev
libQtCLucene.so.4:_ZN12QCLuceneSortD0Ev
libQtCLucene.so.4:_ZN12QCLuceneSortD1Ev
libQtCLucene.so.4:_ZN12QCLuceneSortD2Ev
libQtCLucene.so.4:_ZN12QCLuceneTerm3setERK7QStringS2_
libQtCLucene.so.4:_ZN12QCLuceneTerm3setERK7QStringS2_b
libQtCLucene.so.4:_ZN12QCLuceneTerm3setERKS_RK7QString
libQtCLucene.so.4:_ZN12QCLuceneTermC1ERK7QStringS2_
libQtCLucene.so.4:_ZN12QCLuceneTermC1ERKS_RK7QString
libQtCLucene.so.4:_ZN12QCLuceneTermC1Ev
libQtCLucene.so.4:_ZN12QCLuceneTermC2ERK7QStringS2_
libQtCLucene.so.4:_ZN12QCLuceneTermC2ERKS_RK7QString
libQtCLucene.so.4:_ZN12QCLuceneTermC2Ev
libQtCLucene.so.4:_ZN12QCLuceneTermD0Ev
libQtCLucene.so.4:_ZN12QCLuceneTermD1Ev
libQtCLucene.so.4:_ZN12QCLuceneTermD2Ev
libQtCLucene.so.4:_ZN13QCLuceneField12setOmitNormsEb
libQtCLucene.so.4:_ZN13QCLuceneField8setBoostEd
libQtCLucene.so.4:_ZN13QCLuceneField9setConfigEi
libQtCLucene.so.4:_ZN13QCLuceneFieldC1ERK7QStringP14QCLuceneReaderi
libQtCLucene.so.4:_ZN13QCLuceneFieldC1ERK7QStringS2_i
libQtCLucene.so.4:_ZN13QCLuceneFieldC1Ev
libQtCLucene.so.4:_ZN13QCLuceneFieldC2ERK7QStringP14QCLuceneReaderi
libQtCLucene.so.4:_ZN13QCLuceneFieldC2ERK7QStringS2_i
libQtCLucene.so.4:_ZN13QCLuceneFieldC2Ev
libQtCLucene.so.4:_ZN13QCLuceneFieldD1Ev
libQtCLucene.so.4:_ZN13QCLuceneFieldD2Ev
libQtCLucene.so.4:_ZN13QCLuceneQuery8setBoostEd
libQtCLucene.so.4:_ZN13QCLuceneQueryC1Ev
libQtCLucene.so.4:_ZN13QCLuceneQueryC2Ev
libQtCLucene.so.4:_ZN13QCLuceneQueryD0Ev
libQtCLucene.so.4:_ZN13QCLuceneQueryD1Ev
libQtCLucene.so.4:_ZN13QCLuceneQueryD2Ev
libQtCLucene.so.4:_ZN13QCLuceneToken10growBufferEj
libQtCLucene.so.4:_ZN13QCLuceneToken11setTermTextERK7QString
libQtCLucene.so.4:_ZN13QCLuceneToken12setEndOffsetEi
libQtCLucene.so.4:_ZN13QCLuceneToken14setStartOffsetEi
libQtCLucene.so.4:_ZN13QCLuceneToken20setPositionIncrementEi
libQtCLucene.so.4:_ZN13QCLuceneToken7setTypeERK7QString
libQtCLucene.so.4:_ZN13QCLuceneTokenC1ERK7QStringiiS2_
libQtCLucene.so.4:_ZN13QCLuceneTokenC1Ev
libQtCLucene.so.4:_ZN13QCLuceneTokenC2ERK7QStringiiS2_
libQtCLucene.so.4:_ZN13QCLuceneTokenC2Ev
libQtCLucene.so.4:_ZN13QCLuceneTokenD0Ev
libQtCLucene.so.4:_ZN13QCLuceneTokenD1Ev
libQtCLucene.so.4:_ZN13QCLuceneTokenD2Ev
libQtCLucene.so.4:_ZN14QCLuceneFilterC1Ev
libQtCLucene.so.4:_ZN14QCLuceneFilterC2Ev
libQtCLucene.so.4:_ZN14QCLuceneFilterD0Ev
libQtCLucene.so.4:_ZN14QCLuceneFilterD1Ev
libQtCLucene.so.4:_ZN14QCLuceneFilterD2Ev
libQtCLucene.so.4:_ZN14QCLuceneReaderC1Ev
libQtCLucene.so.4:_ZN14QCLuceneReaderC2Ev
libQtCLucene.so.4:_ZN14QCLuceneReaderD0Ev
libQtCLucene.so.4:_ZN14QCLuceneReaderD1Ev
libQtCLucene.so.4:_ZN14QCLuceneReaderD2Ev
libQtCLucene.so.4:_ZN16QCLuceneAnalyzerC1Ev
libQtCLucene.so.4:_ZN16QCLuceneAnalyzerC2Ev
libQtCLucene.so.4:_ZN16QCLuceneAnalyzerD0Ev
libQtCLucene.so.4:_ZN16QCLuceneAnalyzerD1Ev
libQtCLucene.so.4:_ZN16QCLuceneAnalyzerD2Ev
libQtCLucene.so.4:_ZN16QCLuceneDocument11removeFieldERK7QString
libQtCLucene.so.4:_ZN16QCLuceneDocument12removeFieldsERK7QString
libQtCLucene.so.4:_ZN16QCLuceneDocument3addEP13QCLuceneField
libQtCLucene.so.4:_ZN16QCLuceneDocument5clearEv
libQtCLucene.so.4:_ZN16QCLuceneDocument8setBoostEd
libQtCLucene.so.4:_ZN16QCLuceneDocumentC1Ev
libQtCLucene.so.4:_ZN16QCLuceneDocumentC2Ev
libQtCLucene.so.4:_ZN16QCLuceneDocumentD1Ev
libQtCLucene.so.4:_ZN16QCLuceneDocumentD2Ev
libQtCLucene.so.4:_ZN16QCLuceneSearcher6searchERK13QCLuceneQuery
libQtCLucene.so.4:_ZN16QCLuceneSearcher6searchERK13QCLuceneQueryRK12QCLuceneSort
libQtCLucene.so.4:_ZN16QCLuceneSearcher6searchERK13QCLuceneQueryRK14QCLuceneFilter
libQtCLucene.so.4:_ZN16QCLuceneSearcher6searchERK13QCLuceneQueryRK14QCLuceneFilterRK12QCLuceneSort
libQtCLucene.so.4:_ZN16QCLuceneSearcherC1Ev
libQtCLucene.so.4:_ZN16QCLuceneSearcherC2Ev
libQtCLucene.so.4:_ZN16QCLuceneSearcherD0Ev
libQtCLucene.so.4:_ZN16QCLuceneSearcherD1Ev
libQtCLucene.so.4:_ZN16QCLuceneSearcherD2Ev
libQtCLucene.so.4:_ZN17QCLuceneTermQuery12getClassNameEv
libQtCLucene.so.4:_ZN17QCLuceneTermQueryC1ERK12QCLuceneTerm
libQtCLucene.so.4:_ZN17QCLuceneTermQueryC2ERK12QCLuceneTerm
libQtCLucene.so.4:_ZN17QCLuceneTermQueryD0Ev
libQtCLucene.so.4:_ZN17QCLuceneTermQueryD1Ev
libQtCLucene.so.4:_ZN17QCLuceneTermQueryD2Ev
libQtCLucene.so.4:_ZN17QCLuceneTokenizer4nextER13QCLuceneToken
libQtCLucene.so.4:_ZN17QCLuceneTokenizer5closeEv
libQtCLucene.so.4:_ZN17QCLuceneTokenizerC1ERK14QCLuceneReader
libQtCLucene.so.4:_ZN17QCLuceneTokenizerC1Ev
libQtCLucene.so.4:_ZN17QCLuceneTokenizerC2ERK14QCLuceneReader
libQtCLucene.so.4:_ZN17QCLuceneTokenizerC2Ev
libQtCLucene.so.4:_ZN17QCLuceneTokenizerD0Ev
libQtCLucene.so.4:_ZN17QCLuceneTokenizerD1Ev
libQtCLucene.so.4:_ZN17QCLuceneTokenizerD2Ev
libQtCLucene.so.4:_ZN18QCLuceneFileReaderC1ERK7QStringS2_ii
libQtCLucene.so.4:_ZN18QCLuceneFileReaderC2ERK7QStringS2_ii
libQtCLucene.so.4:_ZN18QCLuceneFileReaderD0Ev
libQtCLucene.so.4:_ZN18QCLuceneFileReaderD1Ev
libQtCLucene.so.4:_ZN18QCLuceneFileReaderD2Ev
libQtCLucene.so.4:_ZN18QCLuceneRangeQuery12getClassNameEv
libQtCLucene.so.4:_ZN18QCLuceneRangeQueryC1ERK12QCLuceneTermS2_b
libQtCLucene.so.4:_ZN18QCLuceneRangeQueryC2ERK12QCLuceneTermS2_b
libQtCLucene.so.4:_ZN18QCLuceneRangeQueryD0Ev
libQtCLucene.so.4:_ZN18QCLuceneRangeQueryD1Ev
libQtCLucene.so.4:_ZN18QCLuceneRangeQueryD2Ev
libQtCLucene.so.4:_ZN18QCLuceneSearchableC1Ev
libQtCLucene.so.4:_ZN18QCLuceneSearchableC2Ev
libQtCLucene.so.4:_ZN18QCLuceneSearchableD0Ev
libQtCLucene.so.4:_ZN18QCLuceneSearchableD1Ev
libQtCLucene.so.4:_ZN18QCLuceneSearchableD2Ev
libQtCLucene.so.4:_ZN19QCLuceneHitsPrivateC1ERKS_
libQtCLucene.so.4:_ZN19QCLuceneHitsPrivateC1Ev
libQtCLucene.so.4:_ZN19QCLuceneHitsPrivateC2ERKS_
libQtCLucene.so.4:_ZN19QCLuceneHitsPrivateC2Ev
libQtCLucene.so.4:_ZN19QCLuceneHitsPrivateD1Ev
libQtCLucene.so.4:_ZN19QCLuceneHitsPrivateD2Ev
libQtCLucene.so.4:_ZN19QCLuceneIndexReader10getVersionEv
libQtCLucene.so.4:_ZN19QCLuceneIndexReader11indexExistsERK7QString
libQtCLucene.so.4:_ZN19QCLuceneIndexReader11undeleteAllEv
libQtCLucene.so.4:_ZN19QCLuceneIndexReader12isLuceneFileERK7QString
libQtCLucene.so.4:_ZN19QCLuceneIndexReader12lastModifiedERK7QString
libQtCLucene.so.4:_ZN19QCLuceneIndexReader14deleteDocumentEi
libQtCLucene.so.4:_ZN19QCLuceneIndexReader15deleteDocumentsERK12QCLuceneTerm
libQtCLucene.so.4:_ZN19QCLuceneIndexReader17getCurrentVersionERK7QString
libQtCLucene.so.4:_ZN19QCLuceneIndexReader4openERK7QString
libQtCLucene.so.4:_ZN19QCLuceneIndexReader5closeEv
libQtCLucene.so.4:_ZN19QCLuceneIndexReader6unlockERK7QString
libQtCLucene.so.4:_ZN19QCLuceneIndexReader7setNormEiRK7QStringd
libQtCLucene.so.4:_ZN19QCLuceneIndexReader7setNormEiRK7QStringh
libQtCLucene.so.4:_ZN19QCLuceneIndexReader8documentEiR16QCLuceneDocument
libQtCLucene.so.4:_ZN19QCLuceneIndexReader8hasNormsERK7QString
libQtCLucene.so.4:_ZN19QCLuceneIndexReader8isLockedERK7QString
libQtCLucene.so.4:_ZN19QCLuceneIndexReader9isCurrentEv
libQtCLucene.so.4:_ZN19QCLuceneIndexReaderC1Ev
libQtCLucene.so.4:_ZN19QCLuceneIndexReaderC2Ev
libQtCLucene.so.4:_ZN19QCLuceneIndexReaderD0Ev
libQtCLucene.so.4:_ZN19QCLuceneIndexReaderD1Ev
libQtCLucene.so.4:_ZN19QCLuceneIndexReaderD2Ev
libQtCLucene.so.4:_ZN19QCLuceneIndexWriter10addIndexesERK5QListIP19QCLuceneIndexReaderE
libQtCLucene.so.4:_ZN19QCLuceneIndexWriter11addDocumentER16QCLuceneDocumentR16QCLuceneAnalyzer
libQtCLucene.so.4:_ZN19QCLuceneIndexWriter11getAnalyzerEv
libQtCLucene.so.4:_ZN19QCLuceneIndexWriter14setMergeFactorEi
libQtCLucene.so.4:_ZN19QCLuceneIndexWriter15setMaxMergeDocsEi
libQtCLucene.so.4:_ZN19QCLuceneIndexWriter15setMinMergeDocsEi
libQtCLucene.so.4:_ZN19QCLuceneIndexWriter17setMaxFieldLengthEi
libQtCLucene.so.4:_ZN19QCLuceneIndexWriter18setMaxBufferedDocsEi
libQtCLucene.so.4:_ZN19QCLuceneIndexWriter18setUseCompoundFileEb
libQtCLucene.so.4:_ZN19QCLuceneIndexWriter19setWriteLockTimeoutEx
libQtCLucene.so.4:_ZN19QCLuceneIndexWriter20setCommitLockTimeoutEx
libQtCLucene.so.4:_ZN19QCLuceneIndexWriter20setTermIndexIntervalEi
libQtCLucene.so.4:_ZN19QCLuceneIndexWriter5closeEv
libQtCLucene.so.4:_ZN19QCLuceneIndexWriter8docCountEv
libQtCLucene.so.4:_ZN19QCLuceneIndexWriter8optimizeEv
libQtCLucene.so.4:_ZN19QCLuceneIndexWriterC1ERK7QStringR16QCLuceneAnalyzerbb
libQtCLucene.so.4:_ZN19QCLuceneIndexWriterC2ERK7QStringR16QCLuceneAnalyzerbb
libQtCLucene.so.4:_ZN19QCLuceneIndexWriterD0Ev
libQtCLucene.so.4:_ZN19QCLuceneIndexWriterD1Ev
libQtCLucene.so.4:_ZN19QCLuceneIndexWriterD2Ev
libQtCLucene.so.4:_ZN19QCLucenePhraseQuery12getClassNameEv
libQtCLucene.so.4:_ZN19QCLucenePhraseQuery7addTermERK12QCLuceneTerm
libQtCLucene.so.4:_ZN19QCLucenePhraseQuery7addTermERK12QCLuceneTermi
libQtCLucene.so.4:_ZN19QCLucenePhraseQuery7setSlopEi
libQtCLucene.so.4:_ZN19QCLucenePhraseQueryC1Ev
libQtCLucene.so.4:_ZN19QCLucenePhraseQueryC2Ev
libQtCLucene.so.4:_ZN19QCLucenePhraseQueryD0Ev
libQtCLucene.so.4:_ZN19QCLucenePhraseQueryD1Ev
libQtCLucene.so.4:_ZN19QCLucenePhraseQueryD2Ev
libQtCLucene.so.4:_ZN19QCLucenePrefixQuery12getClassNameEv
libQtCLucene.so.4:_ZN19QCLucenePrefixQueryC1ERK12QCLuceneTerm
libQtCLucene.so.4:_ZN19QCLucenePrefixQueryC2ERK12QCLuceneTerm
libQtCLucene.so.4:_ZN19QCLucenePrefixQueryD0Ev
libQtCLucene.so.4:_ZN19QCLucenePrefixQueryD1Ev
libQtCLucene.so.4:_ZN19QCLucenePrefixQueryD2Ev
libQtCLucene.so.4:_ZN19QCLuceneQueryParser11getAnalyzerEv
libQtCLucene.so.4:_ZN19QCLuceneQueryParser5parseER14QCLuceneReader
libQtCLucene.so.4:_ZN19QCLuceneQueryParser5parseERK7QString
libQtCLucene.so.4:_ZN19QCLuceneQueryParser5parseERK7QStringS2_R16QCLuceneAnalyzer
libQtCLucene.so.4:_ZN19QCLuceneQueryParser8getFieldEv
libQtCLucene.so.4:_ZN19QCLuceneQueryParserC1ERK7QStringR16QCLuceneAnalyzer
libQtCLucene.so.4:_ZN19QCLuceneQueryParserC2ERK7QStringR16QCLuceneAnalyzer
libQtCLucene.so.4:_ZN19QCLuceneQueryParserD0Ev
libQtCLucene.so.4:_ZN19QCLuceneQueryParserD1Ev
libQtCLucene.so.4:_ZN19QCLuceneQueryParserD2Ev
libQtCLucene.so.4:_ZN19QCLuceneSortPrivateC1ERKS_
libQtCLucene.so.4:_ZN19QCLuceneSortPrivateC1Ev
libQtCLucene.so.4:_ZN19QCLuceneSortPrivateC2ERKS_
libQtCLucene.so.4:_ZN19QCLuceneSortPrivateC2Ev
libQtCLucene.so.4:_ZN19QCLuceneSortPrivateD1Ev
libQtCLucene.so.4:_ZN19QCLuceneSortPrivateD2Ev
libQtCLucene.so.4:_ZN19QCLuceneTermPrivateC1ERKS_
libQtCLucene.so.4:_ZN19QCLuceneTermPrivateC1Ev
libQtCLucene.so.4:_ZN19QCLuceneTermPrivateC2ERKS_
libQtCLucene.so.4:_ZN19QCLuceneTermPrivateC2Ev
libQtCLucene.so.4:_ZN19QCLuceneTermPrivateD1Ev
libQtCLucene.so.4:_ZN19QCLuceneTermPrivateD2Ev
libQtCLucene.so.4:_ZN19QCLuceneTokenStream4nextER13QCLuceneToken
libQtCLucene.so.4:_ZN19QCLuceneTokenStream5closeEv
libQtCLucene.so.4:_ZN19QCLuceneTokenStreamC1Ev
libQtCLucene.so.4:_ZN19QCLuceneTokenStreamC2Ev
libQtCLucene.so.4:_ZN19QCLuceneTokenStreamD0Ev
libQtCLucene.so.4:_ZN19QCLuceneTokenStreamD1Ev
libQtCLucene.so.4:_ZN19QCLuceneTokenStreamD2Ev
libQtCLucene.so.4:_ZN20QCLuceneBooleanQuery12getClassNameEv
libQtCLucene.so.4:_ZN20QCLuceneBooleanQuery17setMaxClauseCountEj
libQtCLucene.so.4:_ZN20QCLuceneBooleanQuery3addEP13QCLuceneQuerybb
libQtCLucene.so.4:_ZN20QCLuceneBooleanQuery3addEP13QCLuceneQuerybbb
libQtCLucene.so.4:_ZN20QCLuceneBooleanQueryC1Ev
libQtCLucene.so.4:_ZN20QCLuceneBooleanQueryC2Ev
libQtCLucene.so.4:_ZN20QCLuceneBooleanQueryD0Ev
libQtCLucene.so.4:_ZN20QCLuceneBooleanQueryD1Ev
libQtCLucene.so.4:_ZN20QCLuceneBooleanQueryD2Ev
libQtCLucene.so.4:_ZN20QCLuceneFieldPrivateC1ERKS_
libQtCLucene.so.4:_ZN20QCLuceneFieldPrivateC1Ev
libQtCLucene.so.4:_ZN20QCLuceneFieldPrivateC2ERKS_
libQtCLucene.so.4:_ZN20QCLuceneFieldPrivateC2Ev
libQtCLucene.so.4:_ZN20QCLuceneFieldPrivateD1Ev
libQtCLucene.so.4:_ZN20QCLuceneFieldPrivateD2Ev
libQtCLucene.so.4:_ZN20QCLuceneQueryPrivateC1ERKS_
libQtCLucene.so.4:_ZN20QCLuceneQueryPrivateC1Ev
libQtCLucene.so.4:_ZN20QCLuceneQueryPrivateC2ERKS_
libQtCLucene.so.4:_ZN20QCLuceneQueryPrivateC2Ev
libQtCLucene.so.4:_ZN20QCLuceneQueryPrivateD1Ev
libQtCLucene.so.4:_ZN20QCLuceneQueryPrivateD2Ev
libQtCLucene.so.4:_ZN20QCLuceneStopAnalyzerC1ERK11QStringList
libQtCLucene.so.4:_ZN20QCLuceneStopAnalyzerC1Ev
libQtCLucene.so.4:_ZN20QCLuceneStopAnalyzerC2ERK11QStringList
libQtCLucene.so.4:_ZN20QCLuceneStopAnalyzerC2Ev
libQtCLucene.so.4:_ZN20QCLuceneStopAnalyzerD0Ev
libQtCLucene.so.4:_ZN20QCLuceneStopAnalyzerD1Ev
libQtCLucene.so.4:_ZN20QCLuceneStopAnalyzerD2Ev
libQtCLucene.so.4:_ZN20QCLuceneTokenPrivateC1ERKS_
libQtCLucene.so.4:_ZN20QCLuceneTokenPrivateC1Ev
libQtCLucene.so.4:_ZN20QCLuceneTokenPrivateC2ERKS_
libQtCLucene.so.4:_ZN20QCLuceneTokenPrivateC2Ev
libQtCLucene.so.4:_ZN20QCLuceneTokenPrivateD1Ev
libQtCLucene.so.4:_ZN20QCLuceneTokenPrivateD2Ev
libQtCLucene.so.4:_ZN21QCLuceneFilterPrivateC1ERKS_
libQtCLucene.so.4:_ZN21QCLuceneFilterPrivateC1Ev
libQtCLucene.so.4:_ZN21QCLuceneFilterPrivateC2ERKS_
libQtCLucene.so.4:_ZN21QCLuceneFilterPrivateC2Ev
libQtCLucene.so.4:_ZN21QCLuceneFilterPrivateD1Ev
libQtCLucene.so.4:_ZN21QCLuceneFilterPrivateD2Ev
libQtCLucene.so.4:_ZN21QCLuceneIndexSearcher3docEiR16QCLuceneDocument
libQtCLucene.so.4:_ZN21QCLuceneIndexSearcher5closeEv
libQtCLucene.so.4:_ZN21QCLuceneIndexSearcher9getReaderEv
libQtCLucene.so.4:_ZN21QCLuceneIndexSearcherC1ERK19QCLuceneIndexReader
libQtCLucene.so.4:_ZN21QCLuceneIndexSearcherC1ERK7QString
libQtCLucene.so.4:_ZN21QCLuceneIndexSearcherC2ERK19QCLuceneIndexReader
libQtCLucene.so.4:_ZN21QCLuceneIndexSearcherC2ERK7QString
libQtCLucene.so.4:_ZN21QCLuceneIndexSearcherD0Ev
libQtCLucene.so.4:_ZN21QCLuceneIndexSearcherD1Ev
libQtCLucene.so.4:_ZN21QCLuceneIndexSearcherD2Ev
libQtCLucene.so.4:_ZN21QCLuceneMultiSearcher3docEiR16QCLuceneDocument
libQtCLucene.so.4:_ZN21QCLuceneMultiSearcher5closeEv
libQtCLucene.so.4:_ZN21QCLuceneMultiSearcherC1E5QListI18QCLuceneSearchableE
libQtCLucene.so.4:_ZN21QCLuceneMultiSearcherC2E5QListI18QCLuceneSearchableE
libQtCLucene.so.4:_ZN21QCLuceneMultiSearcherD0Ev
libQtCLucene.so.4:_ZN21QCLuceneMultiSearcherD1Ev
libQtCLucene.so.4:_ZN21QCLuceneMultiSearcherD2Ev
libQtCLucene.so.4:_ZN21QCLuceneReaderPrivateC1ERKS_
libQtCLucene.so.4:_ZN21QCLuceneReaderPrivateC1Ev
libQtCLucene.so.4:_ZN21QCLuceneReaderPrivateC2ERKS_
libQtCLucene.so.4:_ZN21QCLuceneReaderPrivateC2Ev
libQtCLucene.so.4:_ZN21QCLuceneReaderPrivateD1Ev
libQtCLucene.so.4:_ZN21QCLuceneReaderPrivateD2Ev
libQtCLucene.so.4:_ZN22QCLuceneSimpleAnalyzerC1Ev
libQtCLucene.so.4:_ZN22QCLuceneSimpleAnalyzerC2Ev
libQtCLucene.so.4:_ZN22QCLuceneSimpleAnalyzerD0Ev
libQtCLucene.so.4:_ZN22QCLuceneSimpleAnalyzerD1Ev
libQtCLucene.so.4:_ZN22QCLuceneSimpleAnalyzerD2Ev
libQtCLucene.so.4:_ZN23QCLuceneAnalyzerPrivateC1ERKS_
libQtCLucene.so.4:_ZN23QCLuceneAnalyzerPrivateC1Ev
libQtCLucene.so.4:_ZN23QCLuceneAnalyzerPrivateC2ERKS_
libQtCLucene.so.4:_ZN23QCLuceneAnalyzerPrivateC2Ev
libQtCLucene.so.4:_ZN23QCLuceneAnalyzerPrivateD1Ev
libQtCLucene.so.4:_ZN23QCLuceneAnalyzerPrivateD2Ev
libQtCLucene.so.4:_ZN23QCLuceneDocumentPrivateC1ERKS_
libQtCLucene.so.4:_ZN23QCLuceneDocumentPrivateC1Ev
libQtCLucene.so.4:_ZN23QCLuceneDocumentPrivateC2ERKS_
libQtCLucene.so.4:_ZN23QCLuceneDocumentPrivateC2Ev
libQtCLucene.so.4:_ZN23QCLuceneDocumentPrivateD1Ev
libQtCLucene.so.4:_ZN23QCLuceneDocumentPrivateD2Ev
libQtCLucene.so.4:_ZN23QCLuceneKeywordAnalyzerC1Ev
libQtCLucene.so.4:_ZN23QCLuceneKeywordAnalyzerC2Ev
libQtCLucene.so.4:_ZN23QCLuceneKeywordAnalyzerD0Ev
libQtCLucene.so.4:_ZN23QCLuceneKeywordAnalyzerD1Ev
libQtCLucene.so.4:_ZN23QCLuceneKeywordAnalyzerD2Ev
libQtCLucene.so.4:_ZN24QCLuceneStandardAnalyzerC1ERK11QStringList
libQtCLucene.so.4:_ZN24QCLuceneStandardAnalyzerC1Ev
libQtCLucene.so.4:_ZN24QCLuceneStandardAnalyzerC2ERK11QStringList
libQtCLucene.so.4:_ZN24QCLuceneStandardAnalyzerC2Ev
libQtCLucene.so.4:_ZN24QCLuceneStandardAnalyzerD0Ev
libQtCLucene.so.4:_ZN24QCLuceneStandardAnalyzerD1Ev
libQtCLucene.so.4:_ZN24QCLuceneStandardAnalyzerD2Ev
libQtCLucene.so.4:_ZN25QCLuceneSearchablePrivateC1ERKS_
libQtCLucene.so.4:_ZN25QCLuceneSearchablePrivateC1Ev
libQtCLucene.so.4:_ZN25QCLuceneSearchablePrivateC2ERKS_
libQtCLucene.so.4:_ZN25QCLuceneSearchablePrivateC2Ev
libQtCLucene.so.4:_ZN25QCLuceneSearchablePrivateD1Ev
libQtCLucene.so.4:_ZN25QCLuceneSearchablePrivateD2Ev
libQtCLucene.so.4:_ZN25QCLuceneStandardTokenizer11readCompanyERK7QStringR13QCLuceneToken
libQtCLucene.so.4:_ZN25QCLuceneStandardTokenizer14readApostropheERK7QStringR13QCLuceneToken
libQtCLucene.so.4:_ZN25QCLuceneStandardTokenizer6readAtERK7QStringR13QCLuceneToken
libQtCLucene.so.4:_ZN25QCLuceneStandardTokenizerC1ERK14QCLuceneReader
libQtCLucene.so.4:_ZN25QCLuceneStandardTokenizerC2ERK14QCLuceneReader
libQtCLucene.so.4:_ZN25QCLuceneStandardTokenizerD0Ev
libQtCLucene.so.4:_ZN25QCLuceneStandardTokenizerD1Ev
libQtCLucene.so.4:_ZN25QCLuceneStandardTokenizerD2Ev
libQtCLucene.so.4:_ZN26QCLuceneIndexReaderPrivateC1ERKS_
libQtCLucene.so.4:_ZN26QCLuceneIndexReaderPrivateC1Ev
libQtCLucene.so.4:_ZN26QCLuceneIndexReaderPrivateC2ERKS_
libQtCLucene.so.4:_ZN26QCLuceneIndexReaderPrivateC2Ev
libQtCLucene.so.4:_ZN26QCLuceneIndexReaderPrivateD1Ev
libQtCLucene.so.4:_ZN26QCLuceneIndexReaderPrivateD2Ev
libQtCLucene.so.4:_ZN26QCLuceneIndexWriterPrivateC1ERKS_
libQtCLucene.so.4:_ZN26QCLuceneIndexWriterPrivateC1Ev
libQtCLucene.so.4:_ZN26QCLuceneIndexWriterPrivateC2ERKS_
libQtCLucene.so.4:_ZN26QCLuceneIndexWriterPrivateC2Ev
libQtCLucene.so.4:_ZN26QCLuceneIndexWriterPrivateD1Ev
libQtCLucene.so.4:_ZN26QCLuceneIndexWriterPrivateD2Ev
libQtCLucene.so.4:_ZN26QCLuceneQueryParserPrivateC1ERKS_
libQtCLucene.so.4:_ZN26QCLuceneQueryParserPrivateC1Ev
libQtCLucene.so.4:_ZN26QCLuceneQueryParserPrivateC2ERKS_
libQtCLucene.so.4:_ZN26QCLuceneQueryParserPrivateC2Ev
libQtCLucene.so.4:_ZN26QCLuceneQueryParserPrivateD1Ev
libQtCLucene.so.4:_ZN26QCLuceneQueryParserPrivateD2Ev
libQtCLucene.so.4:_ZN26QCLuceneTokenStreamPrivateC1ERKS_
libQtCLucene.so.4:_ZN26QCLuceneTokenStreamPrivateC1Ev
libQtCLucene.so.4:_ZN26QCLuceneTokenStreamPrivateC2ERKS_
libQtCLucene.so.4:_ZN26QCLuceneTokenStreamPrivateC2Ev
libQtCLucene.so.4:_ZN26QCLuceneTokenStreamPrivateD1Ev
libQtCLucene.so.4:_ZN26QCLuceneTokenStreamPrivateD2Ev
libQtCLucene.so.4:_ZN26QCLuceneWhitespaceAnalyzerC1Ev
libQtCLucene.so.4:_ZN26QCLuceneWhitespaceAnalyzerC2Ev
libQtCLucene.so.4:_ZN26QCLuceneWhitespaceAnalyzerD0Ev
libQtCLucene.so.4:_ZN26QCLuceneWhitespaceAnalyzerD1Ev
libQtCLucene.so.4:_ZN26QCLuceneWhitespaceAnalyzerD2Ev
libQtCLucene.so.4:_ZN29QCLuceneMultiFieldQueryParser5parseERK7QStringRK11QStringList5QListINS_10FieldFlagsEER16QCLuceneAnalyzer
libQtCLucene.so.4:_ZN29QCLuceneMultiFieldQueryParser5parseERK7QStringRK11QStringListR16QCLuceneAnalyzer
libQtCLucene.so.4:_ZN29QCLuceneMultiFieldQueryParserC1ERK11QStringListR16QCLuceneAnalyzer
libQtCLucene.so.4:_ZN29QCLuceneMultiFieldQueryParserC2ERK11QStringListR16QCLuceneAnalyzer
libQtCLucene.so.4:_ZN29QCLuceneMultiFieldQueryParserD0Ev
libQtCLucene.so.4:_ZN29QCLuceneMultiFieldQueryParserD1Ev
libQtCLucene.so.4:_ZN29QCLuceneMultiFieldQueryParserD2Ev
libQtCLucene.so.4:_ZN31QCLucenePerFieldAnalyzerWrapper11addAnalyzerERK7QStringP16QCLuceneAnalyzer
libQtCLucene.so.4:_ZN31QCLucenePerFieldAnalyzerWrapperC1EP16QCLuceneAnalyzer
libQtCLucene.so.4:_ZN31QCLucenePerFieldAnalyzerWrapperC2EP16QCLuceneAnalyzer
libQtCLucene.so.4:_ZN31QCLucenePerFieldAnalyzerWrapperD0Ev
libQtCLucene.so.4:_ZN31QCLucenePerFieldAnalyzerWrapperD1Ev
libQtCLucene.so.4:_ZN31QCLucenePerFieldAnalyzerWrapperD2Ev
libQtCLucene.so.4:_ZNK12QCLuceneHits6lengthEv
libQtCLucene.so.4:_ZNK12QCLuceneSort8toStringEv
libQtCLucene.so.4:_ZNK12QCLuceneTerm10textLengthEv
libQtCLucene.so.4:_ZNK12QCLuceneTerm4textEv
libQtCLucene.so.4:_ZNK12QCLuceneTerm5fieldEv
libQtCLucene.so.4:_ZNK12QCLuceneTerm6equalsERKS_
libQtCLucene.so.4:_ZNK12QCLuceneTerm8hashCodeEv
libQtCLucene.so.4:_ZNK12QCLuceneTerm8toStringEv
libQtCLucene.so.4:_ZNK12QCLuceneTerm9compareToERKS_
libQtCLucene.so.4:_ZNK13QCLuceneField11isTokenizedEv
libQtCLucene.so.4:_ZNK13QCLuceneField11readerValueEv
libQtCLucene.so.4:_ZNK13QCLuceneField11stringValueEv
libQtCLucene.so.4:_ZNK13QCLuceneField12getOmitNormsEv
libQtCLucene.so.4:_ZNK13QCLuceneField12isCompressedEv
libQtCLucene.so.4:_ZNK13QCLuceneField18isTermVectorStoredEv
libQtCLucene.so.4:_ZNK13QCLuceneField27isStoreOffsetWithTermVectorEv
libQtCLucene.so.4:_ZNK13QCLuceneField29isStorePositionWithTermVectorEv
libQtCLucene.so.4:_ZNK13QCLuceneField4nameEv
libQtCLucene.so.4:_ZNK13QCLuceneField8getBoostEv
libQtCLucene.so.4:_ZNK13QCLuceneField8isBinaryEv
libQtCLucene.so.4:_ZNK13QCLuceneField8isStoredEv
libQtCLucene.so.4:_ZNK13QCLuceneField8toStringEv
libQtCLucene.so.4:_ZNK13QCLuceneField9isIndexedEv
libQtCLucene.so.4:_ZNK13QCLuceneQuery10instanceOfERK7QString
libQtCLucene.so.4:_ZNK13QCLuceneQuery12getQueryNameEv
libQtCLucene.so.4:_ZNK13QCLuceneQuery6equalsERKS_
libQtCLucene.so.4:_ZNK13QCLuceneQuery8getBoostEv
libQtCLucene.so.4:_ZNK13QCLuceneQuery8hashCodeEv
libQtCLucene.so.4:_ZNK13QCLuceneQuery8toStringERK7QString
libQtCLucene.so.4:_ZNK13QCLuceneQuery8toStringEv
libQtCLucene.so.4:_ZNK13QCLuceneToken11startOffsetEv
libQtCLucene.so.4:_ZNK13QCLuceneToken12bufferLengthEv
libQtCLucene.so.4:_ZNK13QCLuceneToken14termTextLengthEv
libQtCLucene.so.4:_ZNK13QCLuceneToken17positionIncrementEv
libQtCLucene.so.4:_ZNK13QCLuceneToken19resetTermTextLengthEv
libQtCLucene.so.4:_ZNK13QCLuceneToken4typeEv
libQtCLucene.so.4:_ZNK13QCLuceneToken8termTextEv
libQtCLucene.so.4:_ZNK13QCLuceneToken8toStringEv
libQtCLucene.so.4:_ZNK13QCLuceneToken9endOffsetEv
libQtCLucene.so.4:_ZNK16QCLuceneAnalyzer11tokenStreamERK7QStringRK14QCLuceneReader
libQtCLucene.so.4:_ZNK16QCLuceneAnalyzer20positionIncrementGapERK7QString
libQtCLucene.so.4:_ZNK16QCLuceneDocument3getERK7QString
libQtCLucene.so.4:_ZNK16QCLuceneDocument8getBoostEv
libQtCLucene.so.4:_ZNK16QCLuceneDocument8getFieldERK7QString
libQtCLucene.so.4:_ZNK16QCLuceneDocument8toStringEv
libQtCLucene.so.4:_ZNK16QCLuceneDocument9getValuesERK7QString
libQtCLucene.so.4:_ZNK17QCLuceneTermQuery7getTermEv
libQtCLucene.so.4:_ZNK18QCLuceneRangeQuery11isInclusiveEv
libQtCLucene.so.4:_ZNK18QCLuceneRangeQuery12getLowerTermEv
libQtCLucene.so.4:_ZNK18QCLuceneRangeQuery12getUpperTermEv
libQtCLucene.so.4:_ZNK18QCLuceneRangeQuery8getFieldEv
libQtCLucene.so.4:_ZNK19QCLuceneIndexWriter14getMergeFactorEv
libQtCLucene.so.4:_ZNK19QCLuceneIndexWriter15getMaxMergeDocsEv
libQtCLucene.so.4:_ZNK19QCLuceneIndexWriter15getMinMergeDocsEv
libQtCLucene.so.4:_ZNK19QCLuceneIndexWriter17getMaxFieldLengthEv
libQtCLucene.so.4:_ZNK19QCLuceneIndexWriter18getMaxBufferedDocsEv
libQtCLucene.so.4:_ZNK19QCLuceneIndexWriter18getUseCompoundFileEv
libQtCLucene.so.4:_ZNK19QCLuceneIndexWriter19getWriteLockTimeoutEv
libQtCLucene.so.4:_ZNK19QCLuceneIndexWriter20getCommitLockTimeoutEv
libQtCLucene.so.4:_ZNK19QCLuceneIndexWriter20getTermIndexIntervalEv
libQtCLucene.so.4:_ZNK19QCLucenePhraseQuery12getFieldNameEv
libQtCLucene.so.4:_ZNK19QCLucenePhraseQuery7getSlopEv
libQtCLucene.so.4:_ZNK19QCLucenePhraseQuery8getTermsEv
libQtCLucene.so.4:_ZNK19QCLucenePrefixQuery9getPrefixEv
libQtCLucene.so.4:_ZNK20QCLuceneBooleanQuery14getClauseCountEv
libQtCLucene.so.4:_ZNK20QCLuceneBooleanQuery17getMaxClauseCountEv
libQtCLucene.so.4:_ZNK20QCLuceneStopAnalyzer16englishStopWordsEv
libQtCLucene.so.4:_ZNK21QCLuceneIndexSearcher6maxDocEv
libQtCLucene.so.4:_ZNK21QCLuceneMultiSearcher11subSearcherEi
libQtCLucene.so.4:_ZNK21QCLuceneMultiSearcher13searcherIndexEi
libQtCLucene.so.4:_ZNK21QCLuceneMultiSearcher6maxDocEv
libQtCLucene.so.4:_ZNK21QCLuceneMultiSearcher6subDocEi
libQtCore.so.4:_Z10forcepointR11QTextStream
libQtCore.so.4:_Z10noshowbaseR11QTextStream
libQtCore.so.4:_Z10qAllocMoreii
libQtCore.so.4:_Z10qHBNewFacePvPF8HB_ErrorS_jPhPjE
libQtCore.so.4:_Z10qShapeItemP14HB_ShaperItem_
libQtCore.so.4:_Z10qvsnprintfPcmPKcP13__va_list_tag
libQtCore.so.4:_Z10scientificR11QTextStream
libQtCore.so.4:_Z11noforcesignR11QTextStream
libQtCore.so.4:_Z11qHBFreeFaceP11HB_FaceRec_
libQtCore.so.4:_Z11qUncompressPKhi
libQtCore.so.4:_Z11qt_assert_xPKcS0_S0_i
libQtCore.so.4:_Z11qt_int_sqrtj
libQtCore.so.4:_Z12noforcepointR11QTextStream
libQtCore.so.4:_Z12qFreeAlignedPv
libQtCore.so.4:_Z12qInstallPathv
libQtCore.so.4:_Z12qSharedBuildv
libQtCore.so.4:_Z13lowercasebaseR11QTextStream
libQtCore.so.4:_Z13qErrnoWarningPKcz
libQtCore.so.4:_Z13qErrnoWarningiPKcz
libQtCore.so.4:_Z13qFlagLocationPKc
libQtCore.so.4:_Z13uppercasebaseR11QTextStream
libQtCore.so.4:_Z14qDecodeDataUrlRK4QUrl
libQtCore.so.4:_Z14qMallocAlignedmm
libQtCore.so.4:_Z14qSystemWarningPKci
libQtCore.so.4:_Z14qt_safe_selectiP6fd_setS0_S0_PK7timeval
libQtCore.so.4:_Z15lowercasedigitsR11QTextStream
libQtCore.so.4:_Z15qAddPostRoutinePFvvE
libQtCore.so.4:_Z15qInitResourceIOv
libQtCore.so.4:_Z15qIsEffectiveTLDRK7QString
libQtCore.so.4:_Z15qReallocAlignedPvmmm
libQtCore.so.4:_Z15qTopLevelDomainRK7QString
libQtCore.so.4:_Z15qt_error_stringi
libQtCore.so.4:_Z15uppercasedigitsR11QTextStream
libQtCore.so.4:_Z16qInstallPathBinsv
libQtCore.so.4:_Z16qInstallPathDatav
libQtCore.so.4:_Z16qInstallPathDocsv
libQtCore.so.4:_Z16qInstallPathLibsv
libQtCore.so.4:_Z16qt_check_pointerPKci
libQtCore.so.4:_Z17qt_message_output9QtMsgTypePKc
libQtCore.so.4:_Z18qDetectCPUFeaturesv
libQtCore.so.4:_Z18qGetCharAttributesPKtjPK13HB_ScriptItemjP17HB_CharAttributes
libQtCore.so.4:_Z18qInstallMsgHandlerPFv9QtMsgTypePKcE
libQtCore.so.4:_Z18qRemovePostRoutinePFvvE
libQtCore.so.4:_Z19qInstallPathHeadersv
libQtCore.so.4:_Z19qInstallPathPluginsv
libQtCore.so.4:_Z19qInstallPathSysconfv
libQtCore.so.4:_Z19qcoreVariantHandlerv
libQtCore.so.4:_Z20qt_qFindChild_helperPK7QObjectRK7QStringRK11QMetaObject
libQtCore.so.4:_Z21qDeleteInEventHandlerP7QObject
libQtCore.so.4:_Z21qRegisterResourceDataiPKhS0_S0_
libQtCore.so.4:_Z21qt_call_post_routinesv
libQtCore.so.4:_Z21qt_regexp_toCanonicalRK7QStringN7QRegExp13PatternSyntaxE
libQtCore.so.4:_Z23qUnregisterResourceDataiPKhS0_S0_
libQtCore.so.4:_Z23qt_qFindChildren_helperPK7QObjectRK7QStringPK7QRegExpRK11QMetaObjectP5QListIPvE
libQtCore.so.4:_Z24qGlobalPostedEventsCountv
libQtCore.so.4:_Z24qInstallPathTranslationsv
libQtCore.so.4:_Z24qcoreStateMachineHandlerv
libQtCore.so.4:_Z2wsR11QTextStream
libQtCore.so.4:_Z32qt_register_signal_spy_callbacksRK21QSignalSpyCallbackSet
libQtCore.so.4:_Z37qRegisterStaticPluginInstanceFunctionPFP7QObjectvE
libQtCore.so.4:_Z3binR11QTextStream
libQtCore.so.4:_Z3bomR11QTextStream
libQtCore.so.4:_Z3decR11QTextStream
libQtCore.so.4:_Z3hexR11QTextStream
libQtCore.so.4:_Z3octR11QTextStream
libQtCore.so.4:_Z4endlR11QTextStream
libQtCore.so.4:_Z4leftR11QTextStream
libQtCore.so.4:_Z4qInfv
libQtCore.so.4:_Z5fixedR11QTextStream
libQtCore.so.4:_Z5flushR11QTextStream
libQtCore.so.4:_Z5qFreePv
libQtCore.so.4:_Z5qHashRK10QByteArray
libQtCore.so.4:_Z5qHashRK10QStringRef
libQtCore.so.4:_Z5qHashRK7QString
libQtCore.so.4:_Z5qHashRK9QBitArray
libQtCore.so.4:_Z5qQNaNv
libQtCore.so.4:_Z5qSNaNv
libQtCore.so.4:_Z5qdtoadiiPiS_PPcS1_
libQtCore.so.4:_Z5qrandv
libQtCore.so.4:_Z5resetR11QTextStream
libQtCore.so.4:_Z5rightR11QTextStream
libQtCore.so.4:_Z6centerR11QTextStream
libQtCore.so.4:_Z6qDebugPKcz
libQtCore.so.4:_Z6qFatalPKcz
libQtCore.so.4:_Z6qIsInfd
libQtCore.so.4:_Z6qIsInff
libQtCore.so.4:_Z6qIsNaNd
libQtCore.so.4:_Z6qIsNaNf
libQtCore.so.4:_Z6qsrandj
libQtCore.so.4:_Z6qtTrIdPKci
libQtCore.so.4:_Z7qMallocm
libQtCore.so.4:_Z7qMemSetPvim
libQtCore.so.4:_Z7qgetenvPKc
libQtCore.so.4:_Z7qputenvPKcRK10QByteArray
libQtCore.so.4:_Z7qstrcmpPKcS0_
libQtCore.so.4:_Z7qstrcmpRK10QByteArrayPKc
libQtCore.so.4:_Z7qstrcmpRK10QByteArrayS1_
libQtCore.so.4:_Z7qstrcpyPcPKc
libQtCore.so.4:_Z7qstrdupPKc
libQtCore.so.4:_Z7qstrtodPKcPS0_Pb
libQtCore.so.4:_Z8qAppNamev
libQtCore.so.4:_Z8qMemCopyPvPKvm
libQtCore.so.4:_Z8qReallocPvm
libQtCore.so.4:_Z8qVersionv
libQtCore.so.4:_Z8qWarningPKcz
libQtCore.so.4:_Z8qstricmpPKcS0_
libQtCore.so.4:_Z8qstrncpyPcPKcj
libQtCore.so.4:_Z8showbaseR11QTextStream
libQtCore.so.4:_Z9forcesignR11QTextStream
libQtCore.so.4:_Z9qBadAllocv
libQtCore.so.4:_Z9qChecksumPKcj
libQtCore.so.4:_Z9qCompressPKhii
libQtCore.so.4:_Z9qCriticalPKcz
libQtCore.so.4:_Z9qIsFinited
libQtCore.so.4:_Z9qIsFinitef
libQtCore.so.4:_Z9qsnprintfPcmPKcz
libQtCore.so.4:_Z9qstrnicmpPKcS0_j
libQtCore.so.4:_Z9qt_assertPKcS0_i
libQtCore.so.4:_ZN10QByteArray10fromBase64ERKS_
libQtCore.so.4:_ZN10QByteArray10setRawDataEPKcj
libQtCore.so.4:_ZN10QByteArray11fromRawDataEPKci
libQtCore.so.4:_ZN10QByteArray19fromPercentEncodingERKS_c
libQtCore.so.4:_ZN10QByteArray4chopEi
libQtCore.so.4:_ZN10QByteArray4fillEci
libQtCore.so.4:_ZN10QByteArray5clearEv
libQtCore.so.4:_ZN10QByteArray6appendEPKc
libQtCore.so.4:_ZN10QByteArray6appendEPKci
libQtCore.so.4:_ZN10QByteArray6appendERKS_
libQtCore.so.4:_ZN10QByteArray6appendEc
libQtCore.so.4:_ZN10QByteArray6expandEi
libQtCore.so.4:_ZN10QByteArray6insertEiPKc
libQtCore.so.4:_ZN10QByteArray6insertEiPKci
libQtCore.so.4:_ZN10QByteArray6insertEiRKS_
libQtCore.so.4:_ZN10QByteArray6insertEic
libQtCore.so.4:_ZN10QByteArray6numberEdci
libQtCore.so.4:_ZN10QByteArray6numberEii
libQtCore.so.4:_ZN10QByteArray6numberEji
libQtCore.so.4:_ZN10QByteArray6numberExi
libQtCore.so.4:_ZN10QByteArray6numberEyi
libQtCore.so.4:_ZN10QByteArray6removeEii
libQtCore.so.4:_ZN10QByteArray6resizeEi
libQtCore.so.4:_ZN10QByteArray6setNumEdci
libQtCore.so.4:_ZN10QByteArray6setNumExi
libQtCore.so.4:_ZN10QByteArray6setNumEyi
libQtCore.so.4:_ZN10QByteArray7fromHexERKS_
libQtCore.so.4:_ZN10QByteArray7prependEPKc
libQtCore.so.4:_ZN10QByteArray7prependEPKci
libQtCore.so.4:_ZN10QByteArray7prependERKS_
libQtCore.so.4:_ZN10QByteArray7prependEc
libQtCore.so.4:_ZN10QByteArray7reallocEi
libQtCore.so.4:_ZN10QByteArray7replaceEPKcRKS_
libQtCore.so.4:_ZN10QByteArray7replaceEPKciS1_i
libQtCore.so.4:_ZN10QByteArray7replaceERKS_S1_
libQtCore.so.4:_ZN10QByteArray7replaceEcRKS_
libQtCore.so.4:_ZN10QByteArray7replaceEcc
libQtCore.so.4:_ZN10QByteArray7replaceEiiPKc
libQtCore.so.4:_ZN10QByteArray7replaceEiiPKci
libQtCore.so.4:_ZN10QByteArray7replaceEiiRKS_
libQtCore.so.4:_ZN10QByteArray8truncateEi
libQtCore.so.4:_ZN10QByteArrayC1EPKc
libQtCore.so.4:_ZN10QByteArrayC1EPKci
libQtCore.so.4:_ZN10QByteArrayC1EiN2Qt14InitializationE
libQtCore.so.4:_ZN10QByteArrayC1Eic
libQtCore.so.4:_ZN10QByteArrayC2EPKc
libQtCore.so.4:_ZN10QByteArrayC2EPKci
libQtCore.so.4:_ZN10QByteArrayC2EiN2Qt14InitializationE
libQtCore.so.4:_ZN10QByteArrayC2Eic
libQtCore.so.4:_ZN10QByteArrayaSEPKc
libQtCore.so.4:_ZN10QByteArrayaSERKS_
libQtCore.so.4:_ZN10QEventLoop11qt_metacallEN11QMetaObject4CallEiPPv
libQtCore.so.4:_ZN10QEventLoop11qt_metacastEPKc
libQtCore.so.4:_ZN10QEventLoop13processEventsE6QFlagsINS_17ProcessEventsFlagEE
libQtCore.so.4:_ZN10QEventLoop13processEventsE6QFlagsINS_17ProcessEventsFlagEEi
libQtCore.so.4:_ZN10QEventLoop4execE6QFlagsINS_17ProcessEventsFlagEE
libQtCore.so.4:_ZN10QEventLoop4exitEi
libQtCore.so.4:_ZN10QEventLoop4quitEv
libQtCore.so.4:_ZN10QEventLoop6wakeUpEv
libQtCore.so.4:_ZN10QEventLoopC1EP7QObject
libQtCore.so.4:_ZN10QEventLoopC2EP7QObject
libQtCore.so.4:_ZN10QEventLoopD0Ev
libQtCore.so.4:_ZN10QEventLoopD1Ev
libQtCore.so.4:_ZN10QEventLoopD2Ev
libQtCore.so.4:_ZN10QMutexPool11createMutexEi
libQtCore.so.4:_ZN10QMutexPool17globalInstanceGetEPKv
libQtCore.so.4:_ZN10QMutexPool8instanceEv
libQtCore.so.4:_ZN10QMutexPoolC1EN6QMutex13RecursionModeEi
libQtCore.so.4:_ZN10QMutexPoolC2EN6QMutex13RecursionModeEi
libQtCore.so.4:_ZN10QMutexPoolD1Ev
libQtCore.so.4:_ZN10QMutexPoolD2Ev
libQtCore.so.4:_ZN10QSemaphore10tryAcquireEi
libQtCore.so.4:_ZN10QSemaphore10tryAcquireEii
libQtCore.so.4:_ZN10QSemaphore7acquireEi
libQtCore.so.4:_ZN10QSemaphore7releaseEi
libQtCore.so.4:_ZN10QSemaphoreC1Ei
libQtCore.so.4:_ZN10QSemaphoreC2Ei
libQtCore.so.4:_ZN10QSemaphoreD1Ev
libQtCore.so.4:_ZN10QSemaphoreD2Ev
libQtCore.so.4:_ZN10QTextCodec11codecForMibEi
libQtCore.so.4:_ZN10QTextCodec11validCodecsEv
libQtCore.so.4:_ZN10QTextCodec12codecForHtmlERK10QByteArray
libQtCore.so.4:_ZN10QTextCodec12codecForHtmlERK10QByteArrayPS_
libQtCore.so.4:_ZN10QTextCodec12codecForNameERK10QByteArray
libQtCore.so.4:_ZN10QTextCodec13availableMibsEv
libQtCore.so.4:_ZN10QTextCodec14ConverterStateD1Ev
libQtCore.so.4:_ZN10QTextCodec14ConverterStateD2Ev
libQtCore.so.4:_ZN10QTextCodec14codecForLocaleEv
libQtCore.so.4:_ZN10QTextCodec15availableCodecsEv
libQtCore.so.4:_ZN10QTextCodec15codecForUtfTextERK10QByteArray
libQtCore.so.4:_ZN10QTextCodec15codecForUtfTextERK10QByteArrayPS_
libQtCore.so.4:_ZN10QTextCodec17setCodecForLocaleEPS_
libQtCore.so.4:_ZN10QTextCodec6localeEv
libQtCore.so.4:_ZN10QTextCodecC1Ev
libQtCore.so.4:_ZN10QTextCodecC2Ev
libQtCore.so.4:_ZN10QTextCodecD0Ev
libQtCore.so.4:_ZN10QTextCodecD1Ev
libQtCore.so.4:_ZN10QTextCodecD2Ev
libQtCore.so.4:_ZN11QBasicTimer4stopEv
libQtCore.so.4:_ZN11QBasicTimer5startEiP7QObject
libQtCore.so.4:_ZN11QChildEventC1EN6QEvent4TypeEP7QObject
libQtCore.so.4:_ZN11QChildEventC2EN6QEvent4TypeEP7QObject
libQtCore.so.4:_ZN11QChildEventD0Ev
libQtCore.so.4:_ZN11QChildEventD1Ev
libQtCore.so.4:_ZN11QChildEventD2Ev
libQtCore.so.4:_ZN11QDataStream10writeBytesEPKcj
libQtCore.so.4:_ZN11QDataStream11readRawDataEPci
libQtCore.so.4:_ZN11QDataStream11resetStatusEv
libQtCore.so.4:_ZN11QDataStream11skipRawDataEi
libQtCore.so.4:_ZN11QDataStream11unsetDeviceEv
libQtCore.so.4:_ZN11QDataStream12setByteOrderENS_9ByteOrderE
libQtCore.so.4:_ZN11QDataStream12writeRawDataEPKci
libQtCore.so.4:_ZN11QDataStream25setFloatingPointPrecisionENS_22FloatingPointPrecisionE
libQtCore.so.4:_ZN11QDataStream9readBytesERPcRj
libQtCore.so.4:_ZN11QDataStream9setDeviceEP9QIODevice
libQtCore.so.4:_ZN11QDataStream9setStatusENS_6StatusE
libQtCore.so.4:_ZN11QDataStreamC1EP10QByteArray6QFlagsIN9QIODevice12OpenModeFlagEE
libQtCore.so.4:_ZN11QDataStreamC1EP10QByteArrayi
libQtCore.so.4:_ZN11QDataStreamC1EP9QIODevice
libQtCore.so.4:_ZN11QDataStreamC1ERK10QByteArray
libQtCore.so.4:_ZN11QDataStreamC1Ev
libQtCore.so.4:_ZN11QDataStreamC2EP10QByteArray6QFlagsIN9QIODevice12OpenModeFlagEE
libQtCore.so.4:_ZN11QDataStreamC2EP10QByteArrayi
libQtCore.so.4:_ZN11QDataStreamC2EP9QIODevice
libQtCore.so.4:_ZN11QDataStreamC2ERK10QByteArray
libQtCore.so.4:_ZN11QDataStreamC2Ev
libQtCore.so.4:_ZN11QDataStreamD0Ev
libQtCore.so.4:_ZN11QDataStreamD1Ev
libQtCore.so.4:_ZN11QDataStreamD2Ev
libQtCore.so.4:_ZN11QDataStreamlsEPKc
libQtCore.so.4:_ZN11QDataStreamlsEa
libQtCore.so.4:_ZN11QDataStreamlsEb
libQtCore.so.4:_ZN11QDataStreamlsEd
libQtCore.so.4:_ZN11QDataStreamlsEf
libQtCore.so.4:_ZN11QDataStreamlsEi
libQtCore.so.4:_ZN11QDataStreamlsEs
libQtCore.so.4:_ZN11QDataStreamlsEx
libQtCore.so.4:_ZN11QDataStreamrsERPc
libQtCore.so.4:_ZN11QDataStreamrsERa
libQtCore.so.4:_ZN11QDataStreamrsERb
libQtCore.so.4:_ZN11QDataStreamrsERd
libQtCore.so.4:_ZN11QDataStreamrsERf
libQtCore.so.4:_ZN11QDataStreamrsERi
libQtCore.so.4:_ZN11QDataStreamrsERs
libQtCore.so.4:_ZN11QDataStreamrsERx
libQtCore.so.4:_ZN11QFinalState11qt_metacallEN11QMetaObject4CallEiPPv
libQtCore.so.4:_ZN11QFinalState11qt_metacastEPKc
libQtCore.so.4:_ZN11QFinalState5eventEP6QEvent
libQtCore.so.4:_ZN11QFinalState6onExitEP6QEvent
libQtCore.so.4:_ZN11QFinalState7onEntryEP6QEvent
libQtCore.so.4:_ZN11QFinalStateC1EP6QState
libQtCore.so.4:_ZN11QFinalStateC2EP6QState
libQtCore.so.4:_ZN11QFinalStateD0Ev
libQtCore.so.4:_ZN11QFinalStateD1Ev
libQtCore.so.4:_ZN11QFinalStateD2Ev
libQtCore.so.4:_ZN11QMetaObject10disconnectEPK7QObjectiS2_i
libQtCore.so.4:_ZN11QMetaObject11changeGuardEPP7QObjectS1_
libQtCore.so.4:_ZN11QMetaObject11removeGuardEPP7QObject
libQtCore.so.4:_ZN11QMetaObject12invokeMethodEP7QObjectPKcN2Qt14ConnectionTypeE22QGenericReturnArgument16QGenericArgumentS7_S7_S7_S7_S7_S7_S7_S7_S7_
libQtCore.so.4:_ZN11QMetaObject13disconnectOneEPK7QObjectiS2_i
libQtCore.so.4:_ZN11QMetaObject14normalizedTypeEPKc
libQtCore.so.4:_ZN11QMetaObject16checkConnectArgsEPKcS1_
libQtCore.so.4:_ZN11QMetaObject18connectSlotsByNameEP7QObject
libQtCore.so.4:_ZN11QMetaObject19normalizedSignatureEPKc
libQtCore.so.4:_ZN11QMetaObject7connectEPK7QObjectiS2_iiPi
libQtCore.so.4:_ZN11QMetaObject8activateEP7QObjectPKS_iPPv
libQtCore.so.4:_ZN11QMetaObject8activateEP7QObjectPKS_iiPPv
libQtCore.so.4:_ZN11QMetaObject8activateEP7QObjectiPPv
libQtCore.so.4:_ZN11QMetaObject8activateEP7QObjectiiPPv
libQtCore.so.4:_ZN11QMetaObject8addGuardEPP7QObject
libQtCore.so.4:_ZN11QMetaObject8metacallEP7QObjectNS_4CallEiPPv
libQtCore.so.4:_ZN11QTextStream10setPadCharE5QChar
libQtCore.so.4:_ZN11QTextStream11resetStatusEv
libQtCore.so.4:_ZN11QTextStream11setEncodingENS_8EncodingE
libQtCore.so.4:_ZN11QTextStream13flagsInternalEi
libQtCore.so.4:_ZN11QTextStream13setFieldWidthEi
libQtCore.so.4:_ZN11QTextStream14setIntegerBaseEi
libQtCore.so.4:_ZN11QTextStream14setNumberFlagsE6QFlagsINS_10NumberFlagEE
libQtCore.so.4:_ZN11QTextStream14skipWhiteSpaceEv
libQtCore.so.4:_ZN11QTextStream17setFieldAlignmentENS_14FieldAlignmentE
libQtCore.so.4:_ZN11QTextStream20setAutoDetectUnicodeEb
libQtCore.so.4:_ZN11QTextStream21setRealNumberNotationENS_18RealNumberNotationE
libQtCore.so.4:_ZN11QTextStream22setRealNumberPrecisionEi
libQtCore.so.4:_ZN11QTextStream24setGenerateByteOrderMarkEb
libQtCore.so.4:_ZN11QTextStream4readEx
libQtCore.so.4:_ZN11QTextStream4seekEx
libQtCore.so.4:_ZN11QTextStream5flushEv
libQtCore.so.4:_ZN11QTextStream5resetEv
libQtCore.so.4:_ZN11QTextStream7readAllEv
libQtCore.so.4:_ZN11QTextStream8readLineEx
libQtCore.so.4:_ZN11QTextStream8setCodecEP10QTextCodec
libQtCore.so.4:_ZN11QTextStream8setCodecEPKc
libQtCore.so.4:_ZN11QTextStream9setDeviceEP9QIODevice
libQtCore.so.4:_ZN11QTextStream9setLocaleERK7QLocale
libQtCore.so.4:_ZN11QTextStream9setStatusENS_6StatusE
libQtCore.so.4:_ZN11QTextStream9setStringEP7QString6QFlagsIN9QIODevice12OpenModeFlagEE
libQtCore.so.4:_ZN11QTextStreamC1EP10QByteArray6QFlagsIN9QIODevice12OpenModeFlagEE
libQtCore.so.4:_ZN11QTextStreamC1EP7QString6QFlagsIN9QIODevice12OpenModeFlagEE
libQtCore.so.4:_ZN11QTextStreamC1EP8_IO_FILE6QFlagsIN9QIODevice12OpenModeFlagEE
libQtCore.so.4:_ZN11QTextStreamC1EP9QIODevice
libQtCore.so.4:_ZN11QTextStreamC1ERK10QByteArray6QFlagsIN9QIODevice12OpenModeFlagEE
libQtCore.so.4:_ZN11QTextStreamC1Ev
libQtCore.so.4:_ZN11QTextStreamC2EP10QByteArray6QFlagsIN9QIODevice12OpenModeFlagEE
libQtCore.so.4:_ZN11QTextStreamC2EP7QString6QFlagsIN9QIODevice12OpenModeFlagEE
libQtCore.so.4:_ZN11QTextStreamC2EP8_IO_FILE6QFlagsIN9QIODevice12OpenModeFlagEE
libQtCore.so.4:_ZN11QTextStreamC2EP9QIODevice
libQtCore.so.4:_ZN11QTextStreamC2ERK10QByteArray6QFlagsIN9QIODevice12OpenModeFlagEE
libQtCore.so.4:_ZN11QTextStreamC2Ev
libQtCore.so.4:_ZN11QTextStreamD0Ev
libQtCore.so.4:_ZN11QTextStreamD1Ev
libQtCore.so.4:_ZN11QTextStreamD2Ev
libQtCore.so.4:_ZN11QTextStreamlsE5QBool
libQtCore.so.4:_ZN11QTextStreamlsE5QChar
libQtCore.so.4:_ZN11QTextStreamlsEPKc
libQtCore.so.4:_ZN11QTextStreamlsEPKv
libQtCore.so.4:_ZN11QTextStreamlsERK10QByteArray
libQtCore.so.4:_ZN11QTextStreamlsERK7QString
libQtCore.so.4:_ZN11QTextStreamlsEc
libQtCore.so.4:_ZN11QTextStreamlsEd
libQtCore.so.4:_ZN11QTextStreamlsEf
libQtCore.so.4:_ZN11QTextStreamlsEi
libQtCore.so.4:_ZN11QTextStreamlsEj
libQtCore.so.4:_ZN11QTextStreamlsEl
libQtCore.so.4:_ZN11QTextStreamlsEm
libQtCore.so.4:_ZN11QTextStreamlsEs
libQtCore.so.4:_ZN11QTextStreamlsEt
libQtCore.so.4:_ZN11QTextStreamlsEx
libQtCore.so.4:_ZN11QTextStreamlsEy
libQtCore.so.4:_ZN11QTextStreamrsEPc
libQtCore.so.4:_ZN11QTextStreamrsER10QByteArray
libQtCore.so.4:_ZN11QTextStreamrsER5QChar
libQtCore.so.4:_ZN11QTextStreamrsER7QString
libQtCore.so.4:_ZN11QTextStreamrsERc
libQtCore.so.4:_ZN11QTextStreamrsERd
libQtCore.so.4:_ZN11QTextStreamrsERf
libQtCore.so.4:_ZN11QTextStreamrsERi
libQtCore.so.4:_ZN11QTextStreamrsERj
libQtCore.so.4:_ZN11QTextStreamrsERl
libQtCore.so.4:_ZN11QTextStreamrsERm
libQtCore.so.4:_ZN11QTextStreamrsERs
libQtCore.so.4:_ZN11QTextStreamrsERt
libQtCore.so.4:_ZN11QTextStreamrsERx
libQtCore.so.4:_ZN11QTextStreamrsERy
libQtCore.so.4:_ZN11QThreadPool11qt_metacallEN11QMetaObject4CallEiPPv
libQtCore.so.4:_ZN11QThreadPool11qt_metacastEPKc
libQtCore.so.4:_ZN11QThreadPool11waitForDoneEi
libQtCore.so.4:_ZN11QThreadPool11waitForDoneEv
libQtCore.so.4:_ZN11QThreadPool13releaseThreadEv
libQtCore.so.4:_ZN11QThreadPool13reserveThreadEv
libQtCore.so.4:_ZN11QThreadPool14globalInstanceEv
libQtCore.so.4:_ZN11QThreadPool16setExpiryTimeoutEi
libQtCore.so.4:_ZN11QThreadPool17setMaxThreadCountEi
libQtCore.so.4:_ZN11QThreadPool5startEP9QRunnablei
libQtCore.so.4:_ZN11QThreadPool8tryStartEP9QRunnable
libQtCore.so.4:_ZN11QThreadPoolC1EP7QObject
libQtCore.so.4:_ZN11QThreadPoolC2EP7QObject
libQtCore.so.4:_ZN11QThreadPoolD0Ev
libQtCore.so.4:_ZN11QThreadPoolD1Ev
libQtCore.so.4:_ZN11QThreadPoolD2Ev
libQtCore.so.4:_ZN11QTimerEventC1Ei
libQtCore.so.4:_ZN11QTimerEventC2Ei
libQtCore.so.4:_ZN11QTimerEventD0Ev
libQtCore.so.4:_ZN11QTimerEventD1Ev
libQtCore.so.4:_ZN11QTimerEventD2Ev
libQtCore.so.4:_ZN11QTranslator11qt_metacallEN11QMetaObject4CallEiPPv
libQtCore.so.4:_ZN11QTranslator11qt_metacastEPKc
libQtCore.so.4:_ZN11QTranslator4loadEPKhi
libQtCore.so.4:_ZN11QTranslator4loadERK7QLocaleRK7QStringS5_S5_S5_
libQtCore.so.4:_ZN11QTranslator4loadERK7QStringS2_S2_S2_
libQtCore.so.4:_ZN11QTranslatorC1EP7QObject
libQtCore.so.4:_ZN11QTranslatorC1EP7QObjectPKc
libQtCore.so.4:_ZN11QTranslatorC2EP7QObject
libQtCore.so.4:_ZN11QTranslatorC2EP7QObjectPKc
libQtCore.so.4:_ZN11QTranslatorD0Ev
libQtCore.so.4:_ZN11QTranslatorD1Ev
libQtCore.so.4:_ZN11QTranslatorD2Ev
libQtCore.so.4:_ZN11QVectorData10reallocateEPS_iii
libQtCore.so.4:_ZN11QVectorData4freeEPS_i
libQtCore.so.4:_ZN11QVectorData4growEiiib
libQtCore.so.4:_ZN11QVectorData6mallocEiiiPS_
libQtCore.so.4:_ZN11QVectorData8allocateEii
libQtCore.so.4:_ZN12QCustomEventC1EiPv
libQtCore.so.4:_ZN12QCustomEventC2EiPv
libQtCore.so.4:_ZN12QCustomEventD0Ev
libQtCore.so.4:_ZN12QCustomEventD1Ev
libQtCore.so.4:_ZN12QCustomEventD2Ev
libQtCore.so.4:_ZN12QDirIterator4nextEv
libQtCore.so.4:_ZN12QDirIteratorC1ERK4QDir6QFlagsINS_12IteratorFlagEE
libQtCore.so.4:_ZN12QDirIteratorC1ERK7QString6QFlagsIN4QDir6FilterEES3_INS_12IteratorFlagEE
libQtCore.so.4:_ZN12QDirIteratorC1ERK7QString6QFlagsINS_12IteratorFlagEE
libQtCore.so.4:_ZN12QDirIteratorC1ERK7QStringRK11QStringList6QFlagsIN4QDir6FilterEES6_INS_12IteratorFlagEE
libQtCore.so.4:_ZN12QDirIteratorC2ERK4QDir6QFlagsINS_12IteratorFlagEE
libQtCore.so.4:_ZN12QDirIteratorC2ERK7QString6QFlagsIN4QDir6FilterEES3_INS_12IteratorFlagEE
libQtCore.so.4:_ZN12QDirIteratorC2ERK7QString6QFlagsINS_12IteratorFlagEE
libQtCore.so.4:_ZN12QDirIteratorC2ERK7QStringRK11QStringList6QFlagsIN4QDir6FilterEES6_INS_12IteratorFlagEE
libQtCore.so.4:_ZN12QDirIteratorD0Ev
libQtCore.so.4:_ZN12QDirIteratorD1Ev
libQtCore.so.4:_ZN12QDirIteratorD2Ev
libQtCore.so.4:_ZN12QEasingCurve12setAmplitudeEd
libQtCore.so.4:_ZN12QEasingCurve12setOvershootEd
libQtCore.so.4:_ZN12QEasingCurve13setCustomTypeEPFddE
libQtCore.so.4:_ZN12QEasingCurve7setTypeENS_4TypeE
libQtCore.so.4:_ZN12QEasingCurve9setPeriodEd
libQtCore.so.4:_ZN12QEasingCurveC1ENS_4TypeE
libQtCore.so.4:_ZN12QEasingCurveC1ERKS_
libQtCore.so.4:_ZN12QEasingCurveC2ENS_4TypeE
libQtCore.so.4:_ZN12QEasingCurveC2ERKS_
libQtCore.so.4:_ZN12QEasingCurveD1Ev
libQtCore.so.4:_ZN12QEasingCurveD2Ev
libQtCore.so.4:_ZN12QEasingCurveaSERKS_
libQtCore.so.4:_ZN12QLibraryInfo16licensedProductsEv
libQtCore.so.4:_ZN12QLibraryInfo8buildKeyEv
libQtCore.so.4:_ZN12QLibraryInfo8licenseeEv
libQtCore.so.4:_ZN12QLibraryInfo8locationENS_15LibraryLocationE
libQtCore.so.4:_ZN12QLibraryInfo9buildDateEv
libQtCore.so.4:_ZN12QLibraryInfoC1Ev
libQtCore.so.4:_ZN12QLibraryInfoC2Ev
libQtCore.so.4:_ZN12QSystemError8toStringEv
libQtCore.so.4:_ZN12QTextDecoder9toUnicodeEP7QStringPKci
libQtCore.so.4:_ZN12QTextDecoder9toUnicodeEPKci
libQtCore.so.4:_ZN12QTextDecoder9toUnicodeERK10QByteArray
libQtCore.so.4:_ZN12QTextDecoderC1EPK10QTextCodec6QFlagsINS0_14ConversionFlagEE
libQtCore.so.4:_ZN12QTextDecoderC2EPK10QTextCodec6QFlagsINS0_14ConversionFlagEE
libQtCore.so.4:_ZN12QTextDecoderD1Ev
libQtCore.so.4:_ZN12QTextDecoderD2Ev
libQtCore.so.4:_ZN12QTextEncoder11fromUnicodeEPK5QChari
libQtCore.so.4:_ZN12QTextEncoder11fromUnicodeERK7QString
libQtCore.so.4:_ZN12QTextEncoder11fromUnicodeERK7QStringRi
libQtCore.so.4:_ZN12QTextEncoderC1EPK10QTextCodec6QFlagsINS0_14ConversionFlagEE
libQtCore.so.4:_ZN12QTextEncoderC2EPK10QTextCodec6QFlagsINS0_14ConversionFlagEE
libQtCore.so.4:_ZN12QTextEncoderD1Ev
libQtCore.so.4:_ZN12QTextEncoderD2Ev
libQtCore.so.4:_ZN12QtConcurrent15ResultStoreBase10addResultsEiPKvii
libQtCore.so.4:_ZN12QtConcurrent15ResultStoreBase13setFilterModeEb
libQtCore.so.4:_ZN12QtConcurrent15ResultStoreBase15syncResultCountEv
libQtCore.so.4:_ZN12QtConcurrent15ResultStoreBase16insertResultItemEiRNS_10ResultItemE
libQtCore.so.4:_ZN12QtConcurrent15ResultStoreBase17updateInsertIndexEii
libQtCore.so.4:_ZN12QtConcurrent15ResultStoreBase18syncPendingResultsEv
libQtCore.so.4:_ZN12QtConcurrent15ResultStoreBase23insertResultItemIfValidEiRNS_10ResultItemE
libQtCore.so.4:_ZN12QtConcurrent15ResultStoreBase9addResultEiPKv
libQtCore.so.4:_ZN12QtConcurrent15ResultStoreBaseC1Ev
libQtCore.so.4:_ZN12QtConcurrent15ResultStoreBaseC2Ev
libQtCore.so.4:_ZN12QtConcurrent16BlockSizeManager13timeAfterUserEv
libQtCore.so.4:_ZN12QtConcurrent16BlockSizeManager14timeBeforeUserEv
libQtCore.so.4:_ZN12QtConcurrent16BlockSizeManager9blockSizeEv
libQtCore.so.4:_ZN12QtConcurrent16BlockSizeManagerC1Ei
libQtCore.so.4:_ZN12QtConcurrent16BlockSizeManagerC2Ei
libQtCore.so.4:_ZN12QtConcurrent16ThreadEngineBase10isCanceledEv
libQtCore.so.4:_ZN12QtConcurrent16ThreadEngineBase10threadExitEv
libQtCore.so.4:_ZN12QtConcurrent16ThreadEngineBase11startThreadEv
libQtCore.so.4:_ZN12QtConcurrent16ThreadEngineBase12startThreadsEv
libQtCore.so.4:_ZN12QtConcurrent16ThreadEngineBase13startBlockingEv
libQtCore.so.4:_ZN12QtConcurrent16ThreadEngineBase13waitForResumeEv
libQtCore.so.4:_ZN12QtConcurrent16ThreadEngineBase15handleExceptionERKNS_9ExceptionE
libQtCore.so.4:_ZN12QtConcurrent16ThreadEngineBase16setProgressRangeEii
libQtCore.so.4:_ZN12QtConcurrent16ThreadEngineBase16setProgressValueEi
libQtCore.so.4:_ZN12QtConcurrent16ThreadEngineBase18threadThrottleExitEv
libQtCore.so.4:_ZN12QtConcurrent16ThreadEngineBase19startSingleThreadedEv
libQtCore.so.4:_ZN12QtConcurrent16ThreadEngineBase19startThreadInternalEv
libQtCore.so.4:_ZN12QtConcurrent16ThreadEngineBase23acquireBarrierSemaphoreEv
libQtCore.so.4:_ZN12QtConcurrent16ThreadEngineBase26isProgressReportingEnabledEv
libQtCore.so.4:_ZN12QtConcurrent16ThreadEngineBase3runEv
libQtCore.so.4:_ZN12QtConcurrent16ThreadEngineBaseC1Ev
libQtCore.so.4:_ZN12QtConcurrent16ThreadEngineBaseC2Ev
libQtCore.so.4:_ZN12QtConcurrent16ThreadEngineBaseD0Ev
libQtCore.so.4:_ZN12QtConcurrent16ThreadEngineBaseD1Ev
libQtCore.so.4:_ZN12QtConcurrent16ThreadEngineBaseD2Ev
libQtCore.so.4:_ZN12QtConcurrent18ResultIteratorBase14batchedAdvanceEv
libQtCore.so.4:_ZN12QtConcurrent18ResultIteratorBaseC1EN4QMapIiNS_10ResultItemEE14const_iteratorEi
libQtCore.so.4:_ZN12QtConcurrent18ResultIteratorBaseC1Ev
libQtCore.so.4:_ZN12QtConcurrent18ResultIteratorBaseC2EN4QMapIiNS_10ResultItemEE14const_iteratorEi
libQtCore.so.4:_ZN12QtConcurrent18ResultIteratorBaseC2Ev
libQtCore.so.4:_ZN12QtConcurrent18ResultIteratorBaseppEv
libQtCore.so.4:_ZN12QtConcurrent8internal14ExceptionStore12setExceptionERKNS_9ExceptionE
libQtCore.so.4:_ZN12QtConcurrent8internal14ExceptionStore22throwPossibleExceptionEv
libQtCore.so.4:_ZN12QtConcurrent8internal14ExceptionStore9exceptionEv
libQtCore.so.4:_ZN13QElapsedTimer10invalidateEv
libQtCore.so.4:_ZN13QElapsedTimer11isMonotonicEv
libQtCore.so.4:_ZN13QElapsedTimer5startEv
libQtCore.so.4:_ZN13QElapsedTimer7restartEv
libQtCore.so.4:_ZN13QElapsedTimer9clockTypeEv
libQtCore.so.4:_ZN13QFSFileEngine11currentPathERK7QString
libQtCore.so.4:_ZN13QFSFileEngine11setFileNameERK7QString
libQtCore.so.4:_ZN13QFSFileEngine12endEntryListEv
libQtCore.so.4:_ZN13QFSFileEngine14beginEntryListE6QFlagsIN4QDir6FilterEERK11QStringList
libQtCore.so.4:_ZN13QFSFileEngine14setCurrentPathERK7QString
libQtCore.so.4:_ZN13QFSFileEngine14setPermissionsEj
libQtCore.so.4:_ZN13QFSFileEngine4copyERK7QString
libQtCore.so.4:_ZN13QFSFileEngine4linkERK7QString
libQtCore.so.4:_ZN13QFSFileEngine4openE6QFlagsIN9QIODevice12OpenModeFlagEE
libQtCore.so.4:_ZN13QFSFileEngine4openE6QFlagsIN9QIODevice12OpenModeFlagEEP8_IO_FILE
libQtCore.so.4:_ZN13QFSFileEngine4openE6QFlagsIN9QIODevice12OpenModeFlagEEP8_IO_FILES0_IN5QFile14FileHandleFlagEE
libQtCore.so.4:_ZN13QFSFileEngine4openE6QFlagsIN9QIODevice12OpenModeFlagEEi
libQtCore.so.4:_ZN13QFSFileEngine4openE6QFlagsIN9QIODevice12OpenModeFlagEEiS0_IN5QFile14FileHandleFlagEE
libQtCore.so.4:_ZN13QFSFileEngine4readEPcx
libQtCore.so.4:_ZN13QFSFileEngine4seekEx
libQtCore.so.4:_ZN13QFSFileEngine5closeEv
libQtCore.so.4:_ZN13QFSFileEngine5flushEv
libQtCore.so.4:_ZN13QFSFileEngine5writeEPKcx
libQtCore.so.4:_ZN13QFSFileEngine6drivesEv
libQtCore.so.4:_ZN13QFSFileEngine6removeEv
libQtCore.so.4:_ZN13QFSFileEngine6renameERK7QString
libQtCore.so.4:_ZN13QFSFileEngine7setSizeEx
libQtCore.so.4:_ZN13QFSFileEngine8homePathEv
libQtCore.so.4:_ZN13QFSFileEngine8readLineEPcx
libQtCore.so.4:_ZN13QFSFileEngine8rootPathEv
libQtCore.so.4:_ZN13QFSFileEngine8tempPathEv
libQtCore.so.4:_ZN13QFSFileEngine9extensionEN19QAbstractFileEngine9ExtensionEPKNS0_15ExtensionOptionEPNS0_15ExtensionReturnE
libQtCore.so.4:_ZN13QFSFileEngineC1ER20QFSFileEnginePrivate
libQtCore.so.4:_ZN13QFSFileEngineC1ERK7QString
libQtCore.so.4:_ZN13QFSFileEngineC1Ev
libQtCore.so.4:_ZN13QFSFileEngineC2ER20QFSFileEnginePrivate
libQtCore.so.4:_ZN13QFSFileEngineC2ERK7QString
libQtCore.so.4:_ZN13QFSFileEngineC2Ev
libQtCore.so.4:_ZN13QFSFileEngineD0Ev
libQtCore.so.4:_ZN13QFSFileEngineD1Ev
libQtCore.so.4:_ZN13QFSFileEngineD2Ev
libQtCore.so.4:_ZN13QFontLaoCodecD0Ev
libQtCore.so.4:_ZN13QFontLaoCodecD1Ev
libQtCore.so.4:_ZN13QFontLaoCodecD2Ev
libQtCore.so.4:_ZN13QHistoryState11qt_metacallEN11QMetaObject4CallEiPPv
libQtCore.so.4:_ZN13QHistoryState11qt_metacastEPKc
libQtCore.so.4:_ZN13QHistoryState14setHistoryTypeENS_11HistoryTypeE
libQtCore.so.4:_ZN13QHistoryState15setDefaultStateEP14QAbstractState
libQtCore.so.4:_ZN13QHistoryState5eventEP6QEvent
libQtCore.so.4:_ZN13QHistoryState6onExitEP6QEvent
libQtCore.so.4:_ZN13QHistoryState7onEntryEP6QEvent
libQtCore.so.4:_ZN13QHistoryStateC1ENS_11HistoryTypeEP6QState
libQtCore.so.4:_ZN13QHistoryStateC1EP6QState
libQtCore.so.4:_ZN13QHistoryStateC2ENS_11HistoryTypeEP6QState
libQtCore.so.4:_ZN13QHistoryStateC2EP6QState
libQtCore.so.4:_ZN13QHistoryStateD0Ev
libQtCore.so.4:_ZN13QHistoryStateD1Ev
libQtCore.so.4:_ZN13QHistoryStateD2Ev
libQtCore.so.4:_ZN13QMetaPropertyC1Ev
libQtCore.so.4:_ZN13QMetaPropertyC2Ev
libQtCore.so.4:_ZN13QPluginLoader11qt_metacallEN11QMetaObject4CallEiPPv
libQtCore.so.4:_ZN13QPluginLoader11qt_metacastEPKc
libQtCore.so.4:_ZN13QPluginLoader11setFileNameERK7QString
libQtCore.so.4:_ZN13QPluginLoader12setLoadHintsE6QFlagsIN8QLibrary8LoadHintEE
libQtCore.so.4:_ZN13QPluginLoader15staticInstancesEv
libQtCore.so.4:_ZN13QPluginLoader4loadEv
libQtCore.so.4:_ZN13QPluginLoader6unloadEv
libQtCore.so.4:_ZN13QPluginLoader8instanceEv
libQtCore.so.4:_ZN13QPluginLoaderC1EP7QObject
libQtCore.so.4:_ZN13QPluginLoaderC1ERK7QStringP7QObject
libQtCore.so.4:_ZN13QPluginLoaderC2EP7QObject
libQtCore.so.4:_ZN13QPluginLoaderC2ERK7QStringP7QObject
libQtCore.so.4:_ZN13QPluginLoaderD0Ev
libQtCore.so.4:_ZN13QPluginLoaderD1Ev
libQtCore.so.4:_ZN13QPluginLoaderD2Ev
libQtCore.so.4:_ZN13QSharedMemory11qt_metacallEN11QMetaObject4CallEiPPv
libQtCore.so.4:_ZN13QSharedMemory11qt_metacastEPKc
libQtCore.so.4:_ZN13QSharedMemory12setNativeKeyERK7QString
libQtCore.so.4:_ZN13QSharedMemory4dataEv
libQtCore.so.4:_ZN13QSharedMemory4lockEv
libQtCore.so.4:_ZN13QSharedMemory6attachENS_10AccessModeE
libQtCore.so.4:_ZN13QSharedMemory6createEiNS_10AccessModeE
libQtCore.so.4:_ZN13QSharedMemory6detachEv
libQtCore.so.4:_ZN13QSharedMemory6setKeyERK7QString
libQtCore.so.4:_ZN13QSharedMemory6unlockEv
libQtCore.so.4:_ZN13QSharedMemoryC1EP7QObject
libQtCore.so.4:_ZN13QSharedMemoryC1ERK7QStringP7QObject
libQtCore.so.4:_ZN13QSharedMemoryC2EP7QObject
libQtCore.so.4:_ZN13QSharedMemoryC2ERK7QStringP7QObject
libQtCore.so.4:_ZN13QSharedMemoryD0Ev
libQtCore.so.4:_ZN13QSharedMemoryD1Ev
libQtCore.so.4:_ZN13QSharedMemoryD2Ev
libQtCore.so.4:_ZN13QSignalMapper10setMappingEP7QObjectP7QWidget
libQtCore.so.4:_ZN13QSignalMapper10setMappingEP7QObjectRK7QString
libQtCore.so.4:_ZN13QSignalMapper10setMappingEP7QObjectS1_
libQtCore.so.4:_ZN13QSignalMapper10setMappingEP7QObjecti
libQtCore.so.4:_ZN13QSignalMapper11qt_metacallEN11QMetaObject4CallEiPPv
libQtCore.so.4:_ZN13QSignalMapper11qt_metacastEPKc
libQtCore.so.4:_ZN13QSignalMapper14removeMappingsEP7QObject
libQtCore.so.4:_ZN13QSignalMapper3mapEP7QObject
libQtCore.so.4:_ZN13QSignalMapper3mapEv
libQtCore.so.4:_ZN13QSignalMapper6mappedEP7QObject
libQtCore.so.4:_ZN13QSignalMapper6mappedEP7QWidget
libQtCore.so.4:_ZN13QSignalMapper6mappedERK7QString
libQtCore.so.4:_ZN13QSignalMapper6mappedEi
libQtCore.so.4:_ZN13QSignalMapperC1EP7QObject
libQtCore.so.4:_ZN13QSignalMapperC1EP7QObjectPKc
libQtCore.so.4:_ZN13QSignalMapperC2EP7QObject
libQtCore.so.4:_ZN13QSignalMapperC2EP7QObjectPKc
libQtCore.so.4:_ZN13QSignalMapperD0Ev
libQtCore.so.4:_ZN13QSignalMapperD1Ev
libQtCore.so.4:_ZN13QSignalMapperD2Ev
libQtCore.so.4:_ZN13QStateMachine10clearErrorEv
libQtCore.so.4:_ZN13QStateMachine11SignalEventC1EP7QObjectiRK5QListI8QVariantE
libQtCore.so.4:_ZN13QStateMachine11SignalEventC2EP7QObjectiRK5QListI8QVariantE
libQtCore.so.4:_ZN13QStateMachine11SignalEventD0Ev
libQtCore.so.4:_ZN13QStateMachine11SignalEventD1Ev
libQtCore.so.4:_ZN13QStateMachine11SignalEventD2Ev
libQtCore.so.4:_ZN13QStateMachine11eventFilterEP7QObjectP6QEvent
libQtCore.so.4:_ZN13QStateMachine11qt_metacallEN11QMetaObject4CallEiPPv
libQtCore.so.4:_ZN13QStateMachine11qt_metacastEPKc
libQtCore.so.4:_ZN13QStateMachine11removeStateEP14QAbstractState
libQtCore.so.4:_ZN13QStateMachine11setAnimatedEb
libQtCore.so.4:_ZN13QStateMachine12WrappedEventC1EP7QObjectP6QEvent
libQtCore.so.4:_ZN13QStateMachine12WrappedEventC2EP7QObjectP6QEvent
libQtCore.so.4:_ZN13QStateMachine12WrappedEventD0Ev
libQtCore.so.4:_ZN13QStateMachine12WrappedEventD1Ev
libQtCore.so.4:_ZN13QStateMachine12WrappedEventD2Ev
libQtCore.so.4:_ZN13QStateMachine12endMicrostepEP6QEvent
libQtCore.so.4:_ZN13QStateMachine14beginMicrostepEP6QEvent
libQtCore.so.4:_ZN13QStateMachine16postDelayedEventEP6QEventi
libQtCore.so.4:_ZN13QStateMachine18cancelDelayedEventEi
libQtCore.so.4:_ZN13QStateMachine19addDefaultAnimationEP18QAbstractAnimation
libQtCore.so.4:_ZN13QStateMachine20endSelectTransitionsEP6QEvent
libQtCore.so.4:_ZN13QStateMachine22beginSelectTransitionsEP6QEvent
libQtCore.so.4:_ZN13QStateMachine22removeDefaultAnimationEP18QAbstractAnimation
libQtCore.so.4:_ZN13QStateMachine22setGlobalRestorePolicyENS_13RestorePolicyE
libQtCore.so.4:_ZN13QStateMachine4stopEv
libQtCore.so.4:_ZN13QStateMachine5eventEP6QEvent
libQtCore.so.4:_ZN13QStateMachine5startEv
libQtCore.so.4:_ZN13QStateMachine6onExitEP6QEvent
libQtCore.so.4:_ZN13QStateMachine7onEntryEP6QEvent
libQtCore.so.4:_ZN13QStateMachine7startedEv
libQtCore.so.4:_ZN13QStateMachine7stoppedEv
libQtCore.so.4:_ZN13QStateMachine8addStateEP14QAbstractState
libQtCore.so.4:_ZN13QStateMachine9postEventEP6QEventNS_13EventPriorityE
libQtCore.so.4:_ZN13QStateMachineC1EP7QObject
libQtCore.so.4:_ZN13QStateMachineC1ER20QStateMachinePrivateP7QObject
libQtCore.so.4:_ZN13QStateMachineC2EP7QObject
libQtCore.so.4:_ZN13QStateMachineC2ER20QStateMachinePrivateP7QObject
libQtCore.so.4:_ZN13QStateMachineD0Ev
libQtCore.so.4:_ZN13QStateMachineD1Ev
libQtCore.so.4:_ZN13QStateMachineD2Ev
libQtCore.so.4:_ZN13QSystemLocaleC1Eb
libQtCore.so.4:_ZN13QSystemLocaleC1Ev
libQtCore.so.4:_ZN13QSystemLocaleC2Eb
libQtCore.so.4:_ZN13QSystemLocaleC2Ev
libQtCore.so.4:_ZN13QSystemLocaleD0Ev
libQtCore.so.4:_ZN13QSystemLocaleD1Ev
libQtCore.so.4:_ZN13QSystemLocaleD2Ev
libQtCore.so.4:_ZN13QUnifiedTimer10timerEventEP11QTimerEvent
libQtCore.so.4:_ZN13QUnifiedTimer17ensureTimerUpdateEv
libQtCore.so.4:_ZN13QUnifiedTimer17registerAnimationEP18QAbstractAnimationb
libQtCore.so.4:_ZN13QUnifiedTimer17setTimingIntervalEi
libQtCore.so.4:_ZN13QUnifiedTimer19unregisterAnimationEP18QAbstractAnimation
libQtCore.so.4:_ZN13QUnifiedTimer20updateAnimationTimerEv
libQtCore.so.4:_ZN13QUnifiedTimer20updateAnimationsTimeEv
libQtCore.so.4:_ZN13QUnifiedTimer21restartAnimationTimerEv
libQtCore.so.4:_ZN13QUnifiedTimer22installAnimationDriverEP16QAnimationDriver
libQtCore.so.4:_ZN13QUnifiedTimer24registerRunningAnimationEP18QAbstractAnimation
libQtCore.so.4:_ZN13QUnifiedTimer26unregisterRunningAnimationEP18QAbstractAnimation
libQtCore.so.4:_ZN13QUnifiedTimer33closestPauseAnimationTimeToFinishEv
libQtCore.so.4:_ZN13QUnifiedTimer8instanceEb
libQtCore.so.4:_ZN13QUnifiedTimer8instanceEv
libQtCore.so.4:_ZN13QUnifiedTimerC1Ev
libQtCore.so.4:_ZN13QUnifiedTimerC2Ev
libQtCore.so.4:_ZN14QAbstractState11qt_metacallEN11QMetaObject4CallEiPPv
libQtCore.so.4:_ZN14QAbstractState11qt_metacastEPKc
libQtCore.so.4:_ZN14QAbstractState5eventEP6QEvent
libQtCore.so.4:_ZN14QAbstractState6exitedEv
libQtCore.so.4:_ZN14QAbstractState7enteredEv
libQtCore.so.4:_ZN14QAbstractStateC1EP6QState
libQtCore.so.4:_ZN14QAbstractStateC1ER21QAbstractStatePrivateP6QState
libQtCore.so.4:_ZN14QAbstractStateC2EP6QState
libQtCore.so.4:_ZN14QAbstractStateC2ER21QAbstractStatePrivateP6QState
libQtCore.so.4:_ZN14QAbstractStateD0Ev
libQtCore.so.4:_ZN14QAbstractStateD1Ev
libQtCore.so.4:_ZN14QAbstractStateD2Ev
libQtCore.so.4:_ZN14QFactoryLoader10refreshAllEv
libQtCore.so.4:_ZN14QFactoryLoader11qt_metacallEN11QMetaObject4CallEiPPv
libQtCore.so.4:_ZN14QFactoryLoader11qt_metacastEPKc
libQtCore.so.4:_ZN14QFactoryLoader6updateEv
libQtCore.so.4:_ZN14QFactoryLoader9updateDirERK7QStringR9QSettings
libQtCore.so.4:_ZN14QFactoryLoaderC1EPKcRK7QStringN2Qt15CaseSensitivityE
libQtCore.so.4:_ZN14QFactoryLoaderC2EPKcRK7QStringN2Qt15CaseSensitivityE
libQtCore.so.4:_ZN14QFactoryLoaderD0Ev
libQtCore.so.4:_ZN14QFactoryLoaderD1Ev
libQtCore.so.4:_ZN14QFactoryLoaderD2Ev
libQtCore.so.4:_ZN14QLocalePrivate10findLocaleEN7QLocale8LanguageENS0_6ScriptENS0_7CountryE
libQtCore.so.4:_ZN14QLocalePrivate12codeToScriptERK7QString
libQtCore.so.4:_ZN14QLocalePrivate13codeToCountryERK7QString
libQtCore.so.4:_ZN14QLocalePrivate14codeToLanguageERK7QString
libQtCore.so.4:_ZN14QLocalePrivate14doubleToStringE5QCharS0_S0_S0_S0_S0_diNS_10DoubleFormEij
libQtCore.so.4:_ZN14QLocalePrivate16longLongToStringE5QCharS0_S0_S0_xiiij
libQtCore.so.4:_ZN14QLocalePrivate17bytearrayToDoubleEPKcPbS2_
libQtCore.so.4:_ZN14QLocalePrivate17getLangAndCountryERK7QStringRN7QLocale8LanguageERNS3_6ScriptERNS3_7CountryE
libQtCore.so.4:_ZN14QLocalePrivate19bytearrayToLongLongEPKciPbS2_
libQtCore.so.4:_ZN14QLocalePrivate19unsLongLongToStringE5QCharS0_S0_yiiij
libQtCore.so.4:_ZN14QLocalePrivate19updateSystemPrivateEv
libQtCore.so.4:_ZN14QLocalePrivate22bytearrayToUnsLongLongEPKciPb
libQtCore.so.4:_ZN14QMetaCallEvent13placeMetaCallEP7QObject
libQtCore.so.4:_ZN14QMetaCallEventC1EttPFvP7QObjectN11QMetaObject4CallEiPPvEPKS0_iiPiS5_P10QSemaphore
libQtCore.so.4:_ZN14QMetaCallEventC2EttPFvP7QObjectN11QMetaObject4CallEiPPvEPKS0_iiPiS5_P10QSemaphore
libQtCore.so.4:_ZN14QMetaCallEventD0Ev
libQtCore.so.4:_ZN14QMetaCallEventD1Ev
libQtCore.so.4:_ZN14QMetaCallEventD2Ev
libQtCore.so.4:_ZN14QObjectPrivate10ConnectionD1Ev
libQtCore.so.4:_ZN14QObjectPrivate10ConnectionD2Ev
libQtCore.so.4:_ZN14QObjectPrivate11clearGuardsEP7QObject
libQtCore.so.4:_ZN14QObjectPrivate13addConnectionEiPNS_10ConnectionE
libQtCore.so.4:_ZN14QObjectPrivate14deleteChildrenEv
libQtCore.so.4:_ZN14QObjectPrivate16setParent_helperEP7QObject
libQtCore.so.4:_ZN14QObjectPrivate19_q_reregisterTimersEPv
libQtCore.so.4:_ZN14QObjectPrivate19moveToThread_helperEv
libQtCore.so.4:_ZN14QObjectPrivate20cleanConnectionListsEv
libQtCore.so.4:_ZN14QObjectPrivate20setThreadData_helperEP11QThreadDataS1_
libQtCore.so.4:_ZN14QObjectPrivate30sendPendingChildInsertedEventsEv
libQtCore.so.4:_ZN14QObjectPrivateC1Ei
libQtCore.so.4:_ZN14QObjectPrivateC2Ei
libQtCore.so.4:_ZN14QObjectPrivateD0Ev
libQtCore.so.4:_ZN14QObjectPrivateD1Ev
libQtCore.so.4:_ZN14QObjectPrivateD2Ev
libQtCore.so.4:_ZN14QReadWriteLock11lockForReadEv
libQtCore.so.4:_ZN14QReadWriteLock12lockForWriteEv
libQtCore.so.4:_ZN14QReadWriteLock14tryLockForReadEi
libQtCore.so.4:_ZN14QReadWriteLock14tryLockForReadEv
libQtCore.so.4:_ZN14QReadWriteLock15tryLockForWriteEi
libQtCore.so.4:_ZN14QReadWriteLock15tryLockForWriteEv
libQtCore.so.4:_ZN14QReadWriteLock6unlockEv
libQtCore.so.4:_ZN14QReadWriteLockC1ENS_13RecursionModeE
libQtCore.so.4:_ZN14QReadWriteLockC1Ev
libQtCore.so.4:_ZN14QReadWriteLockC2ENS_13RecursionModeE
libQtCore.so.4:_ZN14QReadWriteLockC2Ev
libQtCore.so.4:_ZN14QReadWriteLockD1Ev
libQtCore.so.4:_ZN14QReadWriteLockD2Ev
libQtCore.so.4:_ZN14QStringMatcher10setPatternERK7QString
libQtCore.so.4:_ZN14QStringMatcher18setCaseSensitivityEN2Qt15CaseSensitivityE
libQtCore.so.4:_ZN14QStringMatcherC1EPK5QChariN2Qt15CaseSensitivityE
libQtCore.so.4:_ZN14QStringMatcherC1ERK7QStringN2Qt15CaseSensitivityE
libQtCore.so.4:_ZN14QStringMatcherC1ERKS_
libQtCore.so.4:_ZN14QStringMatcherC1Ev
libQtCore.so.4:_ZN14QStringMatcherC2EPK5QChariN2Qt15CaseSensitivityE
libQtCore.so.4:_ZN14QStringMatcherC2ERK7QStringN2Qt15CaseSensitivityE
libQtCore.so.4:_ZN14QStringMatcherC2ERKS_
libQtCore.so.4:_ZN14QStringMatcherC2Ev
libQtCore.so.4:_ZN14QStringMatcherD1Ev
libQtCore.so.4:_ZN14QStringMatcherD2Ev
libQtCore.so.4:_ZN14QStringMatcheraSERKS_
libQtCore.so.4:_ZN14QTemporaryFile11qt_metacallEN11QMetaObject4CallEiPPv
libQtCore.so.4:_ZN14QTemporaryFile11qt_metacastEPKc
libQtCore.so.4:_ZN14QTemporaryFile13setAutoRemoveEb
libQtCore.so.4:_ZN14QTemporaryFile15createLocalFileER5QFile
libQtCore.so.4:_ZN14QTemporaryFile15setFileTemplateERK7QString
libQtCore.so.4:_ZN14QTemporaryFile4openE6QFlagsIN9QIODevice12OpenModeFlagEE
libQtCore.so.4:_ZN14QTemporaryFileC1EP7QObject
libQtCore.so.4:_ZN14QTemporaryFileC1ERK7QString
libQtCore.so.4:_ZN14QTemporaryFileC1ERK7QStringP7QObject
libQtCore.so.4:_ZN14QTemporaryFileC1Ev
libQtCore.so.4:_ZN14QTemporaryFileC2EP7QObject
libQtCore.so.4:_ZN14QTemporaryFileC2ERK7QString
libQtCore.so.4:_ZN14QTemporaryFileC2ERK7QStringP7QObject
libQtCore.so.4:_ZN14QTemporaryFileC2Ev
libQtCore.so.4:_ZN14QTemporaryFileD0Ev
libQtCore.so.4:_ZN14QTemporaryFileD1Ev
libQtCore.so.4:_ZN14QTemporaryFileD2Ev
libQtCore.so.4:_ZN14QUnicodeTables10propertiesEj
libQtCore.so.4:_ZN14QUnicodeTables10propertiesEt
libQtCore.so.4:_ZN14QUnicodeTables14lineBreakClassEj
libQtCore.so.4:_ZN14QUnicodeTables6scriptEj
libQtCore.so.4:_ZN14QWaitCondition4waitEP14QReadWriteLockm
libQtCore.so.4:_ZN14QWaitCondition4waitEP6QMutexm
libQtCore.so.4:_ZN14QWaitCondition7wakeAllEv
libQtCore.so.4:_ZN14QWaitCondition7wakeOneEv
libQtCore.so.4:_ZN14QWaitConditionC1Ev
libQtCore.so.4:_ZN14QWaitConditionC2Ev
libQtCore.so.4:_ZN14QWaitConditionD1Ev
libQtCore.so.4:_ZN14QWaitConditionD2Ev
libQtCore.so.4:_ZN15QAnimationGroup11qt_metacallEN11QMetaObject4CallEiPPv
libQtCore.so.4:_ZN15QAnimationGroup11qt_metacastEPKc
libQtCore.so.4:_ZN15QAnimationGroup12addAnimationEP18QAbstractAnimation
libQtCore.so.4:_ZN15QAnimationGroup13takeAnimationEi
libQtCore.so.4:_ZN15QAnimationGroup15insertAnimationEiP18QAbstractAnimation
libQtCore.so.4:_ZN15QAnimationGroup15removeAnimationEP18QAbstractAnimation
libQtCore.so.4:_ZN15QAnimationGroup5clearEv
libQtCore.so.4:_ZN15QAnimationGroup5eventEP6QEvent
libQtCore.so.4:_ZN15QAnimationGroupC1EP7QObject
libQtCore.so.4:_ZN15QAnimationGroupC1ER22QAnimationGroupPrivateP7QObject
libQtCore.so.4:_ZN15QAnimationGroupC2EP7QObject
libQtCore.so.4:_ZN15QAnimationGroupC2ER22QAnimationGroupPrivateP7QObject
libQtCore.so.4:_ZN15QAnimationGroupD0Ev
libQtCore.so.4:_ZN15QAnimationGroupD1Ev
libQtCore.so.4:_ZN15QAnimationGroupD2Ev
libQtCore.so.4:_ZN15QDateTimeParser11parseFormatERK7QString
libQtCore.so.4:_ZN15QObjectUserDataD0Ev
libQtCore.so.4:_ZN15QObjectUserDataD1Ev
libQtCore.so.4:_ZN15QObjectUserDataD2Ev
libQtCore.so.4:_ZN15QPauseAnimation11qt_metacallEN11QMetaObject4CallEiPPv
libQtCore.so.4:_ZN15QPauseAnimation11qt_metacastEPKc
libQtCore.so.4:_ZN15QPauseAnimation11setDurationEi
libQtCore.so.4:_ZN15QPauseAnimation17updateCurrentTimeEi
libQtCore.so.4:_ZN15QPauseAnimation5eventEP6QEvent
libQtCore.so.4:_ZN15QPauseAnimationC1EP7QObject
libQtCore.so.4:_ZN15QPauseAnimationC1EiP7QObject
libQtCore.so.4:_ZN15QPauseAnimationC2EP7QObject
libQtCore.so.4:_ZN15QPauseAnimationC2EiP7QObject
libQtCore.so.4:_ZN15QPauseAnimationD0Ev
libQtCore.so.4:_ZN15QPauseAnimationD1Ev
libQtCore.so.4:_ZN15QPauseAnimationD2Ev
libQtCore.so.4:_ZN15QSocketNotifier10setEnabledEb
libQtCore.so.4:_ZN15QSocketNotifier11qt_metacallEN11QMetaObject4CallEiPPv
libQtCore.so.4:_ZN15QSocketNotifier11qt_metacastEPKc
libQtCore.so.4:_ZN15QSocketNotifier5eventEP6QEvent
libQtCore.so.4:_ZN15QSocketNotifier9activatedEi
libQtCore.so.4:_ZN15QSocketNotifierC1EiNS_4TypeEP7QObject
libQtCore.so.4:_ZN15QSocketNotifierC1EiNS_4TypeEP7QObjectPKc
libQtCore.so.4:_ZN15QSocketNotifierC2EiNS_4TypeEP7QObject
libQtCore.so.4:_ZN15QSocketNotifierC2EiNS_4TypeEP7QObjectPKc
libQtCore.so.4:_ZN15QSocketNotifierD0Ev
libQtCore.so.4:_ZN15QSocketNotifierD1Ev
libQtCore.so.4:_ZN15QSocketNotifierD2Ev
libQtCore.so.4:_ZN15QtSharedPointer20ExternalRefCountData16setQObjectSharedEPK7QObjectb
libQtCore.so.4:_ZN15QtSharedPointer20ExternalRefCountData9getAndRefEPK7QObject
libQtCore.so.4:_ZN15QtSharedPointer22internalSafetyCheckAddEPVKv
libQtCore.so.4:_ZN15QtSharedPointer23internalSafetyCheckAdd2EPKvPVKv
libQtCore.so.4:_ZN15QtSharedPointer25internalSafetyCheckRemoveEPVKv
libQtCore.so.4:_ZN15QtSharedPointer26internalSafetyCheckRemove2EPKv
libQtCore.so.4:_ZN16QAnimationDriver11qt_metacallEN11QMetaObject4CallEiPPv
libQtCore.so.4:_ZN16QAnimationDriver11qt_metacastEPKc
libQtCore.so.4:_ZN16QAnimationDriver4stopEv
libQtCore.so.4:_ZN16QAnimationDriver5startEv
libQtCore.so.4:_ZN16QAnimationDriver7advanceEv
libQtCore.so.4:_ZN16QAnimationDriver7installEv
libQtCore.so.4:_ZN16QAnimationDriverC1EP7QObject
libQtCore.so.4:_ZN16QAnimationDriverC1ER23QAnimationDriverPrivateP7QObject
libQtCore.so.4:_ZN16QAnimationDriverC2EP7QObject
libQtCore.so.4:_ZN16QAnimationDriverC2ER23QAnimationDriverPrivateP7QObject
libQtCore.so.4:_ZN16QCoreApplication10enter_loopEv
libQtCore.so.4:_ZN16QCoreApplication10startingUpEv
libQtCore.so.4:_ZN16QCoreApplication10unixSignalEi
libQtCore.so.4:_ZN16QCoreApplication11aboutToQuitEv
libQtCore.so.4:_ZN16QCoreApplication11closingDownEv
libQtCore.so.4:_ZN16QCoreApplication11filterEventEPvPl
libQtCore.so.4:_ZN16QCoreApplication11qt_metacallEN11QMetaObject4CallEiPPv
libQtCore.so.4:_ZN16QCoreApplication11qt_metacastEPKc
libQtCore.so.4:_ZN16QCoreApplication12libraryPathsEv
libQtCore.so.4:_ZN16QCoreApplication12setAttributeEN2Qt20ApplicationAttributeEb
libQtCore.so.4:_ZN16QCoreApplication13compressEventEP6QEventP7QObjectP14QPostEventList
libQtCore.so.4:_ZN16QCoreApplication13processEventsE6QFlagsIN10QEventLoop17ProcessEventsFlagEE
libQtCore.so.4:_ZN16QCoreApplication13processEventsE6QFlagsIN10QEventLoop17ProcessEventsFlagEEi
libQtCore.so.4:_ZN16QCoreApplication13testAttributeEN2Qt20ApplicationAttributeE
libQtCore.so.4:_ZN16QCoreApplication14addLibraryPathERK7QString
libQtCore.so.4:_ZN16QCoreApplication14applicationPidEv
libQtCore.so.4:_ZN16QCoreApplication14notifyInternalEP7QObjectP6QEvent
libQtCore.so.4:_ZN16QCoreApplication14setEventFilterEPFbPvPlE
libQtCore.so.4:_ZN16QCoreApplication15applicationNameEv
libQtCore.so.4:_ZN16QCoreApplication15setLibraryPathsERK11QStringList
libQtCore.so.4:_ZN16QCoreApplication15watchUnixSignalEib
libQtCore.so.4:_ZN16QCoreApplication16hasPendingEventsEv
libQtCore.so.4:_ZN16QCoreApplication16organizationNameEv
libQtCore.so.4:_ZN16QCoreApplication16removeTranslatorEP11QTranslator
libQtCore.so.4:_ZN16QCoreApplication16sendPostedEventsEP7QObjecti
libQtCore.so.4:_ZN16QCoreApplication17installTranslatorEP11QTranslator
libQtCore.so.4:_ZN16QCoreApplication17removeLibraryPathERK7QString
libQtCore.so.4:_ZN16QCoreApplication18applicationDirPathEv
libQtCore.so.4:_ZN16QCoreApplication18applicationVersionEv
libQtCore.so.4:_ZN16QCoreApplication18organizationDomainEv
libQtCore.so.4:_ZN16QCoreApplication18removePostedEventsEP7QObject
libQtCore.so.4:_ZN16QCoreApplication18removePostedEventsEP7QObjecti
libQtCore.so.4:_ZN16QCoreApplication18setApplicationNameERK7QString
libQtCore.so.4:_ZN16QCoreApplication19applicationFilePathEv
libQtCore.so.4:_ZN16QCoreApplication19setOrganizationNameERK7QString
libQtCore.so.4:_ZN16QCoreApplication21setApplicationVersionERK7QString
libQtCore.so.4:_ZN16QCoreApplication21setOrganizationDomainERK7QString
libQtCore.so.4:_ZN16QCoreApplication4argcEv
libQtCore.so.4:_ZN16QCoreApplication4argvEv
libQtCore.so.4:_ZN16QCoreApplication4execEv
libQtCore.so.4:_ZN16QCoreApplication4exitEi
libQtCore.so.4:_ZN16QCoreApplication4initEv
libQtCore.so.4:_ZN16QCoreApplication4quitEv
libQtCore.so.4:_ZN16QCoreApplication5eventEP6QEvent
libQtCore.so.4:_ZN16QCoreApplication5flushEv
libQtCore.so.4:_ZN16QCoreApplication6notifyEP7QObjectP6QEvent
libQtCore.so.4:_ZN16QCoreApplication9argumentsEv
libQtCore.so.4:_ZN16QCoreApplication9exit_loopEv
libQtCore.so.4:_ZN16QCoreApplication9loopLevelEv
libQtCore.so.4:_ZN16QCoreApplication9postEventEP7QObjectP6QEvent
libQtCore.so.4:_ZN16QCoreApplication9postEventEP7QObjectP6QEventi
libQtCore.so.4:_ZN16QCoreApplication9translateEPKcS1_S1_NS_8EncodingE
libQtCore.so.4:_ZN16QCoreApplication9translateEPKcS1_S1_NS_8EncodingEi
libQtCore.so.4:_ZN16QCoreApplicationC1ER23QCoreApplicationPrivate
libQtCore.so.4:_ZN16QCoreApplicationC1ERiPPc
libQtCore.so.4:_ZN16QCoreApplicationC1ERiPPci
libQtCore.so.4:_ZN16QCoreApplicationC2ER23QCoreApplicationPrivate
libQtCore.so.4:_ZN16QCoreApplicationC2ERiPPc
libQtCore.so.4:_ZN16QCoreApplicationC2ERiPPci
libQtCore.so.4:_ZN16QCoreApplicationD0Ev
libQtCore.so.4:_ZN16QCoreApplicationD1Ev
libQtCore.so.4:_ZN16QCoreApplicationD2Ev
libQtCore.so.4:_ZN16QEventTransition11qt_metacallEN11QMetaObject4CallEiPPv
libQtCore.so.4:_ZN16QEventTransition11qt_metacastEPKc
libQtCore.so.4:_ZN16QEventTransition12onTransitionEP6QEvent
libQtCore.so.4:_ZN16QEventTransition12setEventTypeEN6QEvent4TypeE
libQtCore.so.4:_ZN16QEventTransition14setEventSourceEP7QObject
libQtCore.so.4:_ZN16QEventTransition5eventEP6QEvent
libQtCore.so.4:_ZN16QEventTransition9eventTestEP6QEvent
libQtCore.so.4:_ZN16QEventTransitionC1EP6QState
libQtCore.so.4:_ZN16QEventTransitionC1EP7QObjectN6QEvent4TypeEP6QState
libQtCore.so.4:_ZN16QEventTransitionC1ER23QEventTransitionPrivateP6QState
libQtCore.so.4:_ZN16QEventTransitionC1ER23QEventTransitionPrivateP7QObjectN6QEvent4TypeEP6QState
libQtCore.so.4:_ZN16QEventTransitionC2EP6QState
libQtCore.so.4:_ZN16QEventTransitionC2EP7QObjectN6QEvent4TypeEP6QState
libQtCore.so.4:_ZN16QEventTransitionC2ER23QEventTransitionPrivateP6QState
libQtCore.so.4:_ZN16QEventTransitionC2ER23QEventTransitionPrivateP7QObjectN6QEvent4TypeEP6QState
libQtCore.so.4:_ZN16QEventTransitionD0Ev
libQtCore.so.4:_ZN16QEventTransitionD1Ev
libQtCore.so.4:_ZN16QEventTransitionD2Ev
libQtCore.so.4:_ZN16QIODevicePrivate13putCharHelperEc
libQtCore.so.4:_ZN16QIODevicePrivate4peekEPcx
libQtCore.so.4:_ZN16QIODevicePrivate4peekEx
libQtCore.so.4:_ZN16QIODevicePrivateC1Ev
libQtCore.so.4:_ZN16QIODevicePrivateC2Ev
libQtCore.so.4:_ZN16QIODevicePrivateD0Ev
libQtCore.so.4:_ZN16QIODevicePrivateD1Ev
libQtCore.so.4:_ZN16QIODevicePrivateD2Ev
libQtCore.so.4:_ZN16QSegfaultHandler10initializeEPPci
libQtCore.so.4:_ZN16QSystemSemaphore6setKeyERK7QStringiNS_10AccessModeE
libQtCore.so.4:_ZN16QSystemSemaphore7acquireEv
libQtCore.so.4:_ZN16QSystemSemaphore7releaseEi
libQtCore.so.4:_ZN16QSystemSemaphoreC1ERK7QStringiNS_10AccessModeE
libQtCore.so.4:_ZN16QSystemSemaphoreC2ERK7QStringiNS_10AccessModeE
libQtCore.so.4:_ZN16QSystemSemaphoreD1Ev
libQtCore.so.4:_ZN16QSystemSemaphoreD2Ev
libQtCore.so.4:_ZN16QTextCodecPlugin11qt_metacallEN11QMetaObject4CallEiPPv
libQtCore.so.4:_ZN16QTextCodecPlugin11qt_metacastEPKc
libQtCore.so.4:_ZN16QTextCodecPlugin6createERK7QString
libQtCore.so.4:_ZN16QTextCodecPluginC1EP7QObject
libQtCore.so.4:_ZN16QTextCodecPluginC2EP7QObject
libQtCore.so.4:_ZN16QTextCodecPluginD0Ev
libQtCore.so.4:_ZN16QTextCodecPluginD1Ev
libQtCore.so.4:_ZN16QTextCodecPluginD2Ev
libQtCore.so.4:_ZN16QXmlStreamReader10raiseErrorERK7QString
libQtCore.so.4:_ZN16QXmlStreamReader15readElementTextENS_24ReadElementTextBehaviourE
libQtCore.so.4:_ZN16QXmlStreamReader15readElementTextEv
libQtCore.so.4:_ZN16QXmlStreamReader17setEntityResolverEP24QXmlStreamEntityResolver
libQtCore.so.4:_ZN16QXmlStreamReader18skipCurrentElementEv
libQtCore.so.4:_ZN16QXmlStreamReader20readNextStartElementEv
libQtCore.so.4:_ZN16QXmlStreamReader22setNamespaceProcessingEb
libQtCore.so.4:_ZN16QXmlStreamReader28addExtraNamespaceDeclarationERK30QXmlStreamNamespaceDeclaration
libQtCore.so.4:_ZN16QXmlStreamReader29addExtraNamespaceDeclarationsERK7QVectorI30QXmlStreamNamespaceDeclarationE
libQtCore.so.4:_ZN16QXmlStreamReader5clearEv
libQtCore.so.4:_ZN16QXmlStreamReader7addDataEPKc
libQtCore.so.4:_ZN16QXmlStreamReader7addDataERK10QByteArray
libQtCore.so.4:_ZN16QXmlStreamReader7addDataERK7QString
libQtCore.so.4:_ZN16QXmlStreamReader8readNextEv
libQtCore.so.4:_ZN16QXmlStreamReader9setDeviceEP9QIODevice
libQtCore.so.4:_ZN16QXmlStreamReaderC1EP9QIODevice
libQtCore.so.4:_ZN16QXmlStreamReaderC1EPKc
libQtCore.so.4:_ZN16QXmlStreamReaderC1ERK10QByteArray
libQtCore.so.4:_ZN16QXmlStreamReaderC1ERK7QString
libQtCore.so.4:_ZN16QXmlStreamReaderC1Ev
libQtCore.so.4:_ZN16QXmlStreamReaderC2EP9QIODevice
libQtCore.so.4:_ZN16QXmlStreamReaderC2EPKc
libQtCore.so.4:_ZN16QXmlStreamReaderC2ERK10QByteArray
libQtCore.so.4:_ZN16QXmlStreamReaderC2ERK7QString
libQtCore.so.4:_ZN16QXmlStreamReaderC2Ev
libQtCore.so.4:_ZN16QXmlStreamReaderD1Ev
libQtCore.so.4:_ZN16QXmlStreamReaderD2Ev
libQtCore.so.4:_ZN16QXmlStreamWriter10writeCDATAERK7QString
libQtCore.so.4:_ZN16QXmlStreamWriter12writeCommentERK7QString
libQtCore.so.4:_ZN16QXmlStreamWriter14writeAttributeERK19QXmlStreamAttribute
libQtCore.so.4:_ZN16QXmlStreamWriter14writeAttributeERK7QStringS2_
libQtCore.so.4:_ZN16QXmlStreamWriter14writeAttributeERK7QStringS2_S2_
libQtCore.so.4:_ZN16QXmlStreamWriter14writeNamespaceERK7QStringS2_
libQtCore.so.4:_ZN16QXmlStreamWriter15writeAttributesERK20QXmlStreamAttributes
libQtCore.so.4:_ZN16QXmlStreamWriter15writeCharactersERK7QString
libQtCore.so.4:_ZN16QXmlStreamWriter15writeEndElementEv
libQtCore.so.4:_ZN16QXmlStreamWriter16writeEndDocumentEv
libQtCore.so.4:_ZN16QXmlStreamWriter16writeTextElementERK7QStringS2_
libQtCore.so.4:_ZN16QXmlStreamWriter16writeTextElementERK7QStringS2_S2_
libQtCore.so.4:_ZN16QXmlStreamWriter17setAutoFormattingEb
libQtCore.so.4:_ZN16QXmlStreamWriter17writeCurrentTokenERK16QXmlStreamReader
libQtCore.so.4:_ZN16QXmlStreamWriter17writeEmptyElementERK7QString
libQtCore.so.4:_ZN16QXmlStreamWriter17writeEmptyElementERK7QStringS2_
libQtCore.so.4:_ZN16QXmlStreamWriter17writeStartElementERK7QString
libQtCore.so.4:_ZN16QXmlStreamWriter17writeStartElementERK7QStringS2_
libQtCore.so.4:_ZN16QXmlStreamWriter18writeStartDocumentERK7QString
libQtCore.so.4:_ZN16QXmlStreamWriter18writeStartDocumentERK7QStringb
libQtCore.so.4:_ZN16QXmlStreamWriter18writeStartDocumentEv
libQtCore.so.4:_ZN16QXmlStreamWriter20writeEntityReferenceERK7QString
libQtCore.so.4:_ZN16QXmlStreamWriter21writeDefaultNamespaceERK7QString
libQtCore.so.4:_ZN16QXmlStreamWriter23setAutoFormattingIndentEi
libQtCore.so.4:_ZN16QXmlStreamWriter26writeProcessingInstructionERK7QStringS2_
libQtCore.so.4:_ZN16QXmlStreamWriter8setCodecEP10QTextCodec
libQtCore.so.4:_ZN16QXmlStreamWriter8setCodecEPKc
libQtCore.so.4:_ZN16QXmlStreamWriter8writeDTDERK7QString
libQtCore.so.4:_ZN16QXmlStreamWriter9setDeviceEP9QIODevice
libQtCore.so.4:_ZN16QXmlStreamWriterC1EP10QByteArray
libQtCore.so.4:_ZN16QXmlStreamWriterC1EP7QString
libQtCore.so.4:_ZN16QXmlStreamWriterC1EP9QIODevice
libQtCore.so.4:_ZN16QXmlStreamWriterC1Ev
libQtCore.so.4:_ZN16QXmlStreamWriterC2EP10QByteArray
libQtCore.so.4:_ZN16QXmlStreamWriterC2EP7QString
libQtCore.so.4:_ZN16QXmlStreamWriterC2EP9QIODevice
libQtCore.so.4:_ZN16QXmlStreamWriterC2Ev
libQtCore.so.4:_ZN16QXmlStreamWriterD1Ev
libQtCore.so.4:_ZN16QXmlStreamWriterD2Ev
libQtCore.so.4:_ZN17QByteArrayMatcher10setPatternERK10QByteArray
libQtCore.so.4:_ZN17QByteArrayMatcherC1EPKci
libQtCore.so.4:_ZN17QByteArrayMatcherC1ERK10QByteArray
libQtCore.so.4:_ZN17QByteArrayMatcherC1ERKS_
libQtCore.so.4:_ZN17QByteArrayMatcherC1Ev
libQtCore.so.4:_ZN17QByteArrayMatcherC2EPKci
libQtCore.so.4:_ZN17QByteArrayMatcherC2ERK10QByteArray
libQtCore.so.4:_ZN17QByteArrayMatcherC2ERKS_
libQtCore.so.4:_ZN17QByteArrayMatcherC2Ev
libQtCore.so.4:_ZN17QByteArrayMatcherD1Ev
libQtCore.so.4:_ZN17QByteArrayMatcherD2Ev
libQtCore.so.4:_ZN17QByteArrayMatcheraSERKS_
libQtCore.so.4:_ZN17QSignalTransition11qt_metacallEN11QMetaObject4CallEiPPv
libQtCore.so.4:_ZN17QSignalTransition11qt_metacastEPKc
libQtCore.so.4:_ZN17QSignalTransition12onTransitionEP6QEvent
libQtCore.so.4:_ZN17QSignalTransition15setSenderObjectEP7QObject
libQtCore.so.4:_ZN17QSignalTransition5eventEP6QEvent
libQtCore.so.4:_ZN17QSignalTransition9eventTestEP6QEvent
libQtCore.so.4:_ZN17QSignalTransition9setSignalERK10QByteArray
libQtCore.so.4:_ZN17QSignalTransitionC1EP6QState
libQtCore.so.4:_ZN17QSignalTransitionC1EP7QObjectPKcP6QState
libQtCore.so.4:_ZN17QSignalTransitionC2EP6QState
libQtCore.so.4:_ZN17QSignalTransitionC2EP7QObjectPKcP6QState
libQtCore.so.4:_ZN17QSignalTransitionD0Ev
libQtCore.so.4:_ZN17QSignalTransitionD1Ev
libQtCore.so.4:_ZN17QSignalTransitionD2Ev
libQtCore.so.4:_ZN17QVariantAnimation11qt_metacallEN11QMetaObject4CallEiPPv
libQtCore.so.4:_ZN17QVariantAnimation11qt_metacastEPKc
libQtCore.so.4:_ZN17QVariantAnimation11setDurationEi
libQtCore.so.4:_ZN17QVariantAnimation11setEndValueERK8QVariant
libQtCore.so.4:_ZN17QVariantAnimation11updateStateEN18QAbstractAnimation5StateES1_
libQtCore.so.4:_ZN17QVariantAnimation12setKeyValuesERK7QVectorI5QPairId8QVariantEE
libQtCore.so.4:_ZN17QVariantAnimation12valueChangedERK8QVariant
libQtCore.so.4:_ZN17QVariantAnimation13setKeyValueAtEdRK8QVariant
libQtCore.so.4:_ZN17QVariantAnimation13setStartValueERK8QVariant
libQtCore.so.4:_ZN17QVariantAnimation14setEasingCurveERK12QEasingCurve
libQtCore.so.4:_ZN17QVariantAnimation17updateCurrentTimeEi
libQtCore.so.4:_ZN17QVariantAnimation20registerInterpolatorEPF8QVariantPKvS2_dEi
libQtCore.so.4:_ZN17QVariantAnimation5eventEP6QEvent
libQtCore.so.4:_ZN17QVariantAnimationC1EP7QObject
libQtCore.so.4:_ZN17QVariantAnimationC1ER24QVariantAnimationPrivateP7QObject
libQtCore.so.4:_ZN17QVariantAnimationC2EP7QObject
libQtCore.so.4:_ZN17QVariantAnimationC2ER24QVariantAnimationPrivateP7QObject
libQtCore.so.4:_ZN17QVariantAnimationD0Ev
libQtCore.so.4:_ZN17QVariantAnimationD1Ev
libQtCore.so.4:_ZN17QVariantAnimationD2Ev
libQtCore.so.4:_ZN18QAbstractAnimation11qt_metacallEN11QMetaObject4CallEiPPv
libQtCore.so.4:_ZN18QAbstractAnimation11qt_metacastEPKc
libQtCore.so.4:_ZN18QAbstractAnimation11updateStateENS_5StateES0_
libQtCore.so.4:_ZN18QAbstractAnimation12setDirectionENS_9DirectionE
libQtCore.so.4:_ZN18QAbstractAnimation12setLoopCountEi
libQtCore.so.4:_ZN18QAbstractAnimation12stateChangedENS_5StateES0_
libQtCore.so.4:_ZN18QAbstractAnimation14setCurrentTimeEi
libQtCore.so.4:_ZN18QAbstractAnimation15updateDirectionENS_9DirectionE
libQtCore.so.4:_ZN18QAbstractAnimation16directionChangedENS_9DirectionE
libQtCore.so.4:_ZN18QAbstractAnimation18currentLoopChangedEi
libQtCore.so.4:_ZN18QAbstractAnimation4stopEv
libQtCore.so.4:_ZN18QAbstractAnimation5eventEP6QEvent
libQtCore.so.4:_ZN18QAbstractAnimation5pauseEv
libQtCore.so.4:_ZN18QAbstractAnimation5startENS_14DeletionPolicyE
libQtCore.so.4:_ZN18QAbstractAnimation6resumeEv
libQtCore.so.4:_ZN18QAbstractAnimation8finishedEv
libQtCore.so.4:_ZN18QAbstractAnimation9setPausedEb
libQtCore.so.4:_ZN18QAbstractAnimationC1EP7QObject
libQtCore.so.4:_ZN18QAbstractAnimationC1ER25QAbstractAnimationPrivateP7QObject
libQtCore.so.4:_ZN18QAbstractAnimationC2EP7QObject
libQtCore.so.4:_ZN18QAbstractAnimationC2ER25QAbstractAnimationPrivateP7QObject
libQtCore.so.4:_ZN18QAbstractAnimationD0Ev
libQtCore.so.4:_ZN18QAbstractAnimationD1Ev
libQtCore.so.4:_ZN18QAbstractAnimationD2Ev
libQtCore.so.4:_ZN18QAbstractItemModel10decodeDataEiiRK11QModelIndexR11QDataStream
libQtCore.so.4:_ZN18QAbstractItemModel10insertRowsEiiRK11QModelIndex
libQtCore.so.4:_ZN18QAbstractItemModel10modelResetEv
libQtCore.so.4:_ZN18QAbstractItemModel10removeRowsEiiRK11QModelIndex
libQtCore.so.4:_ZN18QAbstractItemModel11dataChangedERK11QModelIndexS2_
libQtCore.so.4:_ZN18QAbstractItemModel11endMoveRowsEv
libQtCore.so.4:_ZN18QAbstractItemModel11qt_metacallEN11QMetaObject4CallEiPPv
libQtCore.so.4:_ZN18QAbstractItemModel11qt_metacastEPKc
libQtCore.so.4:_ZN18QAbstractItemModel11rowsRemovedERK11QModelIndexii
libQtCore.so.4:_ZN18QAbstractItemModel11setItemDataERK11QModelIndexRK4QMapIi8QVariantE
libQtCore.so.4:_ZN18QAbstractItemModel12columnsMovedERK11QModelIndexiiS2_i
libQtCore.so.4:_ZN18QAbstractItemModel12dropMimeDataEPK9QMimeDataN2Qt10DropActionEiiRK11QModelIndex
libQtCore.so.4:_ZN18QAbstractItemModel12rowsInsertedERK11QModelIndexii
libQtCore.so.4:_ZN18QAbstractItemModel12setRoleNamesERK5QHashIi10QByteArrayE
libQtCore.so.4:_ZN18QAbstractItemModel13beginMoveRowsERK11QModelIndexiiS2_i
libQtCore.so.4:_ZN18QAbstractItemModel13endInsertRowsEv
libQtCore.so.4:_ZN18QAbstractItemModel13endRemoveRowsEv
libQtCore.so.4:_ZN18QAbstractItemModel13endResetModelEv
libQtCore.so.4:_ZN18QAbstractItemModel13insertColumnsEiiRK11QModelIndex
libQtCore.so.4:_ZN18QAbstractItemModel13layoutChangedEv
libQtCore.so.4:_ZN18QAbstractItemModel13removeColumnsEiiRK11QModelIndex
libQtCore.so.4:_ZN18QAbstractItemModel13setHeaderDataEiN2Qt11OrientationERK8QVarianti
libQtCore.so.4:_ZN18QAbstractItemModel14columnsRemovedERK11QModelIndexii
libQtCore.so.4:_ZN18QAbstractItemModel14endMoveColumnsEv
libQtCore.so.4:_ZN18QAbstractItemModel15beginInsertRowsERK11QModelIndexii
libQtCore.so.4:_ZN18QAbstractItemModel15beginRemoveRowsERK11QModelIndexii
libQtCore.so.4:_ZN18QAbstractItemModel15beginResetModelEv
libQtCore.so.4:_ZN18QAbstractItemModel15columnsInsertedERK11QModelIndexii
libQtCore.so.4:_ZN18QAbstractItemModel16beginMoveColumnsERK11QModelIndexiiS2_i
libQtCore.so.4:_ZN18QAbstractItemModel16endInsertColumnsEv
libQtCore.so.4:_ZN18QAbstractItemModel16endRemoveColumnsEv
libQtCore.so.4:_ZN18QAbstractItemModel17headerDataChangedEN2Qt11OrientationEii
libQtCore.so.4:_ZN18QAbstractItemModel17resetInternalDataEv
libQtCore.so.4:_ZN18QAbstractItemModel18beginInsertColumnsERK11QModelIndexii
libQtCore.so.4:_ZN18QAbstractItemModel18beginRemoveColumnsERK11QModelIndexii
libQtCore.so.4:_ZN18QAbstractItemModel18rowsAboutToBeMovedERK11QModelIndexiiS2_i
libQtCore.so.4:_ZN18QAbstractItemModel19modelAboutToBeResetEv
libQtCore.so.4:_ZN18QAbstractItemModel20rowsAboutToBeRemovedERK11QModelIndexii
libQtCore.so.4:_ZN18QAbstractItemModel21changePersistentIndexERK11QModelIndexS2_
libQtCore.so.4:_ZN18QAbstractItemModel21columnsAboutToBeMovedERK11QModelIndexiiS2_i
libQtCore.so.4:_ZN18QAbstractItemModel21rowsAboutToBeInsertedERK11QModelIndexii
libQtCore.so.4:_ZN18QAbstractItemModel22layoutAboutToBeChangedEv
libQtCore.so.4:_ZN18QAbstractItemModel23columnsAboutToBeRemovedERK11QModelIndexii
libQtCore.so.4:_ZN18QAbstractItemModel23setSupportedDragActionsE6QFlagsIN2Qt10DropActionEE
libQtCore.so.4:_ZN18QAbstractItemModel24columnsAboutToBeInsertedERK11QModelIndexii
libQtCore.so.4:_ZN18QAbstractItemModel25changePersistentIndexListERK5QListI11QModelIndexES4_
libQtCore.so.4:_ZN18QAbstractItemModel4sortEiN2Qt9SortOrderE
libQtCore.so.4:_ZN18QAbstractItemModel5resetEv
libQtCore.so.4:_ZN18QAbstractItemModel6revertEv
libQtCore.so.4:_ZN18QAbstractItemModel6submitEv
libQtCore.so.4:_ZN18QAbstractItemModel7setDataERK11QModelIndexRK8QVarianti
libQtCore.so.4:_ZN18QAbstractItemModel9fetchMoreERK11QModelIndex
libQtCore.so.4:_ZN18QAbstractItemModel9rowsMovedERK11QModelIndexiiS2_i
libQtCore.so.4:_ZN18QAbstractItemModelC1EP7QObject
libQtCore.so.4:_ZN18QAbstractItemModelC1ER25QAbstractItemModelPrivateP7QObject
libQtCore.so.4:_ZN18QAbstractItemModelC2EP7QObject
libQtCore.so.4:_ZN18QAbstractItemModelC2ER25QAbstractItemModelPrivateP7QObject
libQtCore.so.4:_ZN18QAbstractItemModelD0Ev
libQtCore.so.4:_ZN18QAbstractItemModelD1Ev
libQtCore.so.4:_ZN18QAbstractItemModelD2Ev
libQtCore.so.4:_ZN18QAbstractListModel11qt_metacallEN11QMetaObject4CallEiPPv
libQtCore.so.4:_ZN18QAbstractListModel11qt_metacastEPKc
libQtCore.so.4:_ZN18QAbstractListModel12dropMimeDataEPK9QMimeDataN2Qt10DropActionEiiRK11QModelIndex
libQtCore.so.4:_ZN18QAbstractListModelC1EP7QObject
libQtCore.so.4:_ZN18QAbstractListModelC1ER25QAbstractItemModelPrivateP7QObject
libQtCore.so.4:_ZN18QAbstractListModelC2EP7QObject
libQtCore.so.4:_ZN18QAbstractListModelC2ER25QAbstractItemModelPrivateP7QObject
libQtCore.so.4:_ZN18QAbstractListModelD0Ev
libQtCore.so.4:_ZN18QAbstractListModelD1Ev
libQtCore.so.4:_ZN18QAbstractListModelD2Ev
libQtCore.so.4:_ZN18QCryptographicHash4hashERK10QByteArrayNS_9AlgorithmE
libQtCore.so.4:_ZN18QCryptographicHash5resetEv
libQtCore.so.4:_ZN18QCryptographicHash7addDataEPKci
libQtCore.so.4:_ZN18QCryptographicHash7addDataERK10QByteArray
libQtCore.so.4:_ZN18QCryptographicHashC1ENS_9AlgorithmE
libQtCore.so.4:_ZN18QCryptographicHashC2ENS_9AlgorithmE
libQtCore.so.4:_ZN18QCryptographicHashD1Ev
libQtCore.so.4:_ZN18QCryptographicHashD2Ev
libQtCore.so.4:_ZN18QFileSystemWatcher10removePathERK7QString
libQtCore.so.4:_ZN18QFileSystemWatcher11fileChangedERK7QString
libQtCore.so.4:_ZN18QFileSystemWatcher11qt_metacallEN11QMetaObject4CallEiPPv
libQtCore.so.4:_ZN18QFileSystemWatcher11qt_metacastEPKc
libQtCore.so.4:_ZN18QFileSystemWatcher11removePathsERK11QStringList
libQtCore.so.4:_ZN18QFileSystemWatcher16directoryChangedERK7QString
libQtCore.so.4:_ZN18QFileSystemWatcher7addPathERK7QString
libQtCore.so.4:_ZN18QFileSystemWatcher8addPathsERK11QStringList
libQtCore.so.4:_ZN18QFileSystemWatcherC1EP7QObject
libQtCore.so.4:_ZN18QFileSystemWatcherC1ERK11QStringListP7QObject
libQtCore.so.4:_ZN18QFileSystemWatcherC2EP7QObject
libQtCore.so.4:_ZN18QFileSystemWatcherC2ERK11QStringListP7QObject
libQtCore.so.4:_ZN18QFileSystemWatcherD0Ev
libQtCore.so.4:_ZN18QFileSystemWatcherD1Ev
libQtCore.so.4:_ZN18QFileSystemWatcherD2Ev
libQtCore.so.4:_ZN18QFutureWatcherBase11qt_metacallEN11QMetaObject4CallEiPPv
libQtCore.so.4:_ZN18QFutureWatcherBase11qt_metacastEPKc
libQtCore.so.4:_ZN18QFutureWatcherBase12togglePausedEv
libQtCore.so.4:_ZN18QFutureWatcherBase13connectNotifyEPKc
libQtCore.so.4:_ZN18QFutureWatcherBase13resultReadyAtEi
libQtCore.so.4:_ZN18QFutureWatcherBase14resultsReadyAtEii
libQtCore.so.4:_ZN18QFutureWatcherBase15waitForFinishedEv
libQtCore.so.4:_ZN18QFutureWatcherBase16disconnectNotifyEPKc
libQtCore.so.4:_ZN18QFutureWatcherBase19progressTextChangedERK7QString
libQtCore.so.4:_ZN18QFutureWatcherBase20progressRangeChangedEii
libQtCore.so.4:_ZN18QFutureWatcherBase20progressValueChangedEi
libQtCore.so.4:_ZN18QFutureWatcherBase22connectOutputInterfaceEv
libQtCore.so.4:_ZN18QFutureWatcherBase22setPendingResultsLimitEi
libQtCore.so.4:_ZN18QFutureWatcherBase25disconnectOutputInterfaceEb
libQtCore.so.4:_ZN18QFutureWatcherBase5eventEP6QEvent
libQtCore.so.4:_ZN18QFutureWatcherBase5pauseEv
libQtCore.so.4:_ZN18QFutureWatcherBase6cancelEv
libQtCore.so.4:_ZN18QFutureWatcherBase6pausedEv
libQtCore.so.4:_ZN18QFutureWatcherBase6resumeEv
libQtCore.so.4:_ZN18QFutureWatcherBase7resumedEv
libQtCore.so.4:_ZN18QFutureWatcherBase7startedEv
libQtCore.so.4:_ZN18QFutureWatcherBase8canceledEv
libQtCore.so.4:_ZN18QFutureWatcherBase8finishedEv
libQtCore.so.4:_ZN18QFutureWatcherBase9setPausedEb
libQtCore.so.4:_ZN18QFutureWatcherBaseC1EP7QObject
libQtCore.so.4:_ZN18QFutureWatcherBaseC2EP7QObject
libQtCore.so.4:_ZN18QPropertyAnimation11qt_metacallEN11QMetaObject4CallEiPPv
libQtCore.so.4:_ZN18QPropertyAnimation11qt_metacastEPKc
libQtCore.so.4:_ZN18QPropertyAnimation11updateStateEN18QAbstractAnimation5StateES1_
libQtCore.so.4:_ZN18QPropertyAnimation15setPropertyNameERK10QByteArray
libQtCore.so.4:_ZN18QPropertyAnimation15setTargetObjectEP7QObject
libQtCore.so.4:_ZN18QPropertyAnimation18updateCurrentValueERK8QVariant
libQtCore.so.4:_ZN18QPropertyAnimation5eventEP6QEvent
libQtCore.so.4:_ZN18QPropertyAnimationC1EP7QObject
libQtCore.so.4:_ZN18QPropertyAnimationC1EP7QObjectRK10QByteArrayS1_
libQtCore.so.4:_ZN18QPropertyAnimationC2EP7QObject
libQtCore.so.4:_ZN18QPropertyAnimationC2EP7QObjectRK10QByteArrayS1_
libQtCore.so.4:_ZN18QPropertyAnimationD0Ev
libQtCore.so.4:_ZN18QPropertyAnimationD1Ev
libQtCore.so.4:_ZN18QPropertyAnimationD2Ev
libQtCore.so.4:_ZN18QThreadStorageData3setEPv
libQtCore.so.4:_ZN18QThreadStorageData6finishEPPv
libQtCore.so.4:_ZN18QThreadStorageDataC1EPFvPvE
libQtCore.so.4:_ZN18QThreadStorageDataC2EPFvPvE
libQtCore.so.4:_ZN18QThreadStorageDataD1Ev
libQtCore.so.4:_ZN18QThreadStorageDataD2Ev
libQtCore.so.4:_ZN19QAbstractFileEngine11setFileNameERK7QString
libQtCore.so.4:_ZN19QAbstractFileEngine12endEntryListEv
libQtCore.so.4:_ZN19QAbstractFileEngine14beginEntryListE6QFlagsIN4QDir6FilterEERK11QStringList
libQtCore.so.4:_ZN19QAbstractFileEngine14setPermissionsEj
libQtCore.so.4:_ZN19QAbstractFileEngine3mapExxN5QFile14MemoryMapFlagsE
libQtCore.so.4:_ZN19QAbstractFileEngine4copyERK7QString
libQtCore.so.4:_ZN19QAbstractFileEngine4linkERK7QString
libQtCore.so.4:_ZN19QAbstractFileEngine4openE6QFlagsIN9QIODevice12OpenModeFlagEE
libQtCore.so.4:_ZN19QAbstractFileEngine4readEPcx
libQtCore.so.4:_ZN19QAbstractFileEngine4seekEx
libQtCore.so.4:_ZN19QAbstractFileEngine5closeEv
libQtCore.so.4:_ZN19QAbstractFileEngine5flushEv
libQtCore.so.4:_ZN19QAbstractFileEngine5unmapEPh
libQtCore.so.4:_ZN19QAbstractFileEngine5writeEPKcx
libQtCore.so.4:_ZN19QAbstractFileEngine6createERK7QString
libQtCore.so.4:_ZN19QAbstractFileEngine6removeEv
libQtCore.so.4:_ZN19QAbstractFileEngine6renameERK7QString
libQtCore.so.4:_ZN19QAbstractFileEngine7setSizeEx
libQtCore.so.4:_ZN19QAbstractFileEngine8readLineEPcx
libQtCore.so.4:_ZN19QAbstractFileEngine8setErrorEN5QFile9FileErrorERK7QString
libQtCore.so.4:_ZN19QAbstractFileEngine9extensionENS_9ExtensionEPKNS_15ExtensionOptionEPNS_15ExtensionReturnE
libQtCore.so.4:_ZN19QAbstractFileEngineC1ER26QAbstractFileEnginePrivate
libQtCore.so.4:_ZN19QAbstractFileEngineC1Ev
libQtCore.so.4:_ZN19QAbstractFileEngineC2ER26QAbstractFileEnginePrivate
libQtCore.so.4:_ZN19QAbstractFileEngineC2Ev
libQtCore.so.4:_ZN19QAbstractFileEngineD0Ev
libQtCore.so.4:_ZN19QAbstractFileEngineD1Ev
libQtCore.so.4:_ZN19QAbstractFileEngineD2Ev
libQtCore.so.4:_ZN19QAbstractTableModel11qt_metacallEN11QMetaObject4CallEiPPv
libQtCore.so.4:_ZN19QAbstractTableModel11qt_metacastEPKc
libQtCore.so.4:_ZN19QAbstractTableModel12dropMimeDataEPK9QMimeDataN2Qt10DropActionEiiRK11QModelIndex
libQtCore.so.4:_ZN19QAbstractTableModelC1EP7QObject
libQtCore.so.4:_ZN19QAbstractTableModelC1ER25QAbstractItemModelPrivateP7QObject
libQtCore.so.4:_ZN19QAbstractTableModelC2EP7QObject
libQtCore.so.4:_ZN19QAbstractTableModelC2ER25QAbstractItemModelPrivateP7QObject
libQtCore.so.4:_ZN19QAbstractTableModelD0Ev
libQtCore.so.4:_ZN19QAbstractTableModelD1Ev
libQtCore.so.4:_ZN19QAbstractTableModelD2Ev
libQtCore.so.4:_ZN19QAbstractTransition11qt_metacallEN11QMetaObject4CallEiPPv
libQtCore.so.4:_ZN19QAbstractTransition11qt_metacastEPKc
libQtCore.so.4:_ZN19QAbstractTransition12addAnimationEP18QAbstractAnimation
libQtCore.so.4:_ZN19QAbstractTransition14setTargetStateEP14QAbstractState
libQtCore.so.4:_ZN19QAbstractTransition15removeAnimationEP18QAbstractAnimation
libQtCore.so.4:_ZN19QAbstractTransition15setTargetStatesERK5QListIP14QAbstractStateE
libQtCore.so.4:_ZN19QAbstractTransition5eventEP6QEvent
libQtCore.so.4:_ZN19QAbstractTransition9triggeredEv
libQtCore.so.4:_ZN19QAbstractTransitionC1EP6QState
libQtCore.so.4:_ZN19QAbstractTransitionC1ER26QAbstractTransitionPrivateP6QState
libQtCore.so.4:_ZN19QAbstractTransitionC2EP6QState
libQtCore.so.4:_ZN19QAbstractTransitionC2ER26QAbstractTransitionPrivateP6QState
libQtCore.so.4:_ZN19QAbstractTransitionD0Ev
libQtCore.so.4:_ZN19QAbstractTransitionD1Ev
libQtCore.so.4:_ZN19QAbstractTransitionD2Ev
libQtCore.so.4:_ZN19QProcessEnvironment17systemEnvironmentEv
libQtCore.so.4:_ZN19QProcessEnvironment5clearEv
libQtCore.so.4:_ZN19QProcessEnvironment6insertERK7QStringS2_
libQtCore.so.4:_ZN19QProcessEnvironment6insertERKS_
libQtCore.so.4:_ZN19QProcessEnvironment6removeERK7QString
libQtCore.so.4:_ZN19QProcessEnvironmentC1ERKS_
libQtCore.so.4:_ZN19QProcessEnvironmentC1Ev
libQtCore.so.4:_ZN19QProcessEnvironmentC2ERKS_
libQtCore.so.4:_ZN19QProcessEnvironmentC2Ev
libQtCore.so.4:_ZN19QProcessEnvironmentD1Ev
libQtCore.so.4:_ZN19QProcessEnvironmentD2Ev
libQtCore.so.4:_ZN19QProcessEnvironmentaSERKS_
libQtCore.so.4:_ZN19QTextBoundaryFinder11setPositionEi
libQtCore.so.4:_ZN19QTextBoundaryFinder14toNextBoundaryEv
libQtCore.so.4:_ZN19QTextBoundaryFinder18toPreviousBoundaryEv
libQtCore.so.4:_ZN19QTextBoundaryFinder5toEndEv
libQtCore.so.4:_ZN19QTextBoundaryFinder7toStartEv
libQtCore.so.4:_ZN19QTextBoundaryFinderC1ENS_12BoundaryTypeEPK5QChariPhi
libQtCore.so.4:_ZN19QTextBoundaryFinderC1ENS_12BoundaryTypeERK7QString
libQtCore.so.4:_ZN19QTextBoundaryFinderC1ERKS_
libQtCore.so.4:_ZN19QTextBoundaryFinderC1Ev
libQtCore.so.4:_ZN19QTextBoundaryFinderC2ENS_12BoundaryTypeEPK5QChariPhi
libQtCore.so.4:_ZN19QTextBoundaryFinderC2ENS_12BoundaryTypeERK7QString
libQtCore.so.4:_ZN19QTextBoundaryFinderC2ERKS_
libQtCore.so.4:_ZN19QTextBoundaryFinderC2Ev
libQtCore.so.4:_ZN19QTextBoundaryFinderD1Ev
libQtCore.so.4:_ZN19QTextBoundaryFinderD2Ev
libQtCore.so.4:_ZN19QTextBoundaryFinderaSERKS_
libQtCore.so.4:_ZN19QXmlStreamAttributeC1ERK7QStringS2_
libQtCore.so.4:_ZN19QXmlStreamAttributeC1ERK7QStringS2_S2_
libQtCore.so.4:_ZN19QXmlStreamAttributeC1ERKS_
libQtCore.so.4:_ZN19QXmlStreamAttributeC1Ev
libQtCore.so.4:_ZN19QXmlStreamAttributeC2ERK7QStringS2_
libQtCore.so.4:_ZN19QXmlStreamAttributeC2ERK7QStringS2_S2_
libQtCore.so.4:_ZN19QXmlStreamAttributeC2ERKS_
libQtCore.so.4:_ZN19QXmlStreamAttributeC2Ev
libQtCore.so.4:_ZN19QXmlStreamAttributeD1Ev
libQtCore.so.4:_ZN19QXmlStreamAttributeD2Ev
libQtCore.so.4:_ZN19QXmlStreamAttributeaSERKS_
libQtCore.so.4:_ZN20QContiguousCacheData4freeEPS_
libQtCore.so.4:_ZN20QContiguousCacheData8allocateEii
libQtCore.so.4:_ZN20QEventDispatcherGlib11qt_metacallEN11QMetaObject4CallEiPPv
libQtCore.so.4:_ZN20QEventDispatcherGlib11qt_metacastEPKc
libQtCore.so.4:_ZN20QEventDispatcherGlib13processEventsE6QFlagsIN10QEventLoop17ProcessEventsFlagEE
libQtCore.so.4:_ZN20QEventDispatcherGlib13registerTimerEiiP7QObject
libQtCore.so.4:_ZN20QEventDispatcherGlib15unregisterTimerEi
libQtCore.so.4:_ZN20QEventDispatcherGlib16hasPendingEventsEv
libQtCore.so.4:_ZN20QEventDispatcherGlib16unregisterTimersEP7QObject
libQtCore.so.4:_ZN20QEventDispatcherGlib16versionSupportedEv
libQtCore.so.4:_ZN20QEventDispatcherGlib22registerSocketNotifierEP15QSocketNotifier
libQtCore.so.4:_ZN20QEventDispatcherGlib24unregisterSocketNotifierEP15QSocketNotifier
libQtCore.so.4:_ZN20QEventDispatcherGlib5flushEv
libQtCore.so.4:_ZN20QEventDispatcherGlib6wakeUpEv
libQtCore.so.4:_ZN20QEventDispatcherGlib9interruptEv
libQtCore.so.4:_ZN20QEventDispatcherGlibC1EP13_GMainContextP7QObject
libQtCore.so.4:_ZN20QEventDispatcherGlibC1EP7QObject
libQtCore.so.4:_ZN20QEventDispatcherGlibC1ER27QEventDispatcherGlibPrivateP7QObject
libQtCore.so.4:_ZN20QEventDispatcherGlibC2EP13_GMainContextP7QObject
libQtCore.so.4:_ZN20QEventDispatcherGlibC2EP7QObject
libQtCore.so.4:_ZN20QEventDispatcherGlibC2ER27QEventDispatcherGlibPrivateP7QObject
libQtCore.so.4:_ZN20QEventDispatcherGlibD0Ev
libQtCore.so.4:_ZN20QEventDispatcherGlibD1Ev
libQtCore.so.4:_ZN20QEventDispatcherGlibD2Ev
libQtCore.so.4:_ZN20QEventDispatcherUNIX11qt_metacallEN11QMetaObject4CallEiPPv
libQtCore.so.4:_ZN20QEventDispatcherUNIX11qt_metacastEPKc
libQtCore.so.4:_ZN20QEventDispatcherUNIX13processEventsE6QFlagsIN10QEventLoop17ProcessEventsFlagEE
libQtCore.so.4:_ZN20QEventDispatcherUNIX13registerTimerEiiP7QObject
libQtCore.so.4:_ZN20QEventDispatcherUNIX14activateTimersEv
libQtCore.so.4:_ZN20QEventDispatcherUNIX15unregisterTimerEi
libQtCore.so.4:_ZN20QEventDispatcherUNIX16hasPendingEventsEv
libQtCore.so.4:_ZN20QEventDispatcherUNIX16unregisterTimersEP7QObject
libQtCore.so.4:_ZN20QEventDispatcherUNIX22registerSocketNotifierEP15QSocketNotifier
libQtCore.so.4:_ZN20QEventDispatcherUNIX23activateSocketNotifiersEv
libQtCore.so.4:_ZN20QEventDispatcherUNIX24setSocketNotifierPendingEP15QSocketNotifier
libQtCore.so.4:_ZN20QEventDispatcherUNIX24unregisterSocketNotifierEP15QSocketNotifier
libQtCore.so.4:_ZN20QEventDispatcherUNIX5flushEv
libQtCore.so.4:_ZN20QEventDispatcherUNIX6selectEiP6fd_setS1_S1_P7timeval
libQtCore.so.4:_ZN20QEventDispatcherUNIX6wakeUpEv
libQtCore.so.4:_ZN20QEventDispatcherUNIX9interruptEv
libQtCore.so.4:_ZN20QEventDispatcherUNIXC1EP7QObject
libQtCore.so.4:_ZN20QEventDispatcherUNIXC1ER27QEventDispatcherUNIXPrivateP7QObject
libQtCore.so.4:_ZN20QEventDispatcherUNIXC2EP7QObject
libQtCore.so.4:_ZN20QEventDispatcherUNIXC2ER27QEventDispatcherUNIXPrivateP7QObject
libQtCore.so.4:_ZN20QEventDispatcherUNIXD0Ev
libQtCore.so.4:_ZN20QEventDispatcherUNIXD1Ev
libQtCore.so.4:_ZN20QEventDispatcherUNIXD2Ev
libQtCore.so.4:_ZN20QFutureInterfaceBase11setRunnableEP9QRunnable
libQtCore.so.4:_ZN20QFutureInterfaceBase12setThrottledEb
libQtCore.so.4:_ZN20QFutureInterfaceBase12togglePausedEv
libQtCore.so.4:_ZN20QFutureInterfaceBase13reportStartedEv
libQtCore.so.4:_ZN20QFutureInterfaceBase13setFilterModeEb
libQtCore.so.4:_ZN20QFutureInterfaceBase13waitForResultEi
libQtCore.so.4:_ZN20QFutureInterfaceBase13waitForResumeEv
libQtCore.so.4:_ZN20QFutureInterfaceBase14exceptionStoreEv
libQtCore.so.4:_ZN20QFutureInterfaceBase14reportCanceledEv
libQtCore.so.4:_ZN20QFutureInterfaceBase14reportFinishedEv
libQtCore.so.4:_ZN20QFutureInterfaceBase15reportExceptionERKN12QtConcurrent9ExceptionE
libQtCore.so.4:_ZN20QFutureInterfaceBase15resultStoreBaseEv
libQtCore.so.4:_ZN20QFutureInterfaceBase15waitForFinishedEv
libQtCore.so.4:_ZN20QFutureInterfaceBase16setProgressRangeEii
libQtCore.so.4:_ZN20QFutureInterfaceBase16setProgressValueEi
libQtCore.so.4:_ZN20QFutureInterfaceBase17waitForNextResultEv
libQtCore.so.4:_ZN20QFutureInterfaceBase18reportResultsReadyEii
libQtCore.so.4:_ZN20QFutureInterfaceBase19expectedResultCountEv
libQtCore.so.4:_ZN20QFutureInterfaceBase22setExpectedResultCountEi
libQtCore.so.4:_ZN20QFutureInterfaceBase23setProgressValueAndTextEiRK7QString
libQtCore.so.4:_ZN20QFutureInterfaceBase6cancelEv
libQtCore.so.4:_ZN20QFutureInterfaceBase9setPausedEb
libQtCore.so.4:_ZN20QFutureInterfaceBaseC1ENS_5StateE
libQtCore.so.4:_ZN20QFutureInterfaceBaseC1ERKS_
libQtCore.so.4:_ZN20QFutureInterfaceBaseC2ENS_5StateE
libQtCore.so.4:_ZN20QFutureInterfaceBaseC2ERKS_
libQtCore.so.4:_ZN20QFutureInterfaceBaseD0Ev
libQtCore.so.4:_ZN20QFutureInterfaceBaseD1Ev
libQtCore.so.4:_ZN20QFutureInterfaceBaseD2Ev
libQtCore.so.4:_ZN20QFutureInterfaceBaseaSERKS_
libQtCore.so.4:_ZN20QStateMachinePrivate10_q_processEv
libQtCore.so.4:_ZN20QStateMachinePrivate10exitStatesEP6QEventRK5QListIP19QAbstractTransitionE
libQtCore.so.4:_ZN20QStateMachinePrivate10isParallelEPK14QAbstractState
libQtCore.so.4:_ZN20QStateMachinePrivate10startStateEv
libQtCore.so.4:_ZN20QStateMachinePrivate11enterStatesEP6QEventRK5QListIP19QAbstractTransitionE
libQtCore.so.4:_ZN20QStateMachinePrivate12clearHistoryEv
libQtCore.so.4:_ZN20QStateMachinePrivate12toFinalStateEP14QAbstractState
libQtCore.so.4:_ZN20QStateMachinePrivate13processEventsENS_19EventProcessingModeE
libQtCore.so.4:_ZN20QStateMachinePrivate14findErrorStateEP14QAbstractState
libQtCore.so.4:_ZN20QStateMachinePrivate14isDescendantOfEPK14QAbstractStateS2_
libQtCore.so.4:_ZN20QStateMachinePrivate14toHistoryStateEP14QAbstractState
libQtCore.so.4:_ZN20QStateMachinePrivate15applyPropertiesERK5QListIP19QAbstractTransitionERKS0_IP14QAbstractStateESA_
libQtCore.so.4:_ZN20QStateMachinePrivate15properAncestorsEPK14QAbstractStatePK6QState
libQtCore.so.4:_ZN20QStateMachinePrivate15toStandardStateEP14QAbstractState
libQtCore.so.4:_ZN20QStateMachinePrivate15toStandardStateEPK14QAbstractState
libQtCore.so.4:_ZN20QStateMachinePrivate16addStatesToEnterEP14QAbstractStateP6QStateR4QSetIS1_ES6_
libQtCore.so.4:_ZN20QStateMachinePrivate16removeStartStateEv
libQtCore.so.4:_ZN20QStateMachinePrivate17postExternalEventEP6QEvent
libQtCore.so.4:_ZN20QStateMachinePrivate17postInternalEventEP6QEvent
libQtCore.so.4:_ZN20QStateMachinePrivate17stateExitLessThanEP14QAbstractStateS1_
libQtCore.so.4:_ZN20QStateMachinePrivate18registerRestorableEP7QObjectRK10QByteArray
libQtCore.so.4:_ZN20QStateMachinePrivate18stateEntryLessThanEP14QAbstractStateS1_
libQtCore.so.4:_ZN20QStateMachinePrivate19handleFilteredEventEP7QObjectP6QEvent
libQtCore.so.4:_ZN20QStateMachinePrivate19initializeAnimationEP18QAbstractAnimationRK19QPropertyAssignment
libQtCore.so.4:_ZN20QStateMachinePrivate19registerTransitionsEP14QAbstractState
libQtCore.so.4:_ZN20QStateMachinePrivate20_q_animationFinishedEv
libQtCore.so.4:_ZN20QStateMachinePrivate20dequeueExternalEventEv
libQtCore.so.4:_ZN20QStateMachinePrivate20dequeueInternalEventEv
libQtCore.so.4:_ZN20QStateMachinePrivate20unregisterRestorableEP7QObjectRK10QByteArray
libQtCore.so.4:_ZN20QStateMachinePrivate20unregisterTransitionEP19QAbstractTransition
libQtCore.so.4:_ZN20QStateMachinePrivate22cancelAllDelayedEventsEv
libQtCore.so.4:_ZN20QStateMachinePrivate22handleTransitionSignalEP7QObjectiPPv
libQtCore.so.4:_ZN20QStateMachinePrivate23registerEventTransitionEP16QEventTransition
libQtCore.so.4:_ZN20QStateMachinePrivate24executeTransitionContentEP6QEventRK5QListIP19QAbstractTransitionE
libQtCore.so.4:_ZN20QStateMachinePrivate24registerSignalTransitionEP17QSignalTransition
libQtCore.so.4:_ZN20QStateMachinePrivate24unregisterAllTransitionsEv
libQtCore.so.4:_ZN20QStateMachinePrivate25isExternalEventQueueEmptyEv
libQtCore.so.4:_ZN20QStateMachinePrivate25isInternalEventQueueEmptyEv
libQtCore.so.4:_ZN20QStateMachinePrivate25unregisterEventTransitionEP16QEventTransition
libQtCore.so.4:_ZN20QStateMachinePrivate26unregisterSignalTransitionEP17QSignalTransition
libQtCore.so.4:_ZN20QStateMachinePrivate3getEP13QStateMachine
libQtCore.so.4:_ZN20QStateMachinePrivate7isFinalEPK14QAbstractState
libQtCore.so.4:_ZN20QStateMachinePrivate8_q_startEv
libQtCore.so.4:_ZN20QStateMachinePrivate8setErrorEN13QStateMachine5ErrorEP14QAbstractState
libQtCore.so.4:_ZN20QStateMachinePrivate9goToStateEP14QAbstractState
libQtCore.so.4:_ZN20QStateMachinePrivate9microstepEP6QEventRK5QListIP19QAbstractTransitionE
libQtCore.so.4:_ZN20QStateMachinePrivateC1Ev
libQtCore.so.4:_ZN20QStateMachinePrivateC2Ev
libQtCore.so.4:_ZN20QStateMachinePrivateD0Ev
libQtCore.so.4:_ZN20QStateMachinePrivateD1Ev
libQtCore.so.4:_ZN20QStateMachinePrivateD2Ev
libQtCore.so.4:_ZN20QXmlStreamAttributes6appendERK7QStringS2_
libQtCore.so.4:_ZN20QXmlStreamAttributes6appendERK7QStringS2_S2_
libQtCore.so.4:_ZN21QAbstractConcatenable14convertToAsciiEPK5QChariRPc
libQtCore.so.4:_ZN21QAbstractConcatenable16convertFromAsciiEPKciRP5QChar
libQtCore.so.4:_ZN21QObjectCleanupHandler11qt_metacallEN11QMetaObject4CallEiPPv
libQtCore.so.4:_ZN21QObjectCleanupHandler11qt_metacastEPKc
libQtCore.so.4:_ZN21QObjectCleanupHandler15objectDestroyedEP7QObject
libQtCore.so.4:_ZN21QObjectCleanupHandler3addEP7QObject
libQtCore.so.4:_ZN21QObjectCleanupHandler5clearEv
libQtCore.so.4:_ZN21QObjectCleanupHandler6removeEP7QObject
libQtCore.so.4:_ZN21QObjectCleanupHandlerC1Ev
libQtCore.so.4:_ZN21QObjectCleanupHandlerC2Ev
libQtCore.so.4:_ZN21QObjectCleanupHandlerD0Ev
libQtCore.so.4:_ZN21QObjectCleanupHandlerD1Ev
libQtCore.so.4:_ZN21QObjectCleanupHandlerD2Ev
libQtCore.so.4:_ZN21QPersistentModelIndexC1ERK11QModelIndex
libQtCore.so.4:_ZN21QPersistentModelIndexC1ERKS_
libQtCore.so.4:_ZN21QPersistentModelIndexC1Ev
libQtCore.so.4:_ZN21QPersistentModelIndexC2ERK11QModelIndex
libQtCore.so.4:_ZN21QPersistentModelIndexC2ERKS_
libQtCore.so.4:_ZN21QPersistentModelIndexC2Ev
libQtCore.so.4:_ZN21QPersistentModelIndexD1Ev
libQtCore.so.4:_ZN21QPersistentModelIndexD2Ev
libQtCore.so.4:_ZN21QPersistentModelIndexaSERK11QModelIndex
libQtCore.so.4:_ZN21QPersistentModelIndexaSERKS_
libQtCore.so.4:_ZN23QCoreApplicationPrivate10mainThreadEv
libQtCore.so.4:_ZN23QCoreApplicationPrivate13checkInstanceEPKc
libQtCore.so.4:_ZN23QCoreApplicationPrivate13notify_helperEP7QObjectP6QEvent
libQtCore.so.4:_ZN23QCoreApplicationPrivate13trolltechConfEv
libQtCore.so.4:_ZN23QCoreApplicationPrivate16sendPostedEventsEP7QObjectiP11QThreadData
libQtCore.so.4:_ZN23QCoreApplicationPrivate17removePostedEventEP6QEvent
libQtCore.so.4:_ZN23QCoreApplicationPrivate19qmljsDebugArgumentsEv
libQtCore.so.4:_ZN23QCoreApplicationPrivate21createEventDispatcherEv
libQtCore.so.4:_ZN23QCoreApplicationPrivate21isTranslatorInstalledEP11QTranslator
libQtCore.so.4:_ZN23QCoreApplicationPrivate27processCommandLineArgumentsEv
libQtCore.so.4:_ZN23QCoreApplicationPrivate29sendThroughObjectEventFiltersEP7QObjectP6QEvent
libQtCore.so.4:_ZN23QCoreApplicationPrivate34sendThroughApplicationEventFiltersEP7QObjectP6QEvent
libQtCore.so.4:_ZN23QCoreApplicationPrivate35appendApplicationPathToLibraryPathsEv
libQtCore.so.4:_ZN23QCoreApplicationPrivateC1ERiPPcj
libQtCore.so.4:_ZN23QCoreApplicationPrivateC2ERiPPcj
libQtCore.so.4:_ZN23QCoreApplicationPrivateD0Ev
libQtCore.so.4:_ZN23QCoreApplicationPrivateD1Ev
libQtCore.so.4:_ZN23QCoreApplicationPrivateD2Ev
libQtCore.so.4:_ZN23QEventTransitionPrivate10unregisterEv
libQtCore.so.4:_ZN23QEventTransitionPrivate13maybeRegisterEv
libQtCore.so.4:_ZN23QEventTransitionPrivate3getEP16QEventTransition
libQtCore.so.4:_ZN23QEventTransitionPrivateC1Ev
libQtCore.so.4:_ZN23QEventTransitionPrivateC2Ev
libQtCore.so.4:_ZN23QParallelAnimationGroup11qt_metacallEN11QMetaObject4CallEiPPv
libQtCore.so.4:_ZN23QParallelAnimationGroup11qt_metacastEPKc
libQtCore.so.4:_ZN23QParallelAnimationGroup11updateStateEN18QAbstractAnimation5StateES1_
libQtCore.so.4:_ZN23QParallelAnimationGroup15updateDirectionEN18QAbstractAnimation9DirectionE
libQtCore.so.4:_ZN23QParallelAnimationGroup17updateCurrentTimeEi
libQtCore.so.4:_ZN23QParallelAnimationGroup5eventEP6QEvent
libQtCore.so.4:_ZN23QParallelAnimationGroupC1EP7QObject
libQtCore.so.4:_ZN23QParallelAnimationGroupC1ER30QParallelAnimationGroupPrivateP7QObject
libQtCore.so.4:_ZN23QParallelAnimationGroupC2EP7QObject
libQtCore.so.4:_ZN23QParallelAnimationGroupC2ER30QParallelAnimationGroupPrivateP7QObject
libQtCore.so.4:_ZN23QParallelAnimationGroupD0Ev
libQtCore.so.4:_ZN23QParallelAnimationGroupD1Ev
libQtCore.so.4:_ZN23QParallelAnimationGroupD2Ev
libQtCore.so.4:_ZN24QAbstractEventDispatcher10startingUpEv
libQtCore.so.4:_ZN24QAbstractEventDispatcher11closingDownEv
libQtCore.so.4:_ZN24QAbstractEventDispatcher11filterEventEPv
libQtCore.so.4:_ZN24QAbstractEventDispatcher11qt_metacallEN11QMetaObject4CallEiPPv
libQtCore.so.4:_ZN24QAbstractEventDispatcher11qt_metacastEPKc
libQtCore.so.4:_ZN24QAbstractEventDispatcher12aboutToBlockEv
libQtCore.so.4:_ZN24QAbstractEventDispatcher13registerTimerEiP7QObject
libQtCore.so.4:_ZN24QAbstractEventDispatcher14setEventFilterEPFbPvE
libQtCore.so.4:_ZN24QAbstractEventDispatcher5awakeEv
libQtCore.so.4:_ZN24QAbstractEventDispatcher8instanceEP7QThread
libQtCore.so.4:_ZN24QAbstractEventDispatcherC1EP7QObject
libQtCore.so.4:_ZN24QAbstractEventDispatcherC1ER31QAbstractEventDispatcherPrivateP7QObject
libQtCore.so.4:_ZN24QAbstractEventDispatcherC2EP7QObject
libQtCore.so.4:_ZN24QAbstractEventDispatcherC2ER31QAbstractEventDispatcherPrivateP7QObject
libQtCore.so.4:_ZN24QAbstractEventDispatcherD0Ev
libQtCore.so.4:_ZN24QAbstractEventDispatcherD1Ev
libQtCore.so.4:_ZN24QAbstractEventDispatcherD2Ev
libQtCore.so.4:_ZN24QNonContiguousByteDevice11qt_metacallEN11QMetaObject4CallEiPPv
libQtCore.so.4:_ZN24QNonContiguousByteDevice11qt_metacastEPKc
libQtCore.so.4:_ZN24QNonContiguousByteDevice12disableResetEv
libQtCore.so.4:_ZN24QNonContiguousByteDevice12readProgressExx
libQtCore.so.4:_ZN24QNonContiguousByteDevice9readyReadEv
libQtCore.so.4:_ZN24QNonContiguousByteDeviceC1Ev
libQtCore.so.4:_ZN24QNonContiguousByteDeviceC2Ev
libQtCore.so.4:_ZN24QNonContiguousByteDeviceD0Ev
libQtCore.so.4:_ZN24QNonContiguousByteDeviceD1Ev
libQtCore.so.4:_ZN24QNonContiguousByteDeviceD2Ev
libQtCore.so.4:_ZN24QVariantAnimationPrivate15getInterpolatorEi
libQtCore.so.4:_ZN24QXmlStreamEntityResolver13resolveEntityERK7QStringS2_
libQtCore.so.4:_ZN24QXmlStreamEntityResolver23resolveUndeclaredEntityERK7QString
libQtCore.so.4:_ZN24QXmlStreamEntityResolverD0Ev
libQtCore.so.4:_ZN24QXmlStreamEntityResolverD1Ev
libQtCore.so.4:_ZN24QXmlStreamEntityResolverD2Ev
libQtCore.so.4:_ZN25QAbstractItemModelPrivate10Persistent16insertMultiAtEndERK11QModelIndexP25QPersistentModelIndexData
libQtCore.so.4:_ZN25QAbstractItemModelPrivate10itemsMovedERK11QModelIndexiiS2_iN2Qt11OrientationE
libQtCore.so.4:_ZN25QAbstractItemModelPrivate11rowsRemovedERK11QModelIndexii
libQtCore.so.4:_ZN25QAbstractItemModelPrivate12rowsInsertedERK11QModelIndexii
libQtCore.so.4:_ZN25QAbstractItemModelPrivate14columnsRemovedERK11QModelIndexii
libQtCore.so.4:_ZN25QAbstractItemModelPrivate15columnsInsertedERK11QModelIndexii
libQtCore.so.4:_ZN25QAbstractItemModelPrivate15variantLessThanERK8QVariantS2_
libQtCore.so.4:_ZN25QAbstractItemModelPrivate16defaultRoleNamesEv
libQtCore.so.4:_ZN25QAbstractItemModelPrivate16staticEmptyModelEv
libQtCore.so.4:_ZN25QAbstractItemModelPrivate19itemsAboutToBeMovedERK11QModelIndexiiS2_iN2Qt11OrientationE
libQtCore.so.4:_ZN25QAbstractItemModelPrivate20rowsAboutToBeRemovedERK11QModelIndexii
libQtCore.so.4:_ZN25QAbstractItemModelPrivate21movePersistentIndexesE7QVectorIP25QPersistentModelIndexDataEiRK11QModelIndexN2Qt11OrientationE
libQtCore.so.4:_ZN25QAbstractItemModelPrivate21rowsAboutToBeInsertedERK11QModelIndexii
libQtCore.so.4:_ZN25QAbstractItemModelPrivate23columnsAboutToBeRemovedERK11QModelIndexii
libQtCore.so.4:_ZN25QAbstractItemModelPrivate24columnsAboutToBeInsertedERK11QModelIndexii
libQtCore.so.4:_ZN25QAbstractItemModelPrivate25removePersistentIndexDataEP25QPersistentModelIndexData
libQtCore.so.4:_ZN25QAbstractItemModelPrivate9allowMoveERK11QModelIndexiiS2_iN2Qt11OrientationE
libQtCore.so.4:_ZN25QSequentialAnimationGroup11insertPauseEii
libQtCore.so.4:_ZN25QSequentialAnimationGroup11qt_metacallEN11QMetaObject4CallEiPPv
libQtCore.so.4:_ZN25QSequentialAnimationGroup11qt_metacastEPKc
libQtCore.so.4:_ZN25QSequentialAnimationGroup11updateStateEN18QAbstractAnimation5StateES1_
libQtCore.so.4:_ZN25QSequentialAnimationGroup15updateDirectionEN18QAbstractAnimation9DirectionE
libQtCore.so.4:_ZN25QSequentialAnimationGroup17updateCurrentTimeEi
libQtCore.so.4:_ZN25QSequentialAnimationGroup23currentAnimationChangedEP18QAbstractAnimation
libQtCore.so.4:_ZN25QSequentialAnimationGroup5eventEP6QEvent
libQtCore.so.4:_ZN25QSequentialAnimationGroup8addPauseEi
libQtCore.so.4:_ZN25QSequentialAnimationGroupC1EP7QObject
libQtCore.so.4:_ZN25QSequentialAnimationGroupC1ER32QSequentialAnimationGroupPrivateP7QObject
libQtCore.so.4:_ZN25QSequentialAnimationGroupC2EP7QObject
libQtCore.so.4:_ZN25QSequentialAnimationGroupC2ER32QSequentialAnimationGroupPrivateP7QObject
libQtCore.so.4:_ZN25QSequentialAnimationGroupD0Ev
libQtCore.so.4:_ZN25QSequentialAnimationGroupD1Ev
libQtCore.so.4:_ZN25QSequentialAnimationGroupD2Ev
libQtCore.so.4:_ZN26QAbstractFileEngineHandlerC1Ev
libQtCore.so.4:_ZN26QAbstractFileEngineHandlerC2Ev
libQtCore.so.4:_ZN26QAbstractFileEngineHandlerD0Ev
libQtCore.so.4:_ZN26QAbstractFileEngineHandlerD1Ev
libQtCore.so.4:_ZN26QAbstractFileEngineHandlerD2Ev
libQtCore.so.4:_ZN26QAbstractTransitionPrivate13callEventTestEP6QEvent
libQtCore.so.4:_ZN26QAbstractTransitionPrivate13emitTriggeredEv
libQtCore.so.4:_ZN26QAbstractTransitionPrivate16callOnTransitionEP6QEvent
libQtCore.so.4:_ZN26QAbstractTransitionPrivate3getEP19QAbstractTransition
libQtCore.so.4:_ZN26QAbstractTransitionPrivateC1Ev
libQtCore.so.4:_ZN26QAbstractTransitionPrivateC2Ev
libQtCore.so.4:_ZN27QAbstractFileEngineIterator7setPathERK7QString
libQtCore.so.4:_ZN27QAbstractFileEngineIteratorC1E6QFlagsIN4QDir6FilterEERK11QStringList
libQtCore.so.4:_ZN27QAbstractFileEngineIteratorC2E6QFlagsIN4QDir6FilterEERK11QStringList
libQtCore.so.4:_ZN27QAbstractFileEngineIteratorD0Ev
libQtCore.so.4:_ZN27QAbstractFileEngineIteratorD1Ev
libQtCore.so.4:_ZN27QAbstractFileEngineIteratorD2Ev
libQtCore.so.4:_ZN27QDynamicPropertyChangeEventC1ERK10QByteArray
libQtCore.so.4:_ZN27QDynamicPropertyChangeEventC2ERK10QByteArray
libQtCore.so.4:_ZN27QDynamicPropertyChangeEventD0Ev
libQtCore.so.4:_ZN27QDynamicPropertyChangeEventD1Ev
libQtCore.so.4:_ZN27QDynamicPropertyChangeEventD2Ev
libQtCore.so.4:_ZN27QEventDispatcherGlibPrivate31runTimersOnceWithNormalPriorityEv
libQtCore.so.4:_ZN27QEventDispatcherGlibPrivateC1EP13_GMainContext
libQtCore.so.4:_ZN27QEventDispatcherGlibPrivateC2EP13_GMainContext
libQtCore.so.4:_ZN27QEventDispatcherUNIXPrivate16initThreadWakeUpEv
libQtCore.so.4:_ZN27QEventDispatcherUNIXPrivate19processThreadWakeUpEi
libQtCore.so.4:_ZN27QEventDispatcherUNIXPrivate8doSelectE6QFlagsIN10QEventLoop17ProcessEventsFlagEEP7timeval
libQtCore.so.4:_ZN27QEventDispatcherUNIXPrivateC1Ev
libQtCore.so.4:_ZN27QEventDispatcherUNIXPrivateC2Ev
libQtCore.so.4:_ZN27QEventDispatcherUNIXPrivateD0Ev
libQtCore.so.4:_ZN27QEventDispatcherUNIXPrivateD1Ev
libQtCore.so.4:_ZN27QEventDispatcherUNIXPrivateD2Ev
libQtCore.so.4:_ZN27QXmlStreamEntityDeclarationC1ERKS_
libQtCore.so.4:_ZN27QXmlStreamEntityDeclarationC1Ev
libQtCore.so.4:_ZN27QXmlStreamEntityDeclarationC2ERKS_
libQtCore.so.4:_ZN27QXmlStreamEntityDeclarationC2Ev
libQtCore.so.4:_ZN27QXmlStreamEntityDeclarationD1Ev
libQtCore.so.4:_ZN27QXmlStreamEntityDeclarationD2Ev
libQtCore.so.4:_ZN27QXmlStreamEntityDeclarationaSERKS_
libQtCore.so.4:_ZN29QXmlStreamNotationDeclarationC1ERKS_
libQtCore.so.4:_ZN29QXmlStreamNotationDeclarationC1Ev
libQtCore.so.4:_ZN29QXmlStreamNotationDeclarationC2ERKS_
libQtCore.so.4:_ZN29QXmlStreamNotationDeclarationC2Ev
libQtCore.so.4:_ZN29QXmlStreamNotationDeclarationD1Ev
libQtCore.so.4:_ZN29QXmlStreamNotationDeclarationD2Ev
libQtCore.so.4:_ZN29QXmlStreamNotationDeclarationaSERKS_
libQtCore.so.4:_ZN30QXmlStreamNamespaceDeclarationC1ERK7QStringS2_
libQtCore.so.4:_ZN30QXmlStreamNamespaceDeclarationC1ERKS_
libQtCore.so.4:_ZN30QXmlStreamNamespaceDeclarationC1Ev
libQtCore.so.4:_ZN30QXmlStreamNamespaceDeclarationC2ERK7QStringS2_
libQtCore.so.4:_ZN30QXmlStreamNamespaceDeclarationC2ERKS_
libQtCore.so.4:_ZN30QXmlStreamNamespaceDeclarationC2Ev
libQtCore.so.4:_ZN30QXmlStreamNamespaceDeclarationD1Ev
libQtCore.so.4:_ZN30QXmlStreamNamespaceDeclarationD2Ev
libQtCore.so.4:_ZN30QXmlStreamNamespaceDeclarationaSERKS_
libQtCore.so.4:_ZN31QAbstractEventDispatcherPrivate14releaseTimerIdEi
libQtCore.so.4:_ZN31QAbstractEventDispatcherPrivate15allocateTimerIdEv
libQtCore.so.4:_ZN31QAbstractEventDispatcherPrivate4initEv
libQtCore.so.4:_ZN31QNonContiguousByteDeviceFactory4wrapEP24QNonContiguousByteDevice
libQtCore.so.4:_ZN31QNonContiguousByteDeviceFactory6createE14QSharedPointerI11QRingBufferE
libQtCore.so.4:_ZN31QNonContiguousByteDeviceFactory6createEP10QByteArray
libQtCore.so.4:_ZN31QNonContiguousByteDeviceFactory6createEP9QIODevice
libQtCore.so.4:_ZN4QDir10setCurrentERK7QString
libQtCore.so.4:_ZN4QDir10setSortingE6QFlagsINS_8SortFlagEE
libQtCore.so.4:_ZN4QDir11currentPathEv
libQtCore.so.4:_ZN4QDir11searchPathsERK7QString
libQtCore.so.4:_ZN4QDir12makeAbsoluteEv
libQtCore.so.4:_ZN4QDir13addSearchPathERK7QStringS2_
libQtCore.so.4:_ZN4QDir13setNameFilterERK7QString
libQtCore.so.4:_ZN4QDir14isRelativePathERK7QString
libQtCore.so.4:_ZN4QDir14setNameFiltersERK11QStringList
libQtCore.so.4:_ZN4QDir14setSearchPathsERK7QStringRK11QStringList
libQtCore.so.4:_ZN4QDir15setMatchAllDirsEb
libQtCore.so.4:_ZN4QDir17convertSeparatorsERK7QString
libQtCore.so.4:_ZN4QDir18toNativeSeparatorsERK7QString
libQtCore.so.4:_ZN4QDir20fromNativeSeparatorsERK7QString
libQtCore.so.4:_ZN4QDir21addResourceSearchPathERK7QString
libQtCore.so.4:_ZN4QDir21nameFiltersFromStringERK7QString
libQtCore.so.4:_ZN4QDir2cdERK7QString
libQtCore.so.4:_ZN4QDir4cdUpEv
libQtCore.so.4:_ZN4QDir5matchERK11QStringListRK7QString
libQtCore.so.4:_ZN4QDir5matchERK7QStringS2_
libQtCore.so.4:_ZN4QDir6drivesEv
libQtCore.so.4:_ZN4QDir6removeERK7QString
libQtCore.so.4:_ZN4QDir6renameERK7QStringS2_
libQtCore.so.4:_ZN4QDir7setPathERK7QString
libQtCore.so.4:_ZN4QDir8homePathEv
libQtCore.so.4:_ZN4QDir8rootPathEv
libQtCore.so.4:_ZN4QDir8tempPathEv
libQtCore.so.4:_ZN4QDir9cleanPathERK7QString
libQtCore.so.4:_ZN4QDir9separatorEv
libQtCore.so.4:_ZN4QDir9setFilterE6QFlagsINS_6FilterEE
libQtCore.so.4:_ZN4QDirC1ERK7QString
libQtCore.so.4:_ZN4QDirC1ERK7QStringS2_6QFlagsINS_8SortFlagEES3_INS_6FilterEE
libQtCore.so.4:_ZN4QDirC1ERKS_
libQtCore.so.4:_ZN4QDirC2ERK7QString
libQtCore.so.4:_ZN4QDirC2ERK7QStringS2_6QFlagsINS_8SortFlagEES3_INS_6FilterEE
libQtCore.so.4:_ZN4QDirC2ERKS_
libQtCore.so.4:_ZN4QDirD1Ev
libQtCore.so.4:_ZN4QDirD2Ev
libQtCore.so.4:_ZN4QDiraSERK7QString
libQtCore.so.4:_ZN4QDiraSERKS_
libQtCore.so.4:_ZN4QUrl10toPunycodeERK7QString
libQtCore.so.4:_ZN4QUrl11fromEncodedERK10QByteArray
libQtCore.so.4:_ZN4QUrl11fromEncodedERK10QByteArrayNS_11ParsingModeE
libQtCore.so.4:_ZN4QUrl11setFileNameERK7QString
libQtCore.so.4:_ZN4QUrl11setFragmentERK7QString
libQtCore.so.4:_ZN4QUrl11setPasswordERK7QString
libQtCore.so.4:_ZN4QUrl11setUserInfoERK7QString
libQtCore.so.4:_ZN4QUrl11setUserNameERK7QString
libQtCore.so.4:_ZN4QUrl12addQueryItemERK7QStringS2_
libQtCore.so.4:_ZN4QUrl12fromPunycodeERK10QByteArray
libQtCore.so.4:_ZN4QUrl12idnWhitelistEv
libQtCore.so.4:_ZN4QUrl12setAuthorityERK7QString
libQtCore.so.4:_ZN4QUrl13fromLocalFileERK7QString
libQtCore.so.4:_ZN4QUrl13fromUserInputERK7QString
libQtCore.so.4:_ZN4QUrl13setEncodedUrlERK10QByteArray
libQtCore.so.4:_ZN4QUrl13setEncodedUrlERK10QByteArrayNS_11ParsingModeE
libQtCore.so.4:_ZN4QUrl13setQueryItemsERK5QListI5QPairI7QStringS2_EE
libQtCore.so.4:_ZN4QUrl14setEncodedHostERK10QByteArray
libQtCore.so.4:_ZN4QUrl14setEncodedPathERK10QByteArray
libQtCore.so.4:_ZN4QUrl15removeQueryItemERK7QString
libQtCore.so.4:_ZN4QUrl15setEncodedQueryERK10QByteArray
libQtCore.so.4:_ZN4QUrl15setIdnWhitelistERK11QStringList
libQtCore.so.4:_ZN4QUrl17toPercentEncodingERK7QStringRK10QByteArrayS5_
libQtCore.so.4:_ZN4QUrl18setEncodedFragmentERK10QByteArray
libQtCore.so.4:_ZN4QUrl18setEncodedPasswordERK10QByteArray
libQtCore.so.4:_ZN4QUrl18setEncodedUserNameERK10QByteArray
libQtCore.so.4:_ZN4QUrl18setQueryDelimitersEcc
libQtCore.so.4:_ZN4QUrl19addEncodedQueryItemERK10QByteArrayS2_
libQtCore.so.4:_ZN4QUrl19fromPercentEncodingERK10QByteArray
libQtCore.so.4:_ZN4QUrl19removeAllQueryItemsERK7QString
libQtCore.so.4:_ZN4QUrl20setEncodedQueryItemsERK5QListI5QPairI10QByteArrayS2_EE
libQtCore.so.4:_ZN4QUrl22removeEncodedQueryItemERK10QByteArray
libQtCore.so.4:_ZN4QUrl26removeAllEncodedQueryItemsERK10QByteArray
libQtCore.so.4:_ZN4QUrl5clearEv
libQtCore.so.4:_ZN4QUrl5toAceERK7QString
libQtCore.so.4:_ZN4QUrl6detachER12QMutexLocker
libQtCore.so.4:_ZN4QUrl6detachEv
libQtCore.so.4:_ZN4QUrl6setUrlERK7QString
libQtCore.so.4:_ZN4QUrl6setUrlERK7QStringNS_11ParsingModeE
libQtCore.so.4:_ZN4QUrl7fromAceERK10QByteArray
libQtCore.so.4:_ZN4QUrl7setHostERK7QString
libQtCore.so.4:_ZN4QUrl7setPathERK7QString
libQtCore.so.4:_ZN4QUrl7setPortEi
libQtCore.so.4:_ZN4QUrl9setSchemeERK7QString
libQtCore.so.4:_ZN4QUrlC1ERK7QString
libQtCore.so.4:_ZN4QUrlC1ERK7QStringNS_11ParsingModeE
libQtCore.so.4:_ZN4QUrlC1ERKS_
libQtCore.so.4:_ZN4QUrlC1Ev
libQtCore.so.4:_ZN4QUrlC2ERK7QString
libQtCore.so.4:_ZN4QUrlC2ERK7QStringNS_11ParsingModeE
libQtCore.so.4:_ZN4QUrlC2ERKS_
libQtCore.so.4:_ZN4QUrlC2Ev
libQtCore.so.4:_ZN4QUrlD1Ev
libQtCore.so.4:_ZN4QUrlD2Ev
libQtCore.so.4:_ZN4QUrlaSERK7QString
libQtCore.so.4:_ZN4QUrlaSERKS_
libQtCore.so.4:_ZN5QChar10digitValueEj
libQtCore.so.4:_ZN5QChar10digitValueEt
libQtCore.so.4:_ZN5QChar11toTitleCaseEj
libQtCore.so.4:_ZN5QChar11toTitleCaseEt
libQtCore.so.4:_ZN5QChar12mirroredCharEj
libQtCore.so.4:_ZN5QChar12mirroredCharEt
libQtCore.so.4:_ZN5QChar12toCaseFoldedEj
libQtCore.so.4:_ZN5QChar12toCaseFoldedEt
libQtCore.so.4:_ZN5QChar13decompositionEj
libQtCore.so.4:_ZN5QChar14combiningClassEj
libQtCore.so.4:_ZN5QChar14combiningClassEt
libQtCore.so.4:_ZN5QChar14unicodeVersionEj
libQtCore.so.4:_ZN5QChar14unicodeVersionEt
libQtCore.so.4:_ZN5QChar16decompositionTagEj
libQtCore.so.4:_ZN5QChar21currentUnicodeVersionEv
libQtCore.so.4:_ZN5QChar7joiningEj
libQtCore.so.4:_ZN5QChar7joiningEt
libQtCore.so.4:_ZN5QChar7toLowerEj
libQtCore.so.4:_ZN5QChar7toLowerEt
libQtCore.so.4:_ZN5QChar7toUpperEj
libQtCore.so.4:_ZN5QChar7toUpperEt
libQtCore.so.4:_ZN5QChar8categoryEj
libQtCore.so.4:_ZN5QChar8categoryEt
libQtCore.so.4:_ZN5QChar9directionEj
libQtCore.so.4:_ZN5QChar9directionEt
libQtCore.so.4:_ZN5QChar9fromAsciiEc
libQtCore.so.4:_ZN5QCharC1Ec
libQtCore.so.4:_ZN5QCharC1Eh
libQtCore.so.4:_ZN5QCharC2Ec
libQtCore.so.4:_ZN5QCharC2Eh
libQtCore.so.4:_ZN5QDate10fromStringERK7QStringN2Qt10DateFormatE
libQtCore.so.4:_ZN5QDate10fromStringERK7QStringS2_
libQtCore.so.4:_ZN5QDate10isLeapYearEi
libQtCore.so.4:_ZN5QDate11currentDateEv
libQtCore.so.4:_ZN5QDate11longDayNameEi
libQtCore.so.4:_ZN5QDate11longDayNameEiNS_13MonthNameTypeE
libQtCore.so.4:_ZN5QDate12shortDayNameEi
libQtCore.so.4:_ZN5QDate12shortDayNameEiNS_13MonthNameTypeE
libQtCore.so.4:_ZN5QDate13longMonthNameEi
libQtCore.so.4:_ZN5QDate13longMonthNameEiNS_13MonthNameTypeE
libQtCore.so.4:_ZN5QDate14shortMonthNameEi
libQtCore.so.4:_ZN5QDate14shortMonthNameEiNS_13MonthNameTypeE
libQtCore.so.4:_ZN5QDate17gregorianToJulianEiii
libQtCore.so.4:_ZN5QDate17julianToGregorianEjRiS0_S0_
libQtCore.so.4:_ZN5QDate6setYMDEiii
libQtCore.so.4:_ZN5QDate7getDateEPiS0_S0_
libQtCore.so.4:_ZN5QDate7isValidEiii
libQtCore.so.4:_ZN5QDate7setDateEiii
libQtCore.so.4:_ZN5QDateC1Eiii
libQtCore.so.4:_ZN5QDateC2Eiii
libQtCore.so.4:_ZN5QFile10decodeNameERK10QByteArray
libQtCore.so.4:_ZN5QFile10encodeNameERK7QString
libQtCore.so.4:_ZN5QFile10unsetErrorEv
libQtCore.so.4:_ZN5QFile11permissionsERK7QString
libQtCore.so.4:_ZN5QFile11qt_metacallEN11QMetaObject4CallEiPPv
libQtCore.so.4:_ZN5QFile11qt_metacastEPKc
libQtCore.so.4:_ZN5QFile11setFileNameERK7QString
libQtCore.so.4:_ZN5QFile12readLineDataEPcx
libQtCore.so.4:_ZN5QFile14setPermissionsE6QFlagsINS_10PermissionEE
libQtCore.so.4:_ZN5QFile14setPermissionsERK7QString6QFlagsINS_10PermissionEE
libQtCore.so.4:_ZN5QFile19setDecodingFunctionEPF7QStringRK10QByteArrayE
libQtCore.so.4:_ZN5QFile19setEncodingFunctionEPF10QByteArrayRK7QStringE
libQtCore.so.4:_ZN5QFile3mapExxNS_14MemoryMapFlagsE
libQtCore.so.4:_ZN5QFile4copyERK7QString
libQtCore.so.4:_ZN5QFile4copyERK7QStringS2_
libQtCore.so.4:_ZN5QFile4linkERK7QString
libQtCore.so.4:_ZN5QFile4linkERK7QStringS2_
libQtCore.so.4:_ZN5QFile4openE6QFlagsIN9QIODevice12OpenModeFlagEE
libQtCore.so.4:_ZN5QFile4openEP8_IO_FILE6QFlagsIN9QIODevice12OpenModeFlagEE
libQtCore.so.4:_ZN5QFile4openEP8_IO_FILE6QFlagsIN9QIODevice12OpenModeFlagEES2_INS_14FileHandleFlagEE
libQtCore.so.4:_ZN5QFile4openEi6QFlagsIN9QIODevice12OpenModeFlagEE
libQtCore.so.4:_ZN5QFile4openEi6QFlagsIN9QIODevice12OpenModeFlagEES0_INS_14FileHandleFlagEE
libQtCore.so.4:_ZN5QFile4seekEx
libQtCore.so.4:_ZN5QFile5closeEv
libQtCore.so.4:_ZN5QFile5flushEv
libQtCore.so.4:_ZN5QFile5unmapEPh
libQtCore.so.4:_ZN5QFile6existsERK7QString
libQtCore.so.4:_ZN5QFile6removeERK7QString
libQtCore.so.4:_ZN5QFile6removeEv
libQtCore.so.4:_ZN5QFile6renameERK7QString
libQtCore.so.4:_ZN5QFile6renameERK7QStringS2_
libQtCore.so.4:_ZN5QFile6resizeERK7QStringx
libQtCore.so.4:_ZN5QFile6resizeEx
libQtCore.so.4:_ZN5QFile8readDataEPcx
libQtCore.so.4:_ZN5QFile8readLinkERK7QString
libQtCore.so.4:_ZN5QFile9writeDataEPKcx
libQtCore.so.4:_ZN5QFileC1EP7QObject
libQtCore.so.4:_ZN5QFileC1ER12QFilePrivateP7QObject
libQtCore.so.4:_ZN5QFileC1ERK7QString
libQtCore.so.4:_ZN5QFileC1ERK7QStringP7QObject
libQtCore.so.4:_ZN5QFileC1Ev
libQtCore.so.4:_ZN5QFileC2EP7QObject
libQtCore.so.4:_ZN5QFileC2ER12QFilePrivateP7QObject
libQtCore.so.4:_ZN5QFileC2ERK7QString
libQtCore.so.4:_ZN5QFileC2ERK7QStringP7QObject
libQtCore.so.4:_ZN5QFileC2Ev
libQtCore.so.4:_ZN5QFileD0Ev
libQtCore.so.4:_ZN5QFileD1Ev
libQtCore.so.4:_ZN5QFileD2Ev
libQtCore.so.4:_ZN5QRect10moveCenterERK6QPoint
libQtCore.so.4:_ZN5QSize5scaleERKS_N2Qt15AspectRatioModeE
libQtCore.so.4:_ZN5QSize9transposeEv
libQtCore.so.4:_ZN5QTime10fromStringERK7QStringN2Qt10DateFormatE
libQtCore.so.4:_ZN5QTime10fromStringERK7QStringS2_
libQtCore.so.4:_ZN5QTime11currentTimeEv
libQtCore.so.4:_ZN5QTime5startEv
libQtCore.so.4:_ZN5QTime6setHMSEiiii
libQtCore.so.4:_ZN5QTime7isValidEiiii
libQtCore.so.4:_ZN5QTime7restartEv
libQtCore.so.4:_ZN5QTimeC1Eiiii
libQtCore.so.4:_ZN5QTimeC2Eiiii
libQtCore.so.4:_ZN5QUuid10createUuidEv
libQtCore.so.4:_ZN5QUuid11fromRfc4122ERK10QByteArray
libQtCore.so.4:_ZN5QUuidC1EPKc
libQtCore.so.4:_ZN5QUuidC1ERK10QByteArray
libQtCore.so.4:_ZN5QUuidC1ERK7QString
libQtCore.so.4:_ZN5QUuidC2EPKc
libQtCore.so.4:_ZN5QUuidC2ERK10QByteArray
libQtCore.so.4:_ZN5QUuidC2ERK7QString
libQtCore.so.4:_ZN6QEvent17registerEventTypeEi
libQtCore.so.4:_ZN6QEventC1ENS_4TypeE
libQtCore.so.4:_ZN6QEventC2ENS_4TypeE
libQtCore.so.4:_ZN6QEventD0Ev
libQtCore.so.4:_ZN6QEventD1Ev
libQtCore.so.4:_ZN6QEventD2Ev
libQtCore.so.4:_ZN6QLineF8setAngleEd
libQtCore.so.4:_ZN6QLineF9fromPolarEdd
libQtCore.so.4:_ZN6QMutex12lockInternalEv
libQtCore.so.4:_ZN6QMutex14unlockInternalEv
libQtCore.so.4:_ZN6QMutex4lockEv
libQtCore.so.4:_ZN6QMutex6unlockEv
libQtCore.so.4:_ZN6QMutex7tryLockEi
libQtCore.so.4:_ZN6QMutex7tryLockEv
libQtCore.so.4:_ZN6QMutexC1ENS_13RecursionModeE
libQtCore.so.4:_ZN6QMutexC2ENS_13RecursionModeE
libQtCore.so.4:_ZN6QMutexD1Ev
libQtCore.so.4:_ZN6QMutexD2Ev
libQtCore.so.4:_ZN6QSizeF5scaleERKS_N2Qt15AspectRatioModeE
libQtCore.so.4:_ZN6QSizeF9transposeEv
libQtCore.so.4:_ZN6QState11qt_metacallEN11QMetaObject4CallEiPPv
libQtCore.so.4:_ZN6QState11qt_metacastEPKc
libQtCore.so.4:_ZN6QState12setChildModeENS_9ChildModeE
libQtCore.so.4:_ZN6QState13addTransitionEP14QAbstractState
libQtCore.so.4:_ZN6QState13addTransitionEP19QAbstractTransition
libQtCore.so.4:_ZN6QState13addTransitionEP7QObjectPKcP14QAbstractState
libQtCore.so.4:_ZN6QState13setErrorStateEP14QAbstractState
libQtCore.so.4:_ZN6QState14assignPropertyEP7QObjectPKcRK8QVariant
libQtCore.so.4:_ZN6QState15setInitialStateEP14QAbstractState
libQtCore.so.4:_ZN6QState16removeTransitionEP19QAbstractTransition
libQtCore.so.4:_ZN6QState18propertiesAssignedEv
libQtCore.so.4:_ZN6QState5eventEP6QEvent
libQtCore.so.4:_ZN6QState6onExitEP6QEvent
libQtCore.so.4:_ZN6QState7onEntryEP6QEvent
libQtCore.so.4:_ZN6QState8finishedEv
libQtCore.so.4:_ZN6QStateC1ENS_9ChildModeEPS_
libQtCore.so.4:_ZN6QStateC1EPS_
libQtCore.so.4:_ZN6QStateC1ER13QStatePrivatePS_
libQtCore.so.4:_ZN6QStateC2ENS_9ChildModeEPS_
libQtCore.so.4:_ZN6QStateC2EPS_
libQtCore.so.4:_ZN6QStateC2ER13QStatePrivatePS_
libQtCore.so.4:_ZN6QStateD0Ev
libQtCore.so.4:_ZN6QStateD1Ev
libQtCore.so.4:_ZN6QStateD2Ev
libQtCore.so.4:_ZN6QTimer10singleShotEiP7QObjectPKc
libQtCore.so.4:_ZN6QTimer10timerEventEP11QTimerEvent
libQtCore.so.4:_ZN6QTimer11qt_metacallEN11QMetaObject4CallEiPPv
libQtCore.so.4:_ZN6QTimer11qt_metacastEPKc
libQtCore.so.4:_ZN6QTimer11setIntervalEi
libQtCore.so.4:_ZN6QTimer4stopEv
libQtCore.so.4:_ZN6QTimer5startEi
libQtCore.so.4:_ZN6QTimer5startEib
libQtCore.so.4:_ZN6QTimer5startEv
libQtCore.so.4:_ZN6QTimer7timeoutEv
libQtCore.so.4:_ZN6QTimerC1EP7QObject
libQtCore.so.4:_ZN6QTimerC1EP7QObjectPKc
libQtCore.so.4:_ZN6QTimerC2EP7QObject
libQtCore.so.4:_ZN6QTimerC2EP7QObjectPKc
libQtCore.so.4:_ZN6QTimerD0Ev
libQtCore.so.4:_ZN6QTimerD1Ev
libQtCore.so.4:_ZN6QTimerD2Ev
libQtCore.so.4:_ZN7QBuffer11qt_metacallEN11QMetaObject4CallEiPPv
libQtCore.so.4:_ZN7QBuffer11qt_metacastEPKc
libQtCore.so.4:_ZN7QBuffer13connectNotifyEPKc
libQtCore.so.4:_ZN7QBuffer16disconnectNotifyEPKc
libQtCore.so.4:_ZN7QBuffer4openE6QFlagsIN9QIODevice12OpenModeFlagEE
libQtCore.so.4:_ZN7QBuffer4seekEx
libQtCore.so.4:_ZN7QBuffer5closeEv
libQtCore.so.4:_ZN7QBuffer6bufferEv
libQtCore.so.4:_ZN7QBuffer7setDataERK10QByteArray
libQtCore.so.4:_ZN7QBuffer8readDataEPcx
libQtCore.so.4:_ZN7QBuffer9setBufferEP10QByteArray
libQtCore.so.4:_ZN7QBuffer9writeDataEPKcx
libQtCore.so.4:_ZN7QBufferC1EP10QByteArrayP7QObject
libQtCore.so.4:_ZN7QBufferC1EP7QObject
libQtCore.so.4:_ZN7QBufferC2EP10QByteArrayP7QObject
libQtCore.so.4:_ZN7QBufferC2EP7QObject
libQtCore.so.4:_ZN7QBufferD0Ev
libQtCore.so.4:_ZN7QBufferD1Ev
libQtCore.so.4:_ZN7QBufferD2Ev
libQtCore.so.4:_ZN7QLocale10setDefaultERKS_
libQtCore.so.4:_ZN7QLocale14scriptToStringENS_6ScriptE
libQtCore.so.4:_ZN7QLocale15countryToStringENS_7CountryE
libQtCore.so.4:_ZN7QLocale15matchingLocalesENS_8LanguageENS_6ScriptENS_7CountryE
libQtCore.so.4:_ZN7QLocale16languageToStringENS_8LanguageE
libQtCore.so.4:_ZN7QLocale16setNumberOptionsE6QFlagsINS_12NumberOptionEE
libQtCore.so.4:_ZN7QLocale20countriesForLanguageENS_8LanguageE
libQtCore.so.4:_ZN7QLocale6systemEv
libQtCore.so.4:_ZN7QLocaleC1ENS_8LanguageENS_6ScriptENS_7CountryE
libQtCore.so.4:_ZN7QLocaleC1ENS_8LanguageENS_7CountryE
libQtCore.so.4:_ZN7QLocaleC1ERK7QString
libQtCore.so.4:_ZN7QLocaleC1ERKS_
libQtCore.so.4:_ZN7QLocaleC1Ev
libQtCore.so.4:_ZN7QLocaleC2ENS_8LanguageENS_6ScriptENS_7CountryE
libQtCore.so.4:_ZN7QLocaleC2ENS_8LanguageENS_7CountryE
libQtCore.so.4:_ZN7QLocaleC2ERK7QString
libQtCore.so.4:_ZN7QLocaleC2ERKS_
libQtCore.so.4:_ZN7QLocaleC2Ev
libQtCore.so.4:_ZN7QLocaleaSERKS_
libQtCore.so.4:_ZN7QObject10childEventEP11QChildEvent
libQtCore.so.4:_ZN7QObject10disconnectEPKS_PKcS1_S3_
libQtCore.so.4:_ZN7QObject10disconnectEPKS_RK11QMetaMethodS1_S4_
libQtCore.so.4:_ZN7QObject10startTimerEi
libQtCore.so.4:_ZN7QObject10timerEventEP11QTimerEvent
libQtCore.so.4:_ZN7QObject11customEventEP6QEvent
libQtCore.so.4:_ZN7QObject11deleteLaterEv
libQtCore.so.4:_ZN7QObject11eventFilterEPS_P6QEvent
libQtCore.so.4:_ZN7QObject11qt_metacallEN11QMetaObject4CallEiPPv
libQtCore.so.4:_ZN7QObject11qt_metacastEPKc
libQtCore.so.4:_ZN7QObject11setPropertyEPKcRK8QVariant
libQtCore.so.4:_ZN7QObject11setUserDataEjP15QObjectUserData
libQtCore.so.4:_ZN7QObject12blockSignalsEb
libQtCore.so.4:_ZN7QObject12moveToThreadEP7QThread
libQtCore.so.4:_ZN7QObject13connectNotifyEPKc
libQtCore.so.4:_ZN7QObject13setObjectNameERK7QString
libQtCore.so.4:_ZN7QObject14dumpObjectInfoEv
libQtCore.so.4:_ZN7QObject14dumpObjectTreeEv
libQtCore.so.4:_ZN7QObject16disconnectNotifyEPKc
libQtCore.so.4:_ZN7QObject16registerUserDataEv
libQtCore.so.4:_ZN7QObject17removeEventFilterEPS_
libQtCore.so.4:_ZN7QObject18installEventFilterEPS_
libQtCore.so.4:_ZN7QObject5eventEP6QEvent
libQtCore.so.4:_ZN7QObject7connectEPKS_PKcS1_S3_N2Qt14ConnectionTypeE
libQtCore.so.4:_ZN7QObject7connectEPKS_RK11QMetaMethodS1_S4_N2Qt14ConnectionTypeE
libQtCore.so.4:_ZN7QObject9destroyedEPS_
libQtCore.so.4:_ZN7QObject9killTimerEi
libQtCore.so.4:_ZN7QObject9setParentEPS_
libQtCore.so.4:_ZN7QObjectC1EPS_
libQtCore.so.4:_ZN7QObjectC1EPS_PKc
libQtCore.so.4:_ZN7QObjectC1ER14QObjectPrivatePS_
libQtCore.so.4:_ZN7QObjectC2EPS_
libQtCore.so.4:_ZN7QObjectC2EPS_PKc
libQtCore.so.4:_ZN7QObjectC2ER14QObjectPrivatePS_
libQtCore.so.4:_ZN7QObjectD0Ev
libQtCore.so.4:_ZN7QObjectD1Ev
libQtCore.so.4:_ZN7QObjectD2Ev
libQtCore.so.4:_ZN7QRegExp10setMinimalEb
libQtCore.so.4:_ZN7QRegExp10setPatternERK7QString
libQtCore.so.4:_ZN7QRegExp11errorStringEv
libQtCore.so.4:_ZN7QRegExp13capturedTextsEv
libQtCore.so.4:_ZN7QRegExp16setPatternSyntaxENS_13PatternSyntaxE
libQtCore.so.4:_ZN7QRegExp18setCaseSensitivityEN2Qt15CaseSensitivityE
libQtCore.so.4:_ZN7QRegExp3capEi
libQtCore.so.4:_ZN7QRegExp3posEi
libQtCore.so.4:_ZN7QRegExp6escapeERK7QString
libQtCore.so.4:_ZN7QRegExpC1ERK7QStringN2Qt15CaseSensitivityENS_13PatternSyntaxE
libQtCore.so.4:_ZN7QRegExpC1ERKS_
libQtCore.so.4:_ZN7QRegExpC1Ev
libQtCore.so.4:_ZN7QRegExpC2ERK7QStringN2Qt15CaseSensitivityENS_13PatternSyntaxE
libQtCore.so.4:_ZN7QRegExpC2ERKS_
libQtCore.so.4:_ZN7QRegExpC2Ev
libQtCore.so.4:_ZN7QRegExpD1Ev
libQtCore.so.4:_ZN7QRegExpD2Ev
libQtCore.so.4:_ZN7QRegExpaSERKS_
libQtCore.so.4:_ZN7QString10fromLatin1EPKci
libQtCore.so.4:_ZN7QString10setRawDataEPK5QChari
libQtCore.so.4:_ZN7QString10setUnicodeEPK5QChari
libQtCore.so.4:_ZN7QString11fromRawDataEPK5QChari
libQtCore.so.4:_ZN7QString13fromLocal8BitEPKci
libQtCore.so.4:_ZN7QString14compare_helperEPK5QChari13QLatin1StringN2Qt15CaseSensitivityE
libQtCore.so.4:_ZN7QString14compare_helperEPK5QChariS2_iN2Qt15CaseSensitivityE
libQtCore.so.4:_ZN7QString14fromWCharArrayEPKwi
libQtCore.so.4:_ZN7QString14replace_helperEPjiiPK5QChari
libQtCore.so.4:_ZN7QString16fromAscii_helperEPKci
libQtCore.so.4:_ZN7QString17fromLatin1_helperEPKci
libQtCore.so.4:_ZN7QString25localeAwareCompare_helperEPK5QChariS2_i
libQtCore.so.4:_ZN7QString4chopEi
libQtCore.so.4:_ZN7QString4fillE5QChari
libQtCore.so.4:_ZN7QString4freeEPNS_4DataE
libQtCore.so.4:_ZN7QString4growEi
libQtCore.so.4:_ZN7QString6appendE5QChar
libQtCore.so.4:_ZN7QString6appendERK10QStringRef
libQtCore.so.4:_ZN7QString6appendERK13QLatin1String
libQtCore.so.4:_ZN7QString6appendERKS_
libQtCore.so.4:_ZN7QString6expandEi
libQtCore.so.4:_ZN7QString6insertEi5QChar
libQtCore.so.4:_ZN7QString6insertEiPK5QChari
libQtCore.so.4:_ZN7QString6insertEiRK13QLatin1String
libQtCore.so.4:_ZN7QString6numberEdci
libQtCore.so.4:_ZN7QString6numberEii
libQtCore.so.4:_ZN7QString6numberEji
libQtCore.so.4:_ZN7QString6numberEli
libQtCore.so.4:_ZN7QString6numberEmi
libQtCore.so.4:_ZN7QString6numberExi
libQtCore.so.4:_ZN7QString6numberEyi
libQtCore.so.4:_ZN7QString6removeE5QCharN2Qt15CaseSensitivityE
libQtCore.so.4:_ZN7QString6removeERKS_N2Qt15CaseSensitivityE
libQtCore.so.4:_ZN7QString6removeEii
libQtCore.so.4:_ZN7QString6resizeEi
libQtCore.so.4:_ZN7QString6setNumEdci
libQtCore.so.4:_ZN7QString6setNumExi
libQtCore.so.4:_ZN7QString6setNumEyi
libQtCore.so.4:_ZN7QString7reallocEi
libQtCore.so.4:_ZN7QString7reallocEv
libQtCore.so.4:_ZN7QString7replaceE5QCharRK13QLatin1StringN2Qt15CaseSensitivityE
libQtCore.so.4:_ZN7QString7replaceE5QCharRKS_N2Qt15CaseSensitivityE
libQtCore.so.4:_ZN7QString7replaceE5QCharS0_N2Qt15CaseSensitivityE
libQtCore.so.4:_ZN7QString7replaceEPK5QChariS2_iN2Qt15CaseSensitivityE
libQtCore.so.4:_ZN7QString7replaceERK13QLatin1StringRKS_N2Qt15CaseSensitivityE
libQtCore.so.4:_ZN7QString7replaceERK13QLatin1StringS2_N2Qt15CaseSensitivityE
libQtCore.so.4:_ZN7QString7replaceERK7QRegExpRKS_
libQtCore.so.4:_ZN7QString7replaceERKS_RK13QLatin1StringN2Qt15CaseSensitivityE
libQtCore.so.4:_ZN7QString7replaceERKS_S1_N2Qt15CaseSensitivityE
libQtCore.so.4:_ZN7QString7replaceEii5QChar
libQtCore.so.4:_ZN7QString7replaceEiiPK5QChari
libQtCore.so.4:_ZN7QString7replaceEiiRKS_
libQtCore.so.4:_ZN7QString7sprintfEPKcz
libQtCore.so.4:_ZN7QString8fromUcs4EPKji
libQtCore.so.4:_ZN7QString8fromUtf8EPKci
libQtCore.so.4:_ZN7QString8truncateEi
libQtCore.so.4:_ZN7QString8vsprintfEPKcP13__va_list_tag
libQtCore.so.4:_ZN7QString9fromAsciiEPKci
libQtCore.so.4:_ZN7QString9fromUtf16EPKti
libQtCore.so.4:_ZN7QStringC1E5QChar
libQtCore.so.4:_ZN7QStringC1EPK5QChar
libQtCore.so.4:_ZN7QStringC1EPK5QChari
libQtCore.so.4:_ZN7QStringC1Ei5QChar
libQtCore.so.4:_ZN7QStringC1EiN2Qt14InitializationE
libQtCore.so.4:_ZN7QStringC2E5QChar
libQtCore.so.4:_ZN7QStringC2EPK5QChar
libQtCore.so.4:_ZN7QStringC2EPK5QChari
libQtCore.so.4:_ZN7QStringC2Ei5QChar
libQtCore.so.4:_ZN7QStringC2EiN2Qt14InitializationE
libQtCore.so.4:_ZN7QStringaSE5QChar
libQtCore.so.4:_ZN7QStringaSERKS_
libQtCore.so.4:_ZN7QThread10initializeEv
libQtCore.so.4:_ZN7QThread10terminatedEv
libQtCore.so.4:_ZN7QThread11qt_metacallEN11QMetaObject4CallEiPPv
libQtCore.so.4:_ZN7QThread11qt_metacastEPKc
libQtCore.so.4:_ZN7QThread11setPriorityENS_8PriorityE
libQtCore.so.4:_ZN7QThread12setStackSizeEj
libQtCore.so.4:_ZN7QThread13currentThreadEv
libQtCore.so.4:_ZN7QThread15currentThreadIdEv
libQtCore.so.4:_ZN7QThread16idealThreadCountEv
libQtCore.so.4:_ZN7QThread18yieldCurrentThreadEv
libQtCore.so.4:_ZN7QThread21setTerminationEnabledEb
libQtCore.so.4:_ZN7QThread3runEv
libQtCore.so.4:_ZN7QThread4execEv
libQtCore.so.4:_ZN7QThread4exitEi
libQtCore.so.4:_ZN7QThread4quitEv
libQtCore.so.4:_ZN7QThread4waitEm
libQtCore.so.4:_ZN7QThread5sleepEm
libQtCore.so.4:_ZN7QThread5startENS_8PriorityE
libQtCore.so.4:_ZN7QThread6msleepEm
libQtCore.so.4:_ZN7QThread6usleepEm
libQtCore.so.4:_ZN7QThread7cleanupEv
libQtCore.so.4:_ZN7QThread7startedEv
libQtCore.so.4:_ZN7QThread8finishedEv
libQtCore.so.4:_ZN7QThread9terminateEv
libQtCore.so.4:_ZN7QThreadC1EP7QObject
libQtCore.so.4:_ZN7QThreadC1ER14QThreadPrivateP7QObject
libQtCore.so.4:_ZN7QThreadC2EP7QObject
libQtCore.so.4:_ZN7QThreadC2ER14QThreadPrivateP7QObject
libQtCore.so.4:_ZN7QThreadD0Ev
libQtCore.so.4:_ZN7QThreadD1Ev
libQtCore.so.4:_ZN7QThreadD2Ev
libQtCore.so.4:_ZN8QLibrary11qt_metacallEN11QMetaObject4CallEiPPv
libQtCore.so.4:_ZN8QLibrary11qt_metacastEPKc
libQtCore.so.4:_ZN8QLibrary11setFileNameERK7QString
libQtCore.so.4:_ZN8QLibrary12setLoadHintsE6QFlagsINS_8LoadHintEE
libQtCore.so.4:_ZN8QLibrary21setFileNameAndVersionERK7QStringS2_
libQtCore.so.4:_ZN8QLibrary21setFileNameAndVersionERK7QStringi
libQtCore.so.4:_ZN8QLibrary4loadEv
libQtCore.so.4:_ZN8QLibrary6unloadEv
libQtCore.so.4:_ZN8QLibrary7resolveEPKc
libQtCore.so.4:_ZN8QLibrary7resolveERK7QStringPKc
libQtCore.so.4:_ZN8QLibrary7resolveERK7QStringS2_PKc
libQtCore.so.4:_ZN8QLibrary7resolveERK7QStringiPKc
libQtCore.so.4:_ZN8QLibrary9isLibraryERK7QString
libQtCore.so.4:_ZN8QLibraryC1EP7QObject
libQtCore.so.4:_ZN8QLibraryC1ERK7QStringP7QObject
libQtCore.so.4:_ZN8QLibraryC1ERK7QStringS2_P7QObject
libQtCore.so.4:_ZN8QLibraryC1ERK7QStringiP7QObject
libQtCore.so.4:_ZN8QLibraryC2EP7QObject
libQtCore.so.4:_ZN8QLibraryC2ERK7QStringP7QObject
libQtCore.so.4:_ZN8QLibraryC2ERK7QStringS2_P7QObject
libQtCore.so.4:_ZN8QLibraryC2ERK7QStringiP7QObject
libQtCore.so.4:_ZN8QLibraryD0Ev
libQtCore.so.4:_ZN8QLibraryD1Ev
libQtCore.so.4:_ZN8QLibraryD2Ev
libQtCore.so.4:_ZN8QMapData10createDataEi
libQtCore.so.4:_ZN8QMapData10createDataEv
libQtCore.so.4:_ZN8QMapData11node_createEPPNS_4NodeEi
libQtCore.so.4:_ZN8QMapData11node_createEPPNS_4NodeEii
libQtCore.so.4:_ZN8QMapData11node_deleteEPPNS_4NodeEiS1_
libQtCore.so.4:_ZN8QMapData16continueFreeDataEi
libQtCore.so.4:_ZN8QProcess11qt_metacallEN11QMetaObject4CallEiPPv
libQtCore.so.4:_ZN8QProcess11qt_metacastEPKc
libQtCore.so.4:_ZN8QProcess12stateChangedENS_12ProcessStateE
libQtCore.so.4:_ZN8QProcess13startDetachedERK7QString
libQtCore.so.4:_ZN8QProcess13startDetachedERK7QStringRK11QStringList
libQtCore.so.4:_ZN8QProcess13startDetachedERK7QStringRK11QStringListS2_Px
libQtCore.so.4:_ZN8QProcess14setEnvironmentERK11QStringList
libQtCore.so.4:_ZN8QProcess14setReadChannelENS_14ProcessChannelE
libQtCore.so.4:_ZN8QProcess14waitForStartedEi
libQtCore.so.4:_ZN8QProcess15setProcessStateENS_12ProcessStateE
libQtCore.so.4:_ZN8QProcess15waitForFinishedEi
libQtCore.so.4:_ZN8QProcess16closeReadChannelENS_14ProcessChannelE
libQtCore.so.4:_ZN8QProcess16waitForReadyReadEi
libQtCore.so.4:_ZN8QProcess17closeWriteChannelEv
libQtCore.so.4:_ZN8QProcess17setupChildProcessEv
libQtCore.so.4:_ZN8QProcess17systemEnvironmentEv
libQtCore.so.4:_ZN8QProcess18setReadChannelModeENS_18ProcessChannelModeE
libQtCore.so.4:_ZN8QProcess19setWorkingDirectoryERK7QString
libQtCore.so.4:_ZN8QProcess19waitForBytesWrittenEi
libQtCore.so.4:_ZN8QProcess20readAllStandardErrorEv
libQtCore.so.4:_ZN8QProcess20setStandardErrorFileERK7QString6QFlagsIN9QIODevice12OpenModeFlagEE
libQtCore.so.4:_ZN8QProcess20setStandardInputFileERK7QString
libQtCore.so.4:_ZN8QProcess21readAllStandardOutputEv
libQtCore.so.4:_ZN8QProcess21setProcessChannelModeENS_18ProcessChannelModeE
libQtCore.so.4:_ZN8QProcess21setProcessEnvironmentERK19QProcessEnvironment
libQtCore.so.4:_ZN8QProcess21setStandardOutputFileERK7QString6QFlagsIN9QIODevice12OpenModeFlagEE
libQtCore.so.4:_ZN8QProcess22readyReadStandardErrorEv
libQtCore.so.4:_ZN8QProcess23readyReadStandardOutputEv
libQtCore.so.4:_ZN8QProcess24setStandardOutputProcessEPS_
libQtCore.so.4:_ZN8QProcess4killEv
libQtCore.so.4:_ZN8QProcess5closeEv
libQtCore.so.4:_ZN8QProcess5errorENS_12ProcessErrorE
libQtCore.so.4:_ZN8QProcess5startERK7QString6QFlagsIN9QIODevice12OpenModeFlagEE
libQtCore.so.4:_ZN8QProcess5startERK7QStringRK11QStringList6QFlagsIN9QIODevice12OpenModeFlagEE
libQtCore.so.4:_ZN8QProcess7executeERK7QString
libQtCore.so.4:_ZN8QProcess7executeERK7QStringRK11QStringList
libQtCore.so.4:_ZN8QProcess7startedEv
libQtCore.so.4:_ZN8QProcess8finishedEi
libQtCore.so.4:_ZN8QProcess8finishedEiNS_10ExitStatusE
libQtCore.so.4:_ZN8QProcess8readDataEPcx
libQtCore.so.4:_ZN8QProcess9terminateEv
libQtCore.so.4:_ZN8QProcess9writeDataEPKcx
libQtCore.so.4:_ZN8QProcessC1EP7QObject
libQtCore.so.4:_ZN8QProcessC2EP7QObject
libQtCore.so.4:_ZN8QProcessD0Ev
libQtCore.so.4:_ZN8QProcessD1Ev
libQtCore.so.4:_ZN8QProcessD2Ev
libQtCore.so.4:_ZN8QVariant10nameToTypeEPKc
libQtCore.so.4:_ZN8QVariant10typeToNameENS_4TypeE
libQtCore.so.4:_ZN8QVariant12castOrDetachENS_4TypeE
libQtCore.so.4:_ZN8QVariant4dataEv
libQtCore.so.4:_ZN8QVariant4loadER11QDataStream
libQtCore.so.4:_ZN8QVariant5clearEv
libQtCore.so.4:_ZN8QVariant6createEiPKv
libQtCore.so.4:_ZN8QVariant6detachEv
libQtCore.so.4:_ZN8QVariant7convertENS_4TypeE
libQtCore.so.4:_ZN8QVariantC1EN2Qt11GlobalColorE
libQtCore.so.4:_ZN8QVariantC1ENS_4TypeE
libQtCore.so.4:_ZN8QVariantC1EPKc
libQtCore.so.4:_ZN8QVariantC1ER11QDataStream
libQtCore.so.4:_ZN8QVariantC1ERK10QByteArray
libQtCore.so.4:_ZN8QVariantC1ERK11QStringList
libQtCore.so.4:_ZN8QVariantC1ERK12QEasingCurve
libQtCore.so.4:_ZN8QVariantC1ERK13QLatin1String
libQtCore.so.4:_ZN8QVariantC1ERK4QMapI7QStringS_E
libQtCore.so.4:_ZN8QVariantC1ERK4QUrl
libQtCore.so.4:_ZN8QVariantC1ERK5QChar
libQtCore.so.4:_ZN8QVariantC1ERK5QDate
libQtCore.so.4:_ZN8QVariantC1ERK5QHashI7QStringS_E
libQtCore.so.4:_ZN8QVariantC1ERK5QLine
libQtCore.so.4:_ZN8QVariantC1ERK5QListIS_E
libQtCore.so.4:_ZN8QVariantC1ERK5QRect
libQtCore.so.4:_ZN8QVariantC1ERK5QSize
libQtCore.so.4:_ZN8QVariantC1ERK5QTime
libQtCore.so.4:_ZN8QVariantC1ERK6QLineF
libQtCore.so.4:_ZN8QVariantC1ERK6QPoint
libQtCore.so.4:_ZN8QVariantC1ERK6QRectF
libQtCore.so.4:_ZN8QVariantC1ERK6QSizeF
libQtCore.so.4:_ZN8QVariantC1ERK7QLocale
libQtCore.so.4:_ZN8QVariantC1ERK7QPointF
libQtCore.so.4:_ZN8QVariantC1ERK7QRegExp
libQtCore.so.4:_ZN8QVariantC1ERK7QString
libQtCore.so.4:_ZN8QVariantC1ERK9QBitArray
libQtCore.so.4:_ZN8QVariantC1ERK9QDateTime
libQtCore.so.4:_ZN8QVariantC1ERKS_
libQtCore.so.4:_ZN8QVariantC1Eb
libQtCore.so.4:_ZN8QVariantC1Ed
libQtCore.so.4:_ZN8QVariantC1Ei
libQtCore.so.4:_ZN8QVariantC1EiPKv
libQtCore.so.4:_ZN8QVariantC1EiPKvj
libQtCore.so.4:_ZN8QVariantC1Ej
libQtCore.so.4:_ZN8QVariantC1Ex
libQtCore.so.4:_ZN8QVariantC1Ey
libQtCore.so.4:_ZN8QVariantC2EN2Qt11GlobalColorE
libQtCore.so.4:_ZN8QVariantC2ENS_4TypeE
libQtCore.so.4:_ZN8QVariantC2EPKc
libQtCore.so.4:_ZN8QVariantC2ER11QDataStream
libQtCore.so.4:_ZN8QVariantC2ERK10QByteArray
libQtCore.so.4:_ZN8QVariantC2ERK11QStringList
libQtCore.so.4:_ZN8QVariantC2ERK12QEasingCurve
libQtCore.so.4:_ZN8QVariantC2ERK13QLatin1String
libQtCore.so.4:_ZN8QVariantC2ERK4QMapI7QStringS_E
libQtCore.so.4:_ZN8QVariantC2ERK4QUrl
libQtCore.so.4:_ZN8QVariantC2ERK5QChar
libQtCore.so.4:_ZN8QVariantC2ERK5QDate
libQtCore.so.4:_ZN8QVariantC2ERK5QHashI7QStringS_E
libQtCore.so.4:_ZN8QVariantC2ERK5QLine
libQtCore.so.4:_ZN8QVariantC2ERK5QListIS_E
libQtCore.so.4:_ZN8QVariantC2ERK5QRect
libQtCore.so.4:_ZN8QVariantC2ERK5QSize
libQtCore.so.4:_ZN8QVariantC2ERK5QTime
libQtCore.so.4:_ZN8QVariantC2ERK6QLineF
libQtCore.so.4:_ZN8QVariantC2ERK6QPoint
libQtCore.so.4:_ZN8QVariantC2ERK6QRectF
libQtCore.so.4:_ZN8QVariantC2ERK6QSizeF
libQtCore.so.4:_ZN8QVariantC2ERK7QLocale
libQtCore.so.4:_ZN8QVariantC2ERK7QPointF
libQtCore.so.4:_ZN8QVariantC2ERK7QRegExp
libQtCore.so.4:_ZN8QVariantC2ERK7QString
libQtCore.so.4:_ZN8QVariantC2ERK9QBitArray
libQtCore.so.4:_ZN8QVariantC2ERK9QDateTime
libQtCore.so.4:_ZN8QVariantC2ERKS_
libQtCore.so.4:_ZN8QVariantC2Eb
libQtCore.so.4:_ZN8QVariantC2Ed
libQtCore.so.4:_ZN8QVariantC2Ei
libQtCore.so.4:_ZN8QVariantC2EiPKv
libQtCore.so.4:_ZN8QVariantC2EiPKvj
libQtCore.so.4:_ZN8QVariantC2Ej
libQtCore.so.4:_ZN8QVariantC2Ex
libQtCore.so.4:_ZN8QVariantC2Ey
libQtCore.so.4:_ZN8QVariantD1Ev
libQtCore.so.4:_ZN8QVariantD2Ev
libQtCore.so.4:_ZN8QVariantaSERKS_
libQtCore.so.4:_ZN9QBitArray4fillEbii
libQtCore.so.4:_ZN9QBitArray6resizeEi
libQtCore.so.4:_ZN9QBitArrayC1Eib
libQtCore.so.4:_ZN9QBitArrayC2Eib
libQtCore.so.4:_ZN9QBitArrayaNERKS_
libQtCore.so.4:_ZN9QBitArrayeOERKS_
libQtCore.so.4:_ZN9QBitArrayoRERKS_
libQtCore.so.4:_ZN9QDateTime10fromStringERK7QStringN2Qt10DateFormatE
libQtCore.so.4:_ZN9QDateTime10fromStringERK7QStringS2_
libQtCore.so.4:_ZN9QDateTime10fromTime_tEj
libQtCore.so.4:_ZN9QDateTime11setTimeSpecEN2Qt8TimeSpecE
libQtCore.so.4:_ZN9QDateTime12setUtcOffsetEi
libQtCore.so.4:_ZN9QDateTime15currentDateTimeEv
libQtCore.so.4:_ZN9QDateTime18currentDateTimeUtcEv
libQtCore.so.4:_ZN9QDateTime18setMSecsSinceEpochEx
libQtCore.so.4:_ZN9QDateTime19fromMSecsSinceEpochEx
libQtCore.so.4:_ZN9QDateTime22currentMSecsSinceEpochEv
libQtCore.so.4:_ZN9QDateTime6detachEv
libQtCore.so.4:_ZN9QDateTime7setDateERK5QDate
libQtCore.so.4:_ZN9QDateTime7setTimeERK5QTime
libQtCore.so.4:_ZN9QDateTime9setTime_tEj
libQtCore.so.4:_ZN9QDateTimeC1ERK5QDate
libQtCore.so.4:_ZN9QDateTimeC1ERK5QDateRK5QTimeN2Qt8TimeSpecE
libQtCore.so.4:_ZN9QDateTimeC1ERKS_
libQtCore.so.4:_ZN9QDateTimeC1Ev
libQtCore.so.4:_ZN9QDateTimeC2ERK5QDate
libQtCore.so.4:_ZN9QDateTimeC2ERK5QDateRK5QTimeN2Qt8TimeSpecE
libQtCore.so.4:_ZN9QDateTimeC2ERKS_
libQtCore.so.4:_ZN9QDateTimeC2Ev
libQtCore.so.4:_ZN9QDateTimeD1Ev
libQtCore.so.4:_ZN9QDateTimeD2Ev
libQtCore.so.4:_ZN9QDateTimeaSERKS_
libQtCore.so.4:_ZN9QFileInfo10setCachingEb
libQtCore.so.4:_ZN9QFileInfo12makeAbsoluteEv
libQtCore.so.4:_ZN9QFileInfo6detachEv
libQtCore.so.4:_ZN9QFileInfo7refreshEv
libQtCore.so.4:_ZN9QFileInfo7setFileERK4QDirRK7QString
libQtCore.so.4:_ZN9QFileInfo7setFileERK5QFile
libQtCore.so.4:_ZN9QFileInfo7setFileERK7QString
libQtCore.so.4:_ZN9QFileInfoC1EP16QFileInfoPrivate
libQtCore.so.4:_ZN9QFileInfoC1ERK4QDirRK7QString
libQtCore.so.4:_ZN9QFileInfoC1ERK5QFile
libQtCore.so.4:_ZN9QFileInfoC1ERK7QString
libQtCore.so.4:_ZN9QFileInfoC1ERKS_
libQtCore.so.4:_ZN9QFileInfoC1Ev
libQtCore.so.4:_ZN9QFileInfoC2EP16QFileInfoPrivate
libQtCore.so.4:_ZN9QFileInfoC2ERK4QDirRK7QString
libQtCore.so.4:_ZN9QFileInfoC2ERK5QFile
libQtCore.so.4:_ZN9QFileInfoC2ERK7QString
libQtCore.so.4:_ZN9QFileInfoC2ERKS_
libQtCore.so.4:_ZN9QFileInfoC2Ev
libQtCore.so.4:_ZN9QFileInfoD1Ev
libQtCore.so.4:_ZN9QFileInfoD2Ev
libQtCore.so.4:_ZN9QFileInfoaSERKS_
libQtCore.so.4:_ZN9QFileInfoeqERKS_
libQtCore.so.4:_ZN9QHashData11free_helperEPFvPNS_4NodeEE
libQtCore.so.4:_ZN9QHashData12allocateNodeEi
libQtCore.so.4:_ZN9QHashData12allocateNodeEv
libQtCore.so.4:_ZN9QHashData12previousNodeEPNS_4NodeE
libQtCore.so.4:_ZN9QHashData13detach_helperEPFvPNS_4NodeEPvEi
libQtCore.so.4:_ZN9QHashData14destroyAndFreeEv
libQtCore.so.4:_ZN9QHashData14detach_helper2EPFvPNS_4NodeEPvEPFvS1_Eii
libQtCore.so.4:_ZN9QHashData6rehashEi
libQtCore.so.4:_ZN9QHashData8freeNodeEPv
libQtCore.so.4:_ZN9QHashData8nextNodeEPNS_4NodeE
libQtCore.so.4:_ZN9QIODevice11qt_metacallEN11QMetaObject4CallEiPPv
libQtCore.so.4:_ZN9QIODevice11qt_metacastEPKc
libQtCore.so.4:_ZN9QIODevice11resetStatusEv
libQtCore.so.4:_ZN9QIODevice11setOpenModeE6QFlagsINS_12OpenModeFlagEE
libQtCore.so.4:_ZN9QIODevice12aboutToCloseEv
libQtCore.so.4:_ZN9QIODevice12bytesWrittenEx
libQtCore.so.4:_ZN9QIODevice12readLineDataEPcx
libQtCore.so.4:_ZN9QIODevice14setErrorStringERK7QString
libQtCore.so.4:_ZN9QIODevice16waitForReadyReadEi
libQtCore.so.4:_ZN9QIODevice18setTextModeEnabledEb
libQtCore.so.4:_ZN9QIODevice19readChannelFinishedEv
libQtCore.so.4:_ZN9QIODevice19waitForBytesWrittenEi
libQtCore.so.4:_ZN9QIODevice4openE6QFlagsINS_12OpenModeFlagEE
libQtCore.so.4:_ZN9QIODevice4peekEPcx
libQtCore.so.4:_ZN9QIODevice4peekEx
libQtCore.so.4:_ZN9QIODevice4readEPcx
libQtCore.so.4:_ZN9QIODevice4readEx
libQtCore.so.4:_ZN9QIODevice4seekEx
libQtCore.so.4:_ZN9QIODevice5closeEv
libQtCore.so.4:_ZN9QIODevice5resetEv
libQtCore.so.4:_ZN9QIODevice5writeEPKc
libQtCore.so.4:_ZN9QIODevice5writeEPKcx
libQtCore.so.4:_ZN9QIODevice7getCharEPc
libQtCore.so.4:_ZN9QIODevice7putCharEc
libQtCore.so.4:_ZN9QIODevice7readAllEv
libQtCore.so.4:_ZN9QIODevice8readLineEPcx
libQtCore.so.4:_ZN9QIODevice8readLineEx
libQtCore.so.4:_ZN9QIODevice9readyReadEv
libQtCore.so.4:_ZN9QIODevice9ungetCharEc
libQtCore.so.4:_ZN9QIODeviceC1EP7QObject
libQtCore.so.4:_ZN9QIODeviceC1ER16QIODevicePrivateP7QObject
libQtCore.so.4:_ZN9QIODeviceC1Ev
libQtCore.so.4:_ZN9QIODeviceC2EP7QObject
libQtCore.so.4:_ZN9QIODeviceC2ER16QIODevicePrivateP7QObject
libQtCore.so.4:_ZN9QIODeviceC2Ev
libQtCore.so.4:_ZN9QIODeviceD0Ev
libQtCore.so.4:_ZN9QIODeviceD1Ev
libQtCore.so.4:_ZN9QIODeviceD2Ev
libQtCore.so.4:_ZN9QInternal12callFunctionENS_16InternalFunctionEPPv
libQtCore.so.4:_ZN9QInternal16registerCallbackENS_8CallbackEPFbPPvE
libQtCore.so.4:_ZN9QInternal17activateCallbacksENS_8CallbackEPPv
libQtCore.so.4:_ZN9QInternal18unregisterCallbackENS_8CallbackEPFbPPvE
libQtCore.so.4:_ZN9QListData11detach_growEPii
libQtCore.so.4:_ZN9QListData4moveEii
libQtCore.so.4:_ZN9QListData5eraseEPPv
libQtCore.so.4:_ZN9QListData6appendERKS_
libQtCore.so.4:_ZN9QListData6appendEi
libQtCore.so.4:_ZN9QListData6appendEv
libQtCore.so.4:_ZN9QListData6detachEi
libQtCore.so.4:_ZN9QListData6detachEv
libQtCore.so.4:_ZN9QListData6insertEi
libQtCore.so.4:_ZN9QListData6removeEi
libQtCore.so.4:_ZN9QListData6removeEii
libQtCore.so.4:_ZN9QListData7append2ERKS_
libQtCore.so.4:_ZN9QListData7detach2Ev
libQtCore.so.4:_ZN9QListData7detach3Ev
libQtCore.so.4:_ZN9QListData7prependEv
libQtCore.so.4:_ZN9QListData7reallocEi
libQtCore.so.4:_ZN9QMetaType12isRegisteredEi
libQtCore.so.4:_ZN9QMetaType12registerTypeEPKcPFvPvEPFS2_PKvE
libQtCore.so.4:_ZN9QMetaType14unregisterTypeEPKc
libQtCore.so.4:_ZN9QMetaType15registerTypedefEPKci
libQtCore.so.4:_ZN9QMetaType23registerStreamOperatorsEPKcPFvR11QDataStreamPKvEPFvS3_PvE
libQtCore.so.4:_ZN9QMetaType23registerStreamOperatorsEiPFvR11QDataStreamPKvEPFvS1_PvE
libQtCore.so.4:_ZN9QMetaType4loadER11QDataStreamiPv
libQtCore.so.4:_ZN9QMetaType4saveER11QDataStreamiPKv
libQtCore.so.4:_ZN9QMetaType4typeEPKc
libQtCore.so.4:_ZN9QMetaType7destroyEiPv
libQtCore.so.4:_ZN9QMetaType8typeNameEi
libQtCore.so.4:_ZN9QMetaType9constructEiPKv
libQtCore.so.4:_ZN9QMimeData11qt_metacallEN11QMetaObject4CallEiPPv
libQtCore.so.4:_ZN9QMimeData11qt_metacastEPKc
libQtCore.so.4:_ZN9QMimeData12removeFormatERK7QString
libQtCore.so.4:_ZN9QMimeData12setColorDataERK8QVariant
libQtCore.so.4:_ZN9QMimeData12setImageDataERK8QVariant
libQtCore.so.4:_ZN9QMimeData5clearEv
libQtCore.so.4:_ZN9QMimeData7setDataERK7QStringRK10QByteArray
libQtCore.so.4:_ZN9QMimeData7setHtmlERK7QString
libQtCore.so.4:_ZN9QMimeData7setTextERK7QString
libQtCore.so.4:_ZN9QMimeData7setUrlsERK5QListI4QUrlE
libQtCore.so.4:_ZN9QMimeDataC1Ev
libQtCore.so.4:_ZN9QMimeDataC2Ev
libQtCore.so.4:_ZN9QMimeDataD0Ev
libQtCore.so.4:_ZN9QMimeDataD1Ev
libQtCore.so.4:_ZN9QMimeDataD2Ev
libQtCore.so.4:_ZN9QResource11searchPathsEv
libQtCore.so.4:_ZN9QResource11setFileNameERK7QString
libQtCore.so.4:_ZN9QResource13addSearchPathERK7QString
libQtCore.so.4:_ZN9QResource16registerResourceEPKhRK7QString
libQtCore.so.4:_ZN9QResource16registerResourceERK7QStringS2_
libQtCore.so.4:_ZN9QResource18unregisterResourceEPKhRK7QString
libQtCore.so.4:_ZN9QResource18unregisterResourceERK7QStringS2_
libQtCore.so.4:_ZN9QResource9setLocaleERK7QLocale
libQtCore.so.4:_ZN9QResourceC1ERK7QStringRK7QLocale
libQtCore.so.4:_ZN9QResourceC2ERK7QStringRK7QLocale
libQtCore.so.4:_ZN9QResourceD1Ev
libQtCore.so.4:_ZN9QResourceD2Ev
libQtCore.so.4:_ZN9QSettings10beginGroupERK7QString
libQtCore.so.4:_ZN9QSettings11qt_metacallEN11QMetaObject4CallEiPPv
libQtCore.so.4:_ZN9QSettings11qt_metacastEPKc
libQtCore.so.4:_ZN9QSettings11setIniCodecEP10QTextCodec
libQtCore.so.4:_ZN9QSettings11setIniCodecEPKc
libQtCore.so.4:_ZN9QSettings13defaultFormatEv
libQtCore.so.4:_ZN9QSettings13setArrayIndexEi
libQtCore.so.4:_ZN9QSettings14beginReadArrayERK7QString
libQtCore.so.4:_ZN9QSettings14registerFormatERK7QStringPFbR9QIODeviceR4QMapIS0_8QVariantEEPFbS4_RKS7_EN2Qt15CaseSensitivityE
libQtCore.so.4:_ZN9QSettings14setPath_helperENS_5ScopeERK7QStringS3_
libQtCore.so.4:_ZN9QSettings14setUserIniPathERK7QString
libQtCore.so.4:_ZN9QSettings15beginWriteArrayERK7QStringi
libQtCore.so.4:_ZN9QSettings16setDefaultFormatENS_6FormatE
libQtCore.so.4:_ZN9QSettings16setSystemIniPathERK7QString
libQtCore.so.4:_ZN9QSettings19setFallbacksEnabledEb
libQtCore.so.4:_ZN9QSettings4syncEv
libQtCore.so.4:_ZN9QSettings5clearEv
libQtCore.so.4:_ZN9QSettings5eventEP6QEvent
libQtCore.so.4:_ZN9QSettings6removeERK7QString
libQtCore.so.4:_ZN9QSettings7setPathENS_6FormatENS_5ScopeERK7QString
libQtCore.so.4:_ZN9QSettings8endArrayEv
libQtCore.so.4:_ZN9QSettings8endGroupEv
libQtCore.so.4:_ZN9QSettings8setValueERK7QStringRK8QVariant
libQtCore.so.4:_ZN9QSettingsC1ENS_5ScopeERK7QStringS3_P7QObject
libQtCore.so.4:_ZN9QSettingsC1ENS_6FormatENS_5ScopeERK7QStringS4_P7QObject
libQtCore.so.4:_ZN9QSettingsC1EP7QObject
libQtCore.so.4:_ZN9QSettingsC1ERK7QStringNS_6FormatEP7QObject
libQtCore.so.4:_ZN9QSettingsC1ERK7QStringS2_P7QObject
libQtCore.so.4:_ZN9QSettingsC2ENS_5ScopeERK7QStringS3_P7QObject
libQtCore.so.4:_ZN9QSettingsC2ENS_6FormatENS_5ScopeERK7QStringS4_P7QObject
libQtCore.so.4:_ZN9QSettingsC2EP7QObject
libQtCore.so.4:_ZN9QSettingsC2ERK7QStringNS_6FormatEP7QObject
libQtCore.so.4:_ZN9QSettingsC2ERK7QStringS2_P7QObject
libQtCore.so.4:_ZN9QSettingsD0Ev
libQtCore.so.4:_ZN9QSettingsD1Ev
libQtCore.so.4:_ZN9QSettingsD2Ev
libQtCore.so.4:_ZN9QTimeLine10timerEventEP11QTimerEvent
libQtCore.so.4:_ZN9QTimeLine11qt_metacallEN11QMetaObject4CallEiPPv
libQtCore.so.4:_ZN9QTimeLine11qt_metacastEPKc
libQtCore.so.4:_ZN9QTimeLine11setDurationEi
libQtCore.so.4:_ZN9QTimeLine11setEndFrameEi
libQtCore.so.4:_ZN9QTimeLine12frameChangedEi
libQtCore.so.4:_ZN9QTimeLine12setDirectionENS_9DirectionE
libQtCore.so.4:_ZN9QTimeLine12setLoopCountEi
libQtCore.so.4:_ZN9QTimeLine12stateChangedENS_5StateE
libQtCore.so.4:_ZN9QTimeLine12valueChangedEd
libQtCore.so.4:_ZN9QTimeLine13setCurveShapeENS_10CurveShapeE
libQtCore.so.4:_ZN9QTimeLine13setFrameRangeEii
libQtCore.so.4:_ZN9QTimeLine13setStartFrameEi
libQtCore.so.4:_ZN9QTimeLine14setCurrentTimeEi
libQtCore.so.4:_ZN9QTimeLine14setEasingCurveERK12QEasingCurve
libQtCore.so.4:_ZN9QTimeLine15toggleDirectionEv
libQtCore.so.4:_ZN9QTimeLine17setUpdateIntervalEi
libQtCore.so.4:_ZN9QTimeLine4stopEv
libQtCore.so.4:_ZN9QTimeLine5startEv
libQtCore.so.4:_ZN9QTimeLine6resumeEv
libQtCore.so.4:_ZN9QTimeLine8finishedEv
libQtCore.so.4:_ZN9QTimeLine9setPausedEb
libQtCore.so.4:_ZN9QTimeLineC1EiP7QObject
libQtCore.so.4:_ZN9QTimeLineC2EiP7QObject
libQtCore.so.4:_ZN9QTimeLineD0Ev
libQtCore.so.4:_ZN9QTimeLineD1Ev
libQtCore.so.4:_ZN9QTimeLineD2Ev
libQtCore.so.4:_ZN9QXmlUtils10isBaseCharE5QChar
libQtCore.so.4:_ZN9QXmlUtils10isExtenderE5QChar
libQtCore.so.4:_ZN9QXmlUtils10isNameCharE5QChar
libQtCore.so.4:_ZN9QXmlUtils10isPublicIDERK7QString
libQtCore.so.4:_ZN9QXmlUtils13isIdeographicE5QChar
libQtCore.so.4:_ZN9QXmlUtils13rangeContainsEPK13QXmlCharRangeS2_5QChar
libQtCore.so.4:_ZN9QXmlUtils15isCombiningCharE5QChar
libQtCore.so.4:_ZN9QXmlUtils6isCharE5QChar
libQtCore.so.4:_ZN9QXmlUtils7isDigitE5QChar
libQtCore.so.4:_ZN9QXmlUtils8isLetterE5QChar
libQtCore.so.4:_ZN9QXmlUtils8isNCNameERK10QStringRef
libQtCore.so.4:_ZN9QXmlUtils9isEncNameERK7QString
libQtCore.so.4:_ZN9QtPrivate16QStringList_joinEPK11QStringListRK7QString
libQtCore.so.4:_ZN9QtPrivate16QStringList_sortEP11QStringList
libQtCore.so.4:_ZN9QtPrivate18QStringList_filterEPK11QStringListRK7QRegExp
libQtCore.so.4:_ZN9QtPrivate18QStringList_filterEPK11QStringListRK7QStringN2Qt15CaseSensitivityE
libQtCore.so.4:_ZN9QtPrivate19QStringList_indexOfEPK11QStringListR7QRegExpi
libQtCore.so.4:_ZN9QtPrivate19QStringList_indexOfEPK11QStringListRK7QRegExpi
libQtCore.so.4:_ZN9QtPrivate20QStringList_containsEPK11QStringListRK7QStringN2Qt15CaseSensitivityE
libQtCore.so.4:_ZN9QtPrivate23QStringList_lastIndexOfEPK11QStringListR7QRegExpi
libQtCore.so.4:_ZN9QtPrivate23QStringList_lastIndexOfEPK11QStringListRK7QRegExpi
libQtCore.so.4:_ZN9QtPrivate28QStringList_removeDuplicatesEP11QStringList
libQtCore.so.4:_ZN9QtPrivate28QStringList_replaceInStringsEP11QStringListRK7QRegExpRK7QString
libQtCore.so.4:_ZN9QtPrivate28QStringList_replaceInStringsEP11QStringListRK7QStringS4_N2Qt15CaseSensitivityE
libQtCore.so.4:_ZNK10QByteArray10simplifiedEv
libQtCore.so.4:_ZNK10QByteArray10startsWithEPKc
libQtCore.so.4:_ZNK10QByteArray10startsWithERKS_
libQtCore.so.4:_ZNK10QByteArray10startsWithEc
libQtCore.so.4:_ZNK10QByteArray10toLongLongEPbi
libQtCore.so.4:_ZNK10QByteArray11lastIndexOfEPKci
libQtCore.so.4:_ZNK10QByteArray11lastIndexOfERKS_i
libQtCore.so.4:_ZNK10QByteArray11lastIndexOfEci
libQtCore.so.4:_ZNK10QByteArray11toULongLongEPbi
libQtCore.so.4:_ZNK10QByteArray13leftJustifiedEicb
libQtCore.so.4:_ZNK10QByteArray13nulTerminatedEv
libQtCore.so.4:_ZNK10QByteArray14rightJustifiedEicb
libQtCore.so.4:_ZNK10QByteArray17toPercentEncodingERKS_S1_c
libQtCore.so.4:_ZNK10QByteArray3midEii
libQtCore.so.4:_ZNK10QByteArray4leftEi
libQtCore.so.4:_ZNK10QByteArray5countEPKc
libQtCore.so.4:_ZNK10QByteArray5countERKS_
libQtCore.so.4:_ZNK10QByteArray5countEc
libQtCore.so.4:_ZNK10QByteArray5rightEi
libQtCore.so.4:_ZNK10QByteArray5splitEc
libQtCore.so.4:_ZNK10QByteArray5toHexEv
libQtCore.so.4:_ZNK10QByteArray5toIntEPbi
libQtCore.so.4:_ZNK10QByteArray6isNullEv
libQtCore.so.4:_ZNK10QByteArray6toLongEPbi
libQtCore.so.4:_ZNK10QByteArray6toUIntEPbi
libQtCore.so.4:_ZNK10QByteArray7indexOfEPKci
libQtCore.so.4:_ZNK10QByteArray7indexOfERKS_i
libQtCore.so.4:_ZNK10QByteArray7indexOfEci
libQtCore.so.4:_ZNK10QByteArray7toFloatEPb
libQtCore.so.4:_ZNK10QByteArray7toLowerEv
libQtCore.so.4:_ZNK10QByteArray7toShortEPbi
libQtCore.so.4:_ZNK10QByteArray7toULongEPbi
libQtCore.so.4:_ZNK10QByteArray7toUpperEv
libQtCore.so.4:_ZNK10QByteArray7trimmedEv
libQtCore.so.4:_ZNK10QByteArray8endsWithEPKc
libQtCore.so.4:_ZNK10QByteArray8endsWithERKS_
libQtCore.so.4:_ZNK10QByteArray8endsWithEc
libQtCore.so.4:_ZNK10QByteArray8repeatedEi
libQtCore.so.4:_ZNK10QByteArray8toBase64Ev
libQtCore.so.4:_ZNK10QByteArray8toDoubleEPb
libQtCore.so.4:_ZNK10QByteArray8toUShortEPbi
libQtCore.so.4:_ZNK10QEventLoop10metaObjectEv
libQtCore.so.4:_ZNK10QEventLoop9isRunningEv
libQtCore.so.4:_ZNK10QSemaphore9availableEv
libQtCore.so.4:_ZNK10QStringRef10startsWithE13QLatin1StringN2Qt15CaseSensitivityE
libQtCore.so.4:_ZNK10QStringRef10startsWithE5QCharN2Qt15CaseSensitivityE
libQtCore.so.4:_ZNK10QStringRef10startsWithERK7QStringN2Qt15CaseSensitivityE
libQtCore.so.4:_ZNK10QStringRef10startsWithERKS_N2Qt15CaseSensitivityE
libQtCore.so.4:_ZNK10QStringRef11lastIndexOfE13QLatin1StringiN2Qt15CaseSensitivityE
libQtCore.so.4:_ZNK10QStringRef11lastIndexOfE5QChariN2Qt15CaseSensitivityE
libQtCore.so.4:_ZNK10QStringRef11lastIndexOfERK7QStringiN2Qt15CaseSensitivityE
libQtCore.so.4:_ZNK10QStringRef11lastIndexOfERKS_iN2Qt15CaseSensitivityE
libQtCore.so.4:_ZNK10QStringRef11toLocal8BitEv
libQtCore.so.4:_ZNK10QStringRef5countE5QCharN2Qt15CaseSensitivityE
libQtCore.so.4:_ZNK10QStringRef5countERK7QStringN2Qt15CaseSensitivityE
libQtCore.so.4:_ZNK10QStringRef5countERKS_N2Qt15CaseSensitivityE
libQtCore.so.4:_ZNK10QStringRef6toUcs4Ev
libQtCore.so.4:_ZNK10QStringRef6toUtf8Ev
libQtCore.so.4:_ZNK10QStringRef7indexOfE13QLatin1StringiN2Qt15CaseSensitivityE
libQtCore.so.4:_ZNK10QStringRef7indexOfE5QChariN2Qt15CaseSensitivityE
libQtCore.so.4:_ZNK10QStringRef7indexOfERK7QStringiN2Qt15CaseSensitivityE
libQtCore.so.4:_ZNK10QStringRef7indexOfERKS_iN2Qt15CaseSensitivityE
libQtCore.so.4:_ZNK10QStringRef7toAsciiEv
libQtCore.so.4:_ZNK10QStringRef8appendToEP7QString
libQtCore.so.4:_ZNK10QStringRef8endsWithE13QLatin1StringN2Qt15CaseSensitivityE
libQtCore.so.4:_ZNK10QStringRef8endsWithE5QCharN2Qt15CaseSensitivityE
libQtCore.so.4:_ZNK10QStringRef8endsWithERK7QStringN2Qt15CaseSensitivityE
libQtCore.so.4:_ZNK10QStringRef8endsWithERKS_N2Qt15CaseSensitivityE
libQtCore.so.4:_ZNK10QStringRef8toLatin1Ev
libQtCore.so.4:_ZNK10QStringRef8toStringEv
libQtCore.so.4:_ZNK10QTextCodec11fromUnicodeERK7QString
libQtCore.so.4:_ZNK10QTextCodec11fromUnicodeERK7QStringRi
libQtCore.so.4:_ZNK10QTextCodec11makeDecoderE6QFlagsINS_14ConversionFlagEE
libQtCore.so.4:_ZNK10QTextCodec11makeDecoderEv
libQtCore.so.4:_ZNK10QTextCodec11makeEncoderE6QFlagsINS_14ConversionFlagEE
libQtCore.so.4:_ZNK10QTextCodec11makeEncoderEv
libQtCore.so.4:_ZNK10QTextCodec7aliasesEv
libQtCore.so.4:_ZNK10QTextCodec9canEncodeE5QChar
libQtCore.so.4:_ZNK10QTextCodec9canEncodeERK7QString
libQtCore.so.4:_ZNK10QTextCodec9toUnicodeEPKc
libQtCore.so.4:_ZNK10QTextCodec9toUnicodeERK10QByteArray
libQtCore.so.4:_ZNK10QTextCodec9toUnicodeERK10QByteArrayi
libQtCore.so.4:_ZNK11QDataStream22floatingPointPrecisionEv
libQtCore.so.4:_ZNK11QDataStream5atEndEv
libQtCore.so.4:_ZNK11QDataStream6statusEv
libQtCore.so.4:_ZNK11QFinalState10metaObjectEv
libQtCore.so.4:_ZNK11QMetaMethod10attributesEv
libQtCore.so.4:_ZNK11QMetaMethod10methodTypeEv
libQtCore.so.4:_ZNK11QMetaMethod11methodIndexEv
libQtCore.so.4:_ZNK11QMetaMethod14parameterNamesEv
libQtCore.so.4:_ZNK11QMetaMethod14parameterTypesEv
libQtCore.so.4:_ZNK11QMetaMethod3tagEv
libQtCore.so.4:_ZNK11QMetaMethod6accessEv
libQtCore.so.4:_ZNK11QMetaMethod6invokeEP7QObjectN2Qt14ConnectionTypeE22QGenericReturnArgument16QGenericArgumentS5_S5_S5_S5_S5_S5_S5_S5_S5_
libQtCore.so.4:_ZNK11QMetaMethod8revisionEv
libQtCore.so.4:_ZNK11QMetaMethod8typeNameEv
libQtCore.so.4:_ZNK11QMetaMethod9signatureEv
libQtCore.so.4:_ZNK11QMetaObject10enumeratorEi
libQtCore.so.4:_ZNK11QMetaObject11constructorEi
libQtCore.so.4:_ZNK11QMetaObject11indexOfSlotEPKc
libQtCore.so.4:_ZNK11QMetaObject11methodCountEv
libQtCore.so.4:_ZNK11QMetaObject11newInstanceE16QGenericArgumentS0_S0_S0_S0_S0_S0_S0_S0_S0_
libQtCore.so.4:_ZNK11QMetaObject12methodOffsetEv
libQtCore.so.4:_ZNK11QMetaObject12userPropertyEv
libQtCore.so.4:_ZNK11QMetaObject13indexOfMethodEPKc
libQtCore.so.4:_ZNK11QMetaObject13indexOfSignalEPKc
libQtCore.so.4:_ZNK11QMetaObject13propertyCountEv
libQtCore.so.4:_ZNK11QMetaObject14classInfoCountEv
libQtCore.so.4:_ZNK11QMetaObject14propertyOffsetEv
libQtCore.so.4:_ZNK11QMetaObject15classInfoOffsetEv
libQtCore.so.4:_ZNK11QMetaObject15enumeratorCountEv
libQtCore.so.4:_ZNK11QMetaObject15indexOfPropertyEPKc
libQtCore.so.4:_ZNK11QMetaObject15static_metacallENS_4CallEiPPv
libQtCore.so.4:_ZNK11QMetaObject16constructorCountEv
libQtCore.so.4:_ZNK11QMetaObject16enumeratorOffsetEv
libQtCore.so.4:_ZNK11QMetaObject16indexOfClassInfoEPKc
libQtCore.so.4:_ZNK11QMetaObject17indexOfEnumeratorEPKc
libQtCore.so.4:_ZNK11QMetaObject18indexOfConstructorEPKc
libQtCore.so.4:_ZNK11QMetaObject2trEPKcS1_
libQtCore.so.4:_ZNK11QMetaObject2trEPKcS1_i
libQtCore.so.4:_ZNK11QMetaObject4castEP7QObject
libQtCore.so.4:_ZNK11QMetaObject4castEPK7QObject
libQtCore.so.4:_ZNK11QMetaObject6methodEi
libQtCore.so.4:_ZNK11QMetaObject6trUtf8EPKcS1_
libQtCore.so.4:_ZNK11QMetaObject6trUtf8EPKcS1_i
libQtCore.so.4:_ZNK11QMetaObject8propertyEi
libQtCore.so.4:_ZNK11QMetaObject9classInfoEi
libQtCore.so.4:_ZNK11QTextStream10fieldWidthEv
libQtCore.so.4:_ZNK11QTextStream11integerBaseEv
libQtCore.so.4:_ZNK11QTextStream11numberFlagsEv
libQtCore.so.4:_ZNK11QTextStream13flagsInternalEv
libQtCore.so.4:_ZNK11QTextStream14fieldAlignmentEv
libQtCore.so.4:_ZNK11QTextStream17autoDetectUnicodeEv
libQtCore.so.4:_ZNK11QTextStream18realNumberNotationEv
libQtCore.so.4:_ZNK11QTextStream19realNumberPrecisionEv
libQtCore.so.4:_ZNK11QTextStream21generateByteOrderMarkEv
libQtCore.so.4:_ZNK11QTextStream3posEv
libQtCore.so.4:_ZNK11QTextStream5atEndEv
libQtCore.so.4:_ZNK11QTextStream5codecEv
libQtCore.so.4:_ZNK11QTextStream6deviceEv
libQtCore.so.4:_ZNK11QTextStream6localeEv
libQtCore.so.4:_ZNK11QTextStream6statusEv
libQtCore.so.4:_ZNK11QTextStream6stringEv
libQtCore.so.4:_ZNK11QTextStream7padCharEv
libQtCore.so.4:_ZNK11QThreadPool10metaObjectEv
libQtCore.so.4:_ZNK11QThreadPool13expiryTimeoutEv
libQtCore.so.4:_ZNK11QThreadPool14maxThreadCountEv
libQtCore.so.4:_ZNK11QThreadPool17activeThreadCountEv
libQtCore.so.4:_ZNK11QTranslator10metaObjectEv
libQtCore.so.4:_ZNK11QTranslator7isEmptyEv
libQtCore.so.4:_ZNK11QTranslator9translateEPKcS1_S1_
libQtCore.so.4:_ZNK11QTranslator9translateEPKcS1_S1_i
libQtCore.so.4:_ZNK12QDirIterator4pathEv
libQtCore.so.4:_ZNK12QDirIterator7hasNextEv
libQtCore.so.4:_ZNK12QDirIterator8fileInfoEv
libQtCore.so.4:_ZNK12QDirIterator8fileNameEv
libQtCore.so.4:_ZNK12QDirIterator8filePathEv
libQtCore.so.4:_ZNK12QEasingCurve10customTypeEv
libQtCore.so.4:_ZNK12QEasingCurve16valueForProgressEd
libQtCore.so.4:_ZNK12QEasingCurve4typeEv
libQtCore.so.4:_ZNK12QEasingCurve6periodEv
libQtCore.so.4:_ZNK12QEasingCurve9amplitudeEv
libQtCore.so.4:_ZNK12QEasingCurve9overshootEv
libQtCore.so.4:_ZNK12QEasingCurveeqERKS_
libQtCore.so.4:_ZNK12QTextDecoder10hasFailureEv
libQtCore.so.4:_ZNK12QTextEncoder10hasFailureEv
libQtCore.so.4:_ZNK12QtConcurrent15ResultStoreBase10filterModeEv
libQtCore.so.4:_ZNK12QtConcurrent15ResultStoreBase13hasNextResultEv
libQtCore.so.4:_ZNK12QtConcurrent15ResultStoreBase3endEv
libQtCore.so.4:_ZNK12QtConcurrent15ResultStoreBase5beginEv
libQtCore.so.4:_ZNK12QtConcurrent15ResultStoreBase5countEv
libQtCore.so.4:_ZNK12QtConcurrent15ResultStoreBase8containsEi
libQtCore.so.4:_ZNK12QtConcurrent15ResultStoreBase8resultAtEi
libQtCore.so.4:_ZNK12QtConcurrent18ResultIteratorBase11resultIndexEv
libQtCore.so.4:_ZNK12QtConcurrent18ResultIteratorBase11vectorIndexEv
libQtCore.so.4:_ZNK12QtConcurrent18ResultIteratorBase23canIncrementVectorIndexEv
libQtCore.so.4:_ZNK12QtConcurrent18ResultIteratorBase8isVectorEv
libQtCore.so.4:_ZNK12QtConcurrent18ResultIteratorBase9batchSizeEv
libQtCore.so.4:_ZNK12QtConcurrent18ResultIteratorBaseeqERKS0_
libQtCore.so.4:_ZNK12QtConcurrent18ResultIteratorBaseneERKS0_
libQtCore.so.4:_ZNK12QtConcurrent18UnhandledException5cloneEv
libQtCore.so.4:_ZNK12QtConcurrent18UnhandledException5raiseEv
libQtCore.so.4:_ZNK12QtConcurrent8internal14ExceptionStore12hasExceptionEv
libQtCore.so.4:_ZNK12QtConcurrent8internal14ExceptionStore9hasThrownEv
libQtCore.so.4:_ZNK12QtConcurrent9Exception5cloneEv
libQtCore.so.4:_ZNK12QtConcurrent9Exception5raiseEv
libQtCore.so.4:_ZNK13QElapsedTimer10hasExpiredEx
libQtCore.so.4:_ZNK13QElapsedTimer12nsecsElapsedEv
libQtCore.so.4:_ZNK13QElapsedTimer19msecsSinceReferenceEv
libQtCore.so.4:_ZNK13QElapsedTimer6secsToERKS_
libQtCore.so.4:_ZNK13QElapsedTimer7elapsedEv
libQtCore.so.4:_ZNK13QElapsedTimer7isValidEv
libQtCore.so.4:_ZNK13QElapsedTimer7msecsToERKS_
libQtCore.so.4:_ZNK13QFSFileEngine12isSequentialEv
libQtCore.so.4:_ZNK13QFSFileEngine13caseSensitiveEv
libQtCore.so.4:_ZNK13QFSFileEngine14isRelativePathEv
libQtCore.so.4:_ZNK13QFSFileEngine17supportsExtensionEN19QAbstractFileEngine9ExtensionE
libQtCore.so.4:_ZNK13QFSFileEngine3posEv
libQtCore.so.4:_ZNK13QFSFileEngine4sizeEv
libQtCore.so.4:_ZNK13QFSFileEngine5mkdirERK7QStringb
libQtCore.so.4:_ZNK13QFSFileEngine5ownerEN19QAbstractFileEngine9FileOwnerE
libQtCore.so.4:_ZNK13QFSFileEngine5rmdirERK7QStringb
libQtCore.so.4:_ZNK13QFSFileEngine6handleEv
libQtCore.so.4:_ZNK13QFSFileEngine7ownerIdEN19QAbstractFileEngine9FileOwnerE
libQtCore.so.4:_ZNK13QFSFileEngine8fileNameEN19QAbstractFileEngine8FileNameE
libQtCore.so.4:_ZNK13QFSFileEngine8fileTimeEN19QAbstractFileEngine8FileTimeE
libQtCore.so.4:_ZNK13QFSFileEngine9entryListE6QFlagsIN4QDir6FilterEERK11QStringList
libQtCore.so.4:_ZNK13QFSFileEngine9fileFlagsE6QFlagsIN19QAbstractFileEngine8FileFlagEE
libQtCore.so.4:_ZNK13QFontLaoCodec16convertToUnicodeEPKciPN10QTextCodec14ConverterStateE
libQtCore.so.4:_ZNK13QFontLaoCodec18convertFromUnicodeEPK5QChariPN10QTextCodec14ConverterStateE
libQtCore.so.4:_ZNK13QFontLaoCodec4nameEv
libQtCore.so.4:_ZNK13QFontLaoCodec7mibEnumEv
libQtCore.so.4:_ZNK13QHistoryState10metaObjectEv
libQtCore.so.4:_ZNK13QHistoryState11historyTypeEv
libQtCore.so.4:_ZNK13QHistoryState12defaultStateEv
libQtCore.so.4:_ZNK13QMetaProperty10enumeratorEv
libQtCore.so.4:_ZNK13QMetaProperty10isConstantEv
libQtCore.so.4:_ZNK13QMetaProperty10isEditableEPK7QObject
libQtCore.so.4:_ZNK13QMetaProperty10isEnumTypeEv
libQtCore.so.4:_ZNK13QMetaProperty10isFlagTypeEv
libQtCore.so.4:_ZNK13QMetaProperty10isReadableEv
libQtCore.so.4:_ZNK13QMetaProperty10isWritableEv
libQtCore.so.4:_ZNK13QMetaProperty12hasStdCppSetEv
libQtCore.so.4:_ZNK13QMetaProperty12isDesignableEPK7QObject
libQtCore.so.4:_ZNK13QMetaProperty12isResettableEv
libQtCore.so.4:_ZNK13QMetaProperty12isScriptableEPK7QObject
libQtCore.so.4:_ZNK13QMetaProperty12notifySignalEv
libQtCore.so.4:_ZNK13QMetaProperty13propertyIndexEv
libQtCore.so.4:_ZNK13QMetaProperty15hasNotifySignalEv
libQtCore.so.4:_ZNK13QMetaProperty17notifySignalIndexEv
libQtCore.so.4:_ZNK13QMetaProperty4nameEv
libQtCore.so.4:_ZNK13QMetaProperty4readEPK7QObject
libQtCore.so.4:_ZNK13QMetaProperty4typeEv
libQtCore.so.4:_ZNK13QMetaProperty5resetEP7QObject
libQtCore.so.4:_ZNK13QMetaProperty5writeEP7QObjectRK8QVariant
libQtCore.so.4:_ZNK13QMetaProperty6isUserEPK7QObject
libQtCore.so.4:_ZNK13QMetaProperty7isFinalEv
libQtCore.so.4:_ZNK13QMetaProperty8isStoredEPK7QObject
libQtCore.so.4:_ZNK13QMetaProperty8revisionEv
libQtCore.so.4:_ZNK13QMetaProperty8typeNameEv
libQtCore.so.4:_ZNK13QMetaProperty8userTypeEv
libQtCore.so.4:_ZNK13QPluginLoader10metaObjectEv
libQtCore.so.4:_ZNK13QPluginLoader11errorStringEv
libQtCore.so.4:_ZNK13QPluginLoader8fileNameEv
libQtCore.so.4:_ZNK13QPluginLoader8isLoadedEv
libQtCore.so.4:_ZNK13QPluginLoader9loadHintsEv
libQtCore.so.4:_ZNK13QSharedMemory10isAttachedEv
libQtCore.so.4:_ZNK13QSharedMemory10metaObjectEv
libQtCore.so.4:_ZNK13QSharedMemory11errorStringEv
libQtCore.so.4:_ZNK13QSharedMemory3keyEv
libQtCore.so.4:_ZNK13QSharedMemory4dataEv
libQtCore.so.4:_ZNK13QSharedMemory4sizeEv
libQtCore.so.4:_ZNK13QSharedMemory5errorEv
libQtCore.so.4:_ZNK13QSharedMemory9constDataEv
libQtCore.so.4:_ZNK13QSharedMemory9nativeKeyEv
libQtCore.so.4:_ZNK13QSignalMapper10metaObjectEv
libQtCore.so.4:_ZNK13QSignalMapper7mappingEP7QObject
libQtCore.so.4:_ZNK13QSignalMapper7mappingEP7QWidget
libQtCore.so.4:_ZNK13QSignalMapper7mappingERK7QString
libQtCore.so.4:_ZNK13QSignalMapper7mappingEi
libQtCore.so.4:_ZNK13QStateMachine10isAnimatedEv
libQtCore.so.4:_ZNK13QStateMachine10metaObjectEv
libQtCore.so.4:_ZNK13QStateMachine11errorStringEv
libQtCore.so.4:_ZNK13QStateMachine13configurationEv
libQtCore.so.4:_ZNK13QStateMachine17defaultAnimationsEv
libQtCore.so.4:_ZNK13QStateMachine19globalRestorePolicyEv
libQtCore.so.4:_ZNK13QStateMachine5errorEv
libQtCore.so.4:_ZNK13QStateMachine9isRunningEv
libQtCore.so.4:_ZNK13QSystemLocale14fallbackLocaleEv
libQtCore.so.4:_ZNK13QSystemLocale5queryENS_9QueryTypeE8QVariant
libQtCore.so.4:_ZNK14QAbstractState10metaObjectEv
libQtCore.so.4:_ZNK14QAbstractState11parentStateEv
libQtCore.so.4:_ZNK14QAbstractState7machineEv
libQtCore.so.4:_ZNK14QFactoryLoader10metaObjectEv
libQtCore.so.4:_ZNK14QFactoryLoader4keysEv
libQtCore.so.4:_ZNK14QFactoryLoader7libraryERK7QString
libQtCore.so.4:_ZNK14QFactoryLoader8instanceERK7QString
libQtCore.so.4:_ZNK14QLocalePrivate10scriptCodeEv
libQtCore.so.4:_ZNK14QLocalePrivate11countryCodeEv
libQtCore.so.4:_ZNK14QLocalePrivate12languageCodeEv
libQtCore.so.4:_ZNK14QLocalePrivate13validateCharsERK7QStringNS_10NumberModeEP10QByteArrayi
libQtCore.so.4:_ZNK14QLocalePrivate14doubleToStringEdiNS_10DoubleFormEij
libQtCore.so.4:_ZNK14QLocalePrivate14stringToDoubleERK7QStringPbNS_18GroupSeparatorModeE
libQtCore.so.4:_ZNK14QLocalePrivate15numberToCLocaleERK7QStringNS_18GroupSeparatorModeEP15QVarLengthArrayIcLi256EE
libQtCore.so.4:_ZNK14QLocalePrivate16dateTimeToStringERK7QStringPK5QDatePK5QTimePK7QLocale
libQtCore.so.4:_ZNK14QLocalePrivate16longLongToStringExiiij
libQtCore.so.4:_ZNK14QLocalePrivate16stringToLongLongERK7QStringiPbNS_18GroupSeparatorModeE
libQtCore.so.4:_ZNK14QLocalePrivate17measurementSystemEv
libQtCore.so.4:_ZNK14QLocalePrivate19stringToUnsLongLongERK7QStringiPbNS_18GroupSeparatorModeE
libQtCore.so.4:_ZNK14QLocalePrivate19unsLongLongToStringEyiiij
libQtCore.so.4:_ZNK14QLocalePrivate9bcp47NameEv
libQtCore.so.4:_ZNK14QMetaClassInfo4nameEv
libQtCore.so.4:_ZNK14QMetaClassInfo5valueEv
libQtCore.so.4:_ZNK14QObjectPrivate10senderListEv
libQtCore.so.4:_ZNK14QObjectPrivate11signalIndexEPKc
libQtCore.so.4:_ZNK14QObjectPrivate12receiverListEPKc
libQtCore.so.4:_ZNK14QObjectPrivate8isSenderEPK7QObjectPKc
libQtCore.so.4:_ZNK14QStringMatcher7indexInEPK5QCharii
libQtCore.so.4:_ZNK14QStringMatcher7indexInERK7QStringi
libQtCore.so.4:_ZNK14QStringMatcher7patternEv
libQtCore.so.4:_ZNK14QTemporaryFile10autoRemoveEv
libQtCore.so.4:_ZNK14QTemporaryFile10fileEngineEv
libQtCore.so.4:_ZNK14QTemporaryFile10metaObjectEv
libQtCore.so.4:_ZNK14QTemporaryFile12fileTemplateEv
libQtCore.so.4:_ZNK14QTemporaryFile8fileNameEv
libQtCore.so.4:_ZNK15QAnimationGroup10metaObjectEv
libQtCore.so.4:_ZNK15QAnimationGroup11animationAtEi
libQtCore.so.4:_ZNK15QAnimationGroup14animationCountEv
libQtCore.so.4:_ZNK15QAnimationGroup16indexOfAnimationEP18QAbstractAnimation
libQtCore.so.4:_ZNK15QDateTimeParser10fromStringERK7QStringP5QDateP5QTime
libQtCore.so.4:_ZNK15QDateTimeParser10getMaximumEv
libQtCore.so.4:_ZNK15QDateTimeParser10getMinimumEv
libQtCore.so.4:_ZNK15QDateTimeParser10sectionPosERKNS_11SectionNodeE
libQtCore.so.4:_ZNK15QDateTimeParser10sectionPosEi
libQtCore.so.4:_ZNK15QDateTimeParser11absoluteMaxEiRK9QDateTime
libQtCore.so.4:_ZNK15QDateTimeParser11absoluteMinEi
libQtCore.so.4:_ZNK15QDateTimeParser11getAmPmTextENS_4AmPmENS_4CaseE
libQtCore.so.4:_ZNK15QDateTimeParser11sectionNameEi
libQtCore.so.4:_ZNK15QDateTimeParser11sectionNodeEi
libQtCore.so.4:_ZNK15QDateTimeParser11sectionSizeEi
libQtCore.so.4:_ZNK15QDateTimeParser11sectionTextERK7QStringii
libQtCore.so.4:_ZNK15QDateTimeParser11sectionTextEi
libQtCore.so.4:_ZNK15QDateTimeParser11sectionTypeEi
libQtCore.so.4:_ZNK15QDateTimeParser12parseSectionERK9QDateTimeiR7QStringRiiRNS_5StateEPi
libQtCore.so.4:_ZNK15QDateTimeParser13sectionFormatENS_7SectionEi
libQtCore.so.4:_ZNK15QDateTimeParser13sectionFormatEi
libQtCore.so.4:_ZNK15QDateTimeParser14potentialValueERK7QStringiiiRK9QDateTimei
libQtCore.so.4:_ZNK15QDateTimeParser14sectionMaxSizeENS_7SectionEi
libQtCore.so.4:_ZNK15QDateTimeParser14sectionMaxSizeEi
libQtCore.so.4:_ZNK15QDateTimeParser17skipToNextSectionEiRK9QDateTimeRK7QString
libQtCore.so.4:_ZNK15QDateTimeParser5parseER7QStringRiRK9QDateTimeb
libQtCore.so.4:_ZNK15QDateTimeParser7findDayERK7QStringiiPS0_Pi
libQtCore.so.4:_ZNK15QDateTimeParser8findAmPmER7QStringiPi
libQtCore.so.4:_ZNK15QDateTimeParser8getDigitERK9QDateTimei
libQtCore.so.4:_ZNK15QDateTimeParser8setDigitER9QDateTimeii
libQtCore.so.4:_ZNK15QDateTimeParser9fieldInfoEi
libQtCore.so.4:_ZNK15QDateTimeParser9findMonthERK7QStringiiPS0_Pi
libQtCore.so.4:_ZNK15QDateTimeParser9maxChangeEi
libQtCore.so.4:_ZNK15QDateTimeParser9stateNameEi
libQtCore.so.4:_ZNK15QPauseAnimation10metaObjectEv
libQtCore.so.4:_ZNK15QPauseAnimation8durationEv
libQtCore.so.4:_ZNK15QSocketNotifier10metaObjectEv
libQtCore.so.4:_ZNK16QAnimationDriver10metaObjectEv
libQtCore.so.4:_ZNK16QAnimationDriver9isRunningEv
libQtCore.so.4:_ZNK16QCoreApplication10metaObjectEv
libQtCore.so.4:_ZNK16QEventTransition10metaObjectEv
libQtCore.so.4:_ZNK16QEventTransition11eventSourceEv
libQtCore.so.4:_ZNK16QEventTransition9eventTypeEv
libQtCore.so.4:_ZNK16QSystemSemaphore11errorStringEv
libQtCore.so.4:_ZNK16QSystemSemaphore3keyEv
libQtCore.so.4:_ZNK16QSystemSemaphore5errorEv
libQtCore.so.4:_ZNK16QTextCodecPlugin10metaObjectEv
libQtCore.so.4:_ZNK16QTextCodecPlugin4keysEv
libQtCore.so.4:_ZNK16QXmlStreamReader10attributesEv
libQtCore.so.4:_ZNK16QXmlStreamReader10lineNumberEv
libQtCore.so.4:_ZNK16QXmlStreamReader11dtdPublicIdEv
libQtCore.so.4:_ZNK16QXmlStreamReader11dtdSystemIdEv
libQtCore.so.4:_ZNK16QXmlStreamReader11errorStringEv
libQtCore.so.4:_ZNK16QXmlStreamReader11tokenStringEv
libQtCore.so.4:_ZNK16QXmlStreamReader12columnNumberEv
libQtCore.so.4:_ZNK16QXmlStreamReader12isWhitespaceEv
libQtCore.so.4:_ZNK16QXmlStreamReader12namespaceUriEv
libQtCore.so.4:_ZNK16QXmlStreamReader13qualifiedNameEv
libQtCore.so.4:_ZNK16QXmlStreamReader14entityResolverEv
libQtCore.so.4:_ZNK16QXmlStreamReader15characterOffsetEv
libQtCore.so.4:_ZNK16QXmlStreamReader15documentVersionEv
libQtCore.so.4:_ZNK16QXmlStreamReader16documentEncodingEv
libQtCore.so.4:_ZNK16QXmlStreamReader18entityDeclarationsEv
libQtCore.so.4:_ZNK16QXmlStreamReader19namespaceProcessingEv
libQtCore.so.4:_ZNK16QXmlStreamReader20isStandaloneDocumentEv
libQtCore.so.4:_ZNK16QXmlStreamReader20notationDeclarationsEv
libQtCore.so.4:_ZNK16QXmlStreamReader21namespaceDeclarationsEv
libQtCore.so.4:_ZNK16QXmlStreamReader25processingInstructionDataEv
libQtCore.so.4:_ZNK16QXmlStreamReader27processingInstructionTargetEv
libQtCore.so.4:_ZNK16QXmlStreamReader4nameEv
libQtCore.so.4:_ZNK16QXmlStreamReader4textEv
libQtCore.so.4:_ZNK16QXmlStreamReader5atEndEv
libQtCore.so.4:_ZNK16QXmlStreamReader5errorEv
libQtCore.so.4:_ZNK16QXmlStreamReader6deviceEv
libQtCore.so.4:_ZNK16QXmlStreamReader6prefixEv
libQtCore.so.4:_ZNK16QXmlStreamReader7dtdNameEv
libQtCore.so.4:_ZNK16QXmlStreamReader7isCDATAEv
libQtCore.so.4:_ZNK16QXmlStreamReader9tokenTypeEv
libQtCore.so.4:_ZNK16QXmlStreamWriter14autoFormattingEv
libQtCore.so.4:_ZNK16QXmlStreamWriter20autoFormattingIndentEv
libQtCore.so.4:_ZNK16QXmlStreamWriter5codecEv
libQtCore.so.4:_ZNK16QXmlStreamWriter6deviceEv
libQtCore.so.4:_ZNK16QXmlStreamWriter8hasErrorEv
libQtCore.so.4:_ZNK17QByteArrayMatcher7indexInEPKcii
libQtCore.so.4:_ZNK17QByteArrayMatcher7indexInERK10QByteArrayi
libQtCore.so.4:_ZNK17QSignalTransition10metaObjectEv
libQtCore.so.4:_ZNK17QSignalTransition12senderObjectEv
libQtCore.so.4:_ZNK17QSignalTransition6signalEv
libQtCore.so.4:_ZNK17QVariantAnimation10keyValueAtEd
libQtCore.so.4:_ZNK17QVariantAnimation10metaObjectEv
libQtCore.so.4:_ZNK17QVariantAnimation10startValueEv
libQtCore.so.4:_ZNK17QVariantAnimation11easingCurveEv
libQtCore.so.4:_ZNK17QVariantAnimation12currentValueEv
libQtCore.so.4:_ZNK17QVariantAnimation12interpolatedERK8QVariantS2_d
libQtCore.so.4:_ZNK17QVariantAnimation8durationEv
libQtCore.so.4:_ZNK17QVariantAnimation8endValueEv
libQtCore.so.4:_ZNK17QVariantAnimation9keyValuesEv
libQtCore.so.4:_ZNK18QAbstractAnimation10metaObjectEv
libQtCore.so.4:_ZNK18QAbstractAnimation11currentLoopEv
libQtCore.so.4:_ZNK18QAbstractAnimation11currentTimeEv
libQtCore.so.4:_ZNK18QAbstractAnimation13totalDurationEv
libQtCore.so.4:_ZNK18QAbstractAnimation15currentLoopTimeEv
libQtCore.so.4:_ZNK18QAbstractAnimation5groupEv
libQtCore.so.4:_ZNK18QAbstractAnimation5stateEv
libQtCore.so.4:_ZNK18QAbstractAnimation9directionEv
libQtCore.so.4:_ZNK18QAbstractAnimation9loopCountEv
libQtCore.so.4:_ZNK18QAbstractItemModel10encodeDataERK5QListI11QModelIndexER11QDataStream
libQtCore.so.4:_ZNK18QAbstractItemModel10headerDataEiN2Qt11OrientationEi
libQtCore.so.4:_ZNK18QAbstractItemModel10metaObjectEv
libQtCore.so.4:_ZNK18QAbstractItemModel11hasChildrenERK11QModelIndex
libQtCore.so.4:_ZNK18QAbstractItemModel12canFetchMoreERK11QModelIndex
libQtCore.so.4:_ZNK18QAbstractItemModel19persistentIndexListEv
libQtCore.so.4:_ZNK18QAbstractItemModel20supportedDragActionsEv
libQtCore.so.4:_ZNK18QAbstractItemModel20supportedDropActionsEv
libQtCore.so.4:_ZNK18QAbstractItemModel4spanERK11QModelIndex
libQtCore.so.4:_ZNK18QAbstractItemModel5buddyERK11QModelIndex
libQtCore.so.4:_ZNK18QAbstractItemModel5flagsERK11QModelIndex
libQtCore.so.4:_ZNK18QAbstractItemModel5matchERK11QModelIndexiRK8QVarianti6QFlagsIN2Qt9MatchFlagEE
libQtCore.so.4:_ZNK18QAbstractItemModel8hasIndexEiiRK11QModelIndex
libQtCore.so.4:_ZNK18QAbstractItemModel8itemDataERK11QModelIndex
libQtCore.so.4:_ZNK18QAbstractItemModel8mimeDataERK5QListI11QModelIndexE
libQtCore.so.4:_ZNK18QAbstractItemModel9mimeTypesEv
libQtCore.so.4:_ZNK18QAbstractItemModel9roleNamesEv
libQtCore.so.4:_ZNK18QAbstractListModel10metaObjectEv
libQtCore.so.4:_ZNK18QAbstractListModel11columnCountERK11QModelIndex
libQtCore.so.4:_ZNK18QAbstractListModel11hasChildrenERK11QModelIndex
libQtCore.so.4:_ZNK18QAbstractListModel5indexEiiRK11QModelIndex
libQtCore.so.4:_ZNK18QAbstractListModel6parentERK11QModelIndex
libQtCore.so.4:_ZNK18QCryptographicHash6resultEv
libQtCore.so.4:_ZNK18QFileSystemWatcher10metaObjectEv
libQtCore.so.4:_ZNK18QFileSystemWatcher11directoriesEv
libQtCore.so.4:_ZNK18QFileSystemWatcher5filesEv
libQtCore.so.4:_ZNK18QFutureWatcherBase10isCanceledEv
libQtCore.so.4:_ZNK18QFutureWatcherBase10isFinishedEv
libQtCore.so.4:_ZNK18QFutureWatcherBase10metaObjectEv
libQtCore.so.4:_ZNK18QFutureWatcherBase12progressTextEv
libQtCore.so.4:_ZNK18QFutureWatcherBase13progressValueEv
libQtCore.so.4:_ZNK18QFutureWatcherBase15progressMaximumEv
libQtCore.so.4:_ZNK18QFutureWatcherBase15progressMinimumEv
libQtCore.so.4:_ZNK18QFutureWatcherBase8isPausedEv
libQtCore.so.4:_ZNK18QFutureWatcherBase9isRunningEv
libQtCore.so.4:_ZNK18QFutureWatcherBase9isStartedEv
libQtCore.so.4:_ZNK18QPropertyAnimation10metaObjectEv
libQtCore.so.4:_ZNK18QPropertyAnimation12propertyNameEv
libQtCore.so.4:_ZNK18QPropertyAnimation12targetObjectEv
libQtCore.so.4:_ZNK18QThreadStorageData3getEv
libQtCore.so.4:_ZNK19QAbstractFileEngine11errorStringEv
libQtCore.so.4:_ZNK19QAbstractFileEngine12isSequentialEv
libQtCore.so.4:_ZNK19QAbstractFileEngine13caseSensitiveEv
libQtCore.so.4:_ZNK19QAbstractFileEngine14isRelativePathEv
libQtCore.so.4:_ZNK19QAbstractFileEngine17supportsExtensionENS_9ExtensionE
libQtCore.so.4:_ZNK19QAbstractFileEngine3posEv
libQtCore.so.4:_ZNK19QAbstractFileEngine4sizeEv
libQtCore.so.4:_ZNK19QAbstractFileEngine5atEndEv
libQtCore.so.4:_ZNK19QAbstractFileEngine5errorEv
libQtCore.so.4:_ZNK19QAbstractFileEngine5mkdirERK7QStringb
libQtCore.so.4:_ZNK19QAbstractFileEngine5ownerENS_9FileOwnerE
libQtCore.so.4:_ZNK19QAbstractFileEngine5rmdirERK7QStringb
libQtCore.so.4:_ZNK19QAbstractFileEngine6handleEv
libQtCore.so.4:_ZNK19QAbstractFileEngine7ownerIdENS_9FileOwnerE
libQtCore.so.4:_ZNK19QAbstractFileEngine8fileNameENS_8FileNameE
libQtCore.so.4:_ZNK19QAbstractFileEngine8fileTimeENS_8FileTimeE
libQtCore.so.4:_ZNK19QAbstractFileEngine9entryListE6QFlagsIN4QDir6FilterEERK11QStringList
libQtCore.so.4:_ZNK19QAbstractFileEngine9fileFlagsE6QFlagsINS_8FileFlagEE
libQtCore.so.4:_ZNK19QAbstractTableModel10metaObjectEv
libQtCore.so.4:_ZNK19QAbstractTableModel11hasChildrenERK11QModelIndex
libQtCore.so.4:_ZNK19QAbstractTableModel5indexEiiRK11QModelIndex
libQtCore.so.4:_ZNK19QAbstractTableModel6parentERK11QModelIndex
libQtCore.so.4:_ZNK19QAbstractTransition10animationsEv
libQtCore.so.4:_ZNK19QAbstractTransition10metaObjectEv
libQtCore.so.4:_ZNK19QAbstractTransition11sourceStateEv
libQtCore.so.4:_ZNK19QAbstractTransition11targetStateEv
libQtCore.so.4:_ZNK19QAbstractTransition12targetStatesEv
libQtCore.so.4:_ZNK19QAbstractTransition7machineEv
libQtCore.so.4:_ZNK19QProcessEnvironment12toStringListEv
libQtCore.so.4:_ZNK19QProcessEnvironment4keysEv
libQtCore.so.4:_ZNK19QProcessEnvironment5valueERK7QStringS2_
libQtCore.so.4:_ZNK19QProcessEnvironment7isEmptyEv
libQtCore.so.4:_ZNK19QProcessEnvironment8containsERK7QString
libQtCore.so.4:_ZNK19QProcessEnvironmenteqERKS_
libQtCore.so.4:_ZNK19QTextBoundaryFinder12isAtBoundaryEv
libQtCore.so.4:_ZNK19QTextBoundaryFinder15boundaryReasonsEv
libQtCore.so.4:_ZNK19QTextBoundaryFinder6stringEv
libQtCore.so.4:_ZNK19QTextBoundaryFinder8positionEv
libQtCore.so.4:_ZNK20QEventDispatcherGlib10metaObjectEv
libQtCore.so.4:_ZNK20QEventDispatcherGlib16registeredTimersEP7QObject
libQtCore.so.4:_ZNK20QEventDispatcherUNIX10metaObjectEv
libQtCore.so.4:_ZNK20QEventDispatcherUNIX16registeredTimersEP7QObject
libQtCore.so.4:_ZNK20QFutureInterfaceBase10isCanceledEv
libQtCore.so.4:_ZNK20QFutureInterfaceBase10isFinishedEv
libQtCore.so.4:_ZNK20QFutureInterfaceBase10queryStateENS_5StateE
libQtCore.so.4:_ZNK20QFutureInterfaceBase11isThrottledEv
libQtCore.so.4:_ZNK20QFutureInterfaceBase11resultCountEv
libQtCore.so.4:_ZNK20QFutureInterfaceBase12progressTextEv
libQtCore.so.4:_ZNK20QFutureInterfaceBase13progressValueEv
libQtCore.so.4:_ZNK20QFutureInterfaceBase15isResultReadyAtEi
libQtCore.so.4:_ZNK20QFutureInterfaceBase15progressMaximumEv
libQtCore.so.4:_ZNK20QFutureInterfaceBase15progressMinimumEv
libQtCore.so.4:_ZNK20QFutureInterfaceBase15resultStoreBaseEv
libQtCore.so.4:_ZNK20QFutureInterfaceBase19referenceCountIsOneEv
libQtCore.so.4:_ZNK20QFutureInterfaceBase22isProgressUpdateNeededEv
libQtCore.so.4:_ZNK20QFutureInterfaceBase5mutexEv
libQtCore.so.4:_ZNK20QFutureInterfaceBase8isPausedEv
libQtCore.so.4:_ZNK20QFutureInterfaceBase9isRunningEv
libQtCore.so.4:_ZNK20QFutureInterfaceBase9isStartedEv
libQtCore.so.4:_ZNK20QStateMachinePrivate10isCompoundEPK14QAbstractState
libQtCore.so.4:_ZNK20QStateMachinePrivate11isPreemptedEPK14QAbstractStateRK4QSetIP19QAbstractTransitionE
libQtCore.so.4:_ZNK20QStateMachinePrivate13hasRestorableEP7QObjectRK10QByteArray
libQtCore.so.4:_ZNK20QStateMachinePrivate14isInFinalStateEP14QAbstractState
libQtCore.so.4:_ZNK20QStateMachinePrivate15restorableValueEP7QObjectRK10QByteArray
libQtCore.so.4:_ZNK20QStateMachinePrivate17selectTransitionsEP6QEvent
libQtCore.so.4:_ZNK20QStateMachinePrivate25restorablesToPropertyListERK5QHashI5QPairIP7QObject10QByteArrayE8QVariantE
libQtCore.so.4:_ZNK20QStateMachinePrivate7findLCAERK5QListIP14QAbstractStateE
libQtCore.so.4:_ZNK20QStateMachinePrivate8isAtomicEPK14QAbstractState
libQtCore.so.4:_ZNK20QStateMachinePrivate9rootStateEv
libQtCore.so.4:_ZNK20QXmlStreamAttributes5valueERK13QLatin1String
libQtCore.so.4:_ZNK20QXmlStreamAttributes5valueERK13QLatin1StringS2_
libQtCore.so.4:_ZNK20QXmlStreamAttributes5valueERK7QString
libQtCore.so.4:_ZNK20QXmlStreamAttributes5valueERK7QStringRK13QLatin1String
libQtCore.so.4:_ZNK20QXmlStreamAttributes5valueERK7QStringS2_
libQtCore.so.4:_ZNK21QObjectCleanupHandler10metaObjectEv
libQtCore.so.4:_ZNK21QObjectCleanupHandler7isEmptyEv
libQtCore.so.4:_ZNK21QPersistentModelIndex10internalIdEv
libQtCore.so.4:_ZNK21QPersistentModelIndex15internalPointerEv
libQtCore.so.4:_ZNK21QPersistentModelIndex3rowEv
libQtCore.so.4:_ZNK21QPersistentModelIndex4dataEi
libQtCore.so.4:_ZNK21QPersistentModelIndex5childEii
libQtCore.so.4:_ZNK21QPersistentModelIndex5flagsEv
libQtCore.so.4:_ZNK21QPersistentModelIndex5modelEv
libQtCore.so.4:_ZNK21QPersistentModelIndex6columnEv
libQtCore.so.4:_ZNK21QPersistentModelIndex6parentEv
libQtCore.so.4:_ZNK21QPersistentModelIndex7isValidEv
libQtCore.so.4:_ZNK21QPersistentModelIndex7siblingEii
libQtCore.so.4:_ZNK21QPersistentModelIndexcvRK11QModelIndexEv
libQtCore.so.4:_ZNK21QPersistentModelIndexeqERK11QModelIndex
libQtCore.so.4:_ZNK21QPersistentModelIndexeqERKS_
libQtCore.so.4:_ZNK21QPersistentModelIndexltERKS_
libQtCore.so.4:_ZNK21QPersistentModelIndexneERK11QModelIndex
libQtCore.so.4:_ZNK23QCoreApplicationPrivate7appNameEv
libQtCore.so.4:_ZNK23QParallelAnimationGroup10metaObjectEv
libQtCore.so.4:_ZNK23QParallelAnimationGroup8durationEv
libQtCore.so.4:_ZNK24QAbstractEventDispatcher10metaObjectEv
libQtCore.so.4:_ZNK24QNonContiguousByteDevice10metaObjectEv
libQtCore.so.4:_ZNK25QSequentialAnimationGroup10metaObjectEv
libQtCore.so.4:_ZNK25QSequentialAnimationGroup16currentAnimationEv
libQtCore.so.4:_ZNK25QSequentialAnimationGroup8durationEv
libQtCore.so.4:_ZNK26QAbstractTransitionPrivate11sourceStateEv
libQtCore.so.4:_ZNK26QAbstractTransitionPrivate7machineEv
libQtCore.so.4:_ZNK27QAbstractFileEngineIterator11nameFiltersEv
libQtCore.so.4:_ZNK27QAbstractFileEngineIterator15currentFileInfoEv
libQtCore.so.4:_ZNK27QAbstractFileEngineIterator15currentFilePathEv
libQtCore.so.4:_ZNK27QAbstractFileEngineIterator4pathEv
libQtCore.so.4:_ZNK27QAbstractFileEngineIterator7filtersEv
libQtCore.so.4:_ZNK27QAbstractFileEngineIterator9entryInfoENS_13EntryInfoTypeE
libQtCore.so.4:_ZNK4QDir10isReadableEv
libQtCore.so.4:_ZNK4QDir10isRelativeEv
libQtCore.so.4:_ZNK4QDir10nameFilterEv
libQtCore.so.4:_ZNK4QDir11nameFiltersEv
libQtCore.so.4:_ZNK4QDir12absolutePathEv
libQtCore.so.4:_ZNK4QDir12matchAllDirsEv
libQtCore.so.4:_ZNK4QDir13canonicalPathEv
libQtCore.so.4:_ZNK4QDir13entryInfoListE6QFlagsINS_6FilterEES0_INS_8SortFlagEE
libQtCore.so.4:_ZNK4QDir13entryInfoListERK11QStringList6QFlagsINS_6FilterEES3_INS_8SortFlagEE
libQtCore.so.4:_ZNK4QDir16absoluteFilePathERK7QString
libQtCore.so.4:_ZNK4QDir16relativeFilePathERK7QString
libQtCore.so.4:_ZNK4QDir4pathEv
libQtCore.so.4:_ZNK4QDir5countEv
libQtCore.so.4:_ZNK4QDir5mkdirERK7QString
libQtCore.so.4:_ZNK4QDir5rmdirERK7QString
libQtCore.so.4:_ZNK4QDir6existsERK7QString
libQtCore.so.4:_ZNK4QDir6existsEv
libQtCore.so.4:_ZNK4QDir6filterEv
libQtCore.so.4:_ZNK4QDir6isRootEv
libQtCore.so.4:_ZNK4QDir6mkpathERK7QString
libQtCore.so.4:_ZNK4QDir6rmpathERK7QString
libQtCore.so.4:_ZNK4QDir7dirNameEv
libQtCore.so.4:_ZNK4QDir7refreshEv
libQtCore.so.4:_ZNK4QDir7sortingEv
libQtCore.so.4:_ZNK4QDir8filePathERK7QString
libQtCore.so.4:_ZNK4QDir9entryListE6QFlagsINS_6FilterEES0_INS_8SortFlagEE
libQtCore.so.4:_ZNK4QDir9entryListERK11QStringList6QFlagsINS_6FilterEES3_INS_8SortFlagEE
libQtCore.so.4:_ZNK4QDireqERKS_
libQtCore.so.4:_ZNK4QDirixEi
libQtCore.so.4:_ZNK4QUrl10isDetachedEv
libQtCore.so.4:_ZNK4QUrl10isParentOfERKS_
libQtCore.so.4:_ZNK4QUrl10isRelativeEv
libQtCore.so.4:_ZNK4QUrl10queryItemsEv
libQtCore.so.4:_ZNK4QUrl11encodedHostEv
libQtCore.so.4:_ZNK4QUrl11encodedPathEv
libQtCore.so.4:_ZNK4QUrl11errorStringEv
libQtCore.so.4:_ZNK4QUrl11hasFragmentEv
libQtCore.so.4:_ZNK4QUrl11isLocalFileEv
libQtCore.so.4:_ZNK4QUrl11toLocalFileEv
libQtCore.so.4:_ZNK4QUrl12encodedQueryEv
libQtCore.so.4:_ZNK4QUrl12hasQueryItemERK7QString
libQtCore.so.4:_ZNK4QUrl14queryItemValueERK7QString
libQtCore.so.4:_ZNK4QUrl14topLevelDomainEv
libQtCore.so.4:_ZNK4QUrl15encodedFragmentEv
libQtCore.so.4:_ZNK4QUrl15encodedPasswordEv
libQtCore.so.4:_ZNK4QUrl15encodedUserNameEv
libQtCore.so.4:_ZNK4QUrl17encodedQueryItemsEv
libQtCore.so.4:_ZNK4QUrl18allQueryItemValuesERK7QString
libQtCore.so.4:_ZNK4QUrl18queryPairDelimiterEv
libQtCore.so.4:_ZNK4QUrl19hasEncodedQueryItemERK10QByteArray
libQtCore.so.4:_ZNK4QUrl19queryValueDelimiterEv
libQtCore.so.4:_ZNK4QUrl21encodedQueryItemValueERK10QByteArray
libQtCore.so.4:_ZNK4QUrl25allEncodedQueryItemValuesERK10QByteArray
libQtCore.so.4:_ZNK4QUrl4hostEv
libQtCore.so.4:_ZNK4QUrl4pathEv
libQtCore.so.4:_ZNK4QUrl4portEi
libQtCore.so.4:_ZNK4QUrl4portEv
libQtCore.so.4:_ZNK4QUrl6schemeEv
libQtCore.so.4:_ZNK4QUrl7dirPathEv
libQtCore.so.4:_ZNK4QUrl7isEmptyEv
libQtCore.so.4:_ZNK4QUrl7isValidEv
libQtCore.so.4:_ZNK4QUrl8fileNameEv
libQtCore.so.4:_ZNK4QUrl8fragmentEv
libQtCore.so.4:_ZNK4QUrl8hasQueryEv
libQtCore.so.4:_ZNK4QUrl8passwordEv
libQtCore.so.4:_ZNK4QUrl8resolvedERKS_
libQtCore.so.4:_ZNK4QUrl8toStringE6QFlagsINS_16FormattingOptionEE
libQtCore.so.4:_ZNK4QUrl8userInfoEv
libQtCore.so.4:_ZNK4QUrl8userNameEv
libQtCore.so.4:_ZNK4QUrl9authorityEv
libQtCore.so.4:_ZNK4QUrl9toEncodedE6QFlagsINS_16FormattingOptionEE
libQtCore.so.4:_ZNK4QUrleqERKS_
libQtCore.so.4:_ZNK4QUrlltERKS_
libQtCore.so.4:_ZNK4QUrlneERKS_
libQtCore.so.4:_ZNK5QChar10digitValueEv
libQtCore.so.4:_ZNK5QChar11hasMirroredEv
libQtCore.so.4:_ZNK5QChar11toTitleCaseEv
libQtCore.so.4:_ZNK5QChar12mirroredCharEv
libQtCore.so.4:_ZNK5QChar12toCaseFoldedEv
libQtCore.so.4:_ZNK5QChar13decompositionEv
libQtCore.so.4:_ZNK5QChar14combiningClassEv
libQtCore.so.4:_ZNK5QChar14unicodeVersionEv
libQtCore.so.4:_ZNK5QChar16decompositionTagEv
libQtCore.so.4:_ZNK5QChar16isLetterOrNumberEv
libQtCore.so.4:_ZNK5QChar6isMarkEv
libQtCore.so.4:_ZNK5QChar7isDigitEv
libQtCore.so.4:_ZNK5QChar7isPrintEv
libQtCore.so.4:_ZNK5QChar7isPunctEv
libQtCore.so.4:_ZNK5QChar7isSpaceEv
libQtCore.so.4:_ZNK5QChar7joiningEv
libQtCore.so.4:_ZNK5QChar7toAsciiEv
libQtCore.so.4:_ZNK5QChar7toLowerEv
libQtCore.so.4:_ZNK5QChar7toUpperEv
libQtCore.so.4:_ZNK5QChar8categoryEv
libQtCore.so.4:_ZNK5QChar8isLetterEv
libQtCore.so.4:_ZNK5QChar8isNumberEv
libQtCore.so.4:_ZNK5QChar8isSymbolEv
libQtCore.so.4:_ZNK5QChar9directionEv
libQtCore.so.4:_ZNK5QDate10daysInYearEv
libQtCore.so.4:_ZNK5QDate10weekNumberEPi
libQtCore.so.4:_ZNK5QDate11daysInMonthEv
libQtCore.so.4:_ZNK5QDate3dayEv
libQtCore.so.4:_ZNK5QDate4yearEv
libQtCore.so.4:_ZNK5QDate5monthEv
libQtCore.so.4:_ZNK5QDate6daysToERKS_
libQtCore.so.4:_ZNK5QDate7addDaysEi
libQtCore.so.4:_ZNK5QDate7isValidEv
libQtCore.so.4:_ZNK5QDate8addYearsEi
libQtCore.so.4:_ZNK5QDate8toStringEN2Qt10DateFormatE
libQtCore.so.4:_ZNK5QDate8toStringERK7QString
libQtCore.so.4:_ZNK5QDate9addMonthsEi
libQtCore.so.4:_ZNK5QDate9dayOfWeekEv
libQtCore.so.4:_ZNK5QDate9dayOfYearEv
libQtCore.so.4:_ZNK5QFile10fileEngineEv
libQtCore.so.4:_ZNK5QFile10metaObjectEv
libQtCore.so.4:_ZNK5QFile11permissionsEv
libQtCore.so.4:_ZNK5QFile12isSequentialEv
libQtCore.so.4:_ZNK5QFile3posEv
libQtCore.so.4:_ZNK5QFile4sizeEv
libQtCore.so.4:_ZNK5QFile5atEndEv
libQtCore.so.4:_ZNK5QFile5errorEv
libQtCore.so.4:_ZNK5QFile6existsEv
libQtCore.so.4:_ZNK5QFile6handleEv
libQtCore.so.4:_ZNK5QFile8fileNameEv
libQtCore.so.4:_ZNK5QFile8readLinkEv
libQtCore.so.4:_ZNK5QRect10intersectsERKS_
libQtCore.so.4:_ZNK5QRect10normalizedEv
libQtCore.so.4:_ZNK5QRect8containsERK6QPointb
libQtCore.so.4:_ZNK5QRect8containsERKS_b
libQtCore.so.4:_ZNK5QRectanERKS_
libQtCore.so.4:_ZNK5QRectorERKS_
libQtCore.so.4:_ZNK5QTime4hourEv
libQtCore.so.4:_ZNK5QTime4msecEv
libQtCore.so.4:_ZNK5QTime6minuteEv
libQtCore.so.4:_ZNK5QTime6secondEv
libQtCore.so.4:_ZNK5QTime6secsToERKS_
libQtCore.so.4:_ZNK5QTime7addSecsEi
libQtCore.so.4:_ZNK5QTime7elapsedEv
libQtCore.so.4:_ZNK5QTime7isValidEv
libQtCore.so.4:_ZNK5QTime7msecsToERKS_
libQtCore.so.4:_ZNK5QTime8addMSecsEi
libQtCore.so.4:_ZNK5QTime8toStringEN2Qt10DateFormatE
libQtCore.so.4:_ZNK5QTime8toStringERK7QString
libQtCore.so.4:_ZNK5QUuid11toByteArrayEv
libQtCore.so.4:_ZNK5QUuid6isNullEv
libQtCore.so.4:_ZNK5QUuid7variantEv
libQtCore.so.4:_ZNK5QUuid7versionEv
libQtCore.so.4:_ZNK5QUuid8toStringEv
libQtCore.so.4:_ZNK5QUuid9toRfc4122Ev
libQtCore.so.4:_ZNK5QUuidgtERKS_
libQtCore.so.4:_ZNK5QUuidltERKS_
libQtCore.so.4:_ZNK6QLineF10unitVectorEv
libQtCore.so.4:_ZNK6QLineF5angleERKS_
libQtCore.so.4:_ZNK6QLineF5angleEv
libQtCore.so.4:_ZNK6QLineF6isNullEv
libQtCore.so.4:_ZNK6QLineF6lengthEv
libQtCore.so.4:_ZNK6QLineF7angleToERKS_
libQtCore.so.4:_ZNK6QLineF9intersectERKS_P7QPointF
libQtCore.so.4:_ZNK6QPoint15manhattanLengthEv
libQtCore.so.4:_ZNK6QRectF10intersectsERKS_
libQtCore.so.4:_ZNK6QRectF10normalizedEv
libQtCore.so.4:_ZNK6QRectF13toAlignedRectEv
libQtCore.so.4:_ZNK6QRectF8containsERK7QPointF
libQtCore.so.4:_ZNK6QRectF8containsERKS_
libQtCore.so.4:_ZNK6QRectFanERKS_
libQtCore.so.4:_ZNK6QRectForERKS_
libQtCore.so.4:_ZNK6QState10errorStateEv
libQtCore.so.4:_ZNK6QState10metaObjectEv
libQtCore.so.4:_ZNK6QState11transitionsEv
libQtCore.so.4:_ZNK6QState12initialStateEv
libQtCore.so.4:_ZNK6QState9childModeEv
libQtCore.so.4:_ZNK6QTimer10metaObjectEv
libQtCore.so.4:_ZNK7QBuffer10metaObjectEv
libQtCore.so.4:_ZNK7QBuffer11canReadLineEv
libQtCore.so.4:_ZNK7QBuffer3posEv
libQtCore.so.4:_ZNK7QBuffer4dataEv
libQtCore.so.4:_ZNK7QBuffer4sizeEv
libQtCore.so.4:_ZNK7QBuffer5atEndEv
libQtCore.so.4:_ZNK7QBuffer6bufferEv
libQtCore.so.4:_ZNK7QLocale10dateFormatENS_10FormatTypeE
libQtCore.so.4:_ZNK7QLocale10timeFormatENS_10FormatTypeE
libQtCore.so.4:_ZNK7QLocale10toDateTimeERK7QStringNS_10FormatTypeE
libQtCore.so.4:_ZNK7QLocale10toDateTimeERK7QStringS2_
libQtCore.so.4:_ZNK7QLocale10toLongLongERK7QStringPbi
libQtCore.so.4:_ZNK7QLocale11exponentialEv
libQtCore.so.4:_ZNK7QLocale11quoteStringERK10QStringRefNS_14QuotationStyleE
libQtCore.so.4:_ZNK7QLocale11quoteStringERK7QStringNS_14QuotationStyleE
libQtCore.so.4:_ZNK7QLocale11toULongLongERK7QStringPbi
libQtCore.so.4:_ZNK7QLocale11uiLanguagesEv
libQtCore.so.4:_ZNK7QLocale12decimalPointEv
libQtCore.so.4:_ZNK7QLocale12negativeSignEv
libQtCore.so.4:_ZNK7QLocale12positiveSignEv
libQtCore.so.4:_ZNK7QLocale13numberOptionsEv
libQtCore.so.4:_ZNK7QLocale13textDirectionEv
libQtCore.so.4:_ZNK7QLocale14currencySymbolENS_20CurrencySymbolFormatE
libQtCore.so.4:_ZNK7QLocale14dateTimeFormatENS_10FormatTypeE
libQtCore.so.4:_ZNK7QLocale14firstDayOfWeekEv
libQtCore.so.4:_ZNK7QLocale14groupSeparatorEv
libQtCore.so.4:_ZNK7QLocale16toCurrencyStringEdRK7QString
libQtCore.so.4:_ZNK7QLocale16toCurrencyStringExRK7QString
libQtCore.so.4:_ZNK7QLocale16toCurrencyStringEyRK7QString
libQtCore.so.4:_ZNK7QLocale17measurementSystemEv
libQtCore.so.4:_ZNK7QLocale17nativeCountryNameEv
libQtCore.so.4:_ZNK7QLocale17standaloneDayNameEiNS_10FormatTypeE
libQtCore.so.4:_ZNK7QLocale18nativeLanguageNameEv
libQtCore.so.4:_ZNK7QLocale19createSeparatedListERK11QStringList
libQtCore.so.4:_ZNK7QLocale19standaloneMonthNameEiNS_10FormatTypeE
libQtCore.so.4:_ZNK7QLocale1dEv
libQtCore.so.4:_ZNK7QLocale4nameEv
libQtCore.so.4:_ZNK7QLocale5toIntERK7QStringPbi
libQtCore.so.4:_ZNK7QLocale6amTextEv
libQtCore.so.4:_ZNK7QLocale6pmTextEv
libQtCore.so.4:_ZNK7QLocale6scriptEv
libQtCore.so.4:_ZNK7QLocale6toDateERK7QStringNS_10FormatTypeE
libQtCore.so.4:_ZNK7QLocale6toDateERK7QStringS2_
libQtCore.so.4:_ZNK7QLocale6toTimeERK7QStringNS_10FormatTypeE
libQtCore.so.4:_ZNK7QLocale6toTimeERK7QStringS2_
libQtCore.so.4:_ZNK7QLocale6toUIntERK7QStringPbi
libQtCore.so.4:_ZNK7QLocale7countryEv
libQtCore.so.4:_ZNK7QLocale7dayNameEiNS_10FormatTypeE
libQtCore.so.4:_ZNK7QLocale7percentEv
libQtCore.so.4:_ZNK7QLocale7toFloatERK7QStringPb
libQtCore.so.4:_ZNK7QLocale7toLowerERK7QString
libQtCore.so.4:_ZNK7QLocale7toShortERK7QStringPbi
libQtCore.so.4:_ZNK7QLocale7toUpperERK7QString
libQtCore.so.4:_ZNK7QLocale8languageEv
libQtCore.so.4:_ZNK7QLocale8toDoubleERK7QStringPb
libQtCore.so.4:_ZNK7QLocale8toStringERK5QDateNS_10FormatTypeE
libQtCore.so.4:_ZNK7QLocale8toStringERK5QDateRK7QString
libQtCore.so.4:_ZNK7QLocale8toStringERK5QTimeNS_10FormatTypeE
libQtCore.so.4:_ZNK7QLocale8toStringERK5QTimeRK7QString
libQtCore.so.4:_ZNK7QLocale8toStringERK9QDateTimeNS_10FormatTypeE
libQtCore.so.4:_ZNK7QLocale8toStringERK9QDateTimeRK7QString
libQtCore.so.4:_ZNK7QLocale8toStringEdci
libQtCore.so.4:_ZNK7QLocale8toStringEx
libQtCore.so.4:_ZNK7QLocale8toStringEy
libQtCore.so.4:_ZNK7QLocale8toUShortERK7QStringPbi
libQtCore.so.4:_ZNK7QLocale8weekdaysEv
libQtCore.so.4:_ZNK7QLocale9bcp47NameEv
libQtCore.so.4:_ZNK7QLocale9monthNameEiNS_10FormatTypeE
libQtCore.so.4:_ZNK7QLocale9zeroDigitEv
libQtCore.so.4:_ZNK7QObject10metaObjectEv
libQtCore.so.4:_ZNK7QObject10objectNameEv
libQtCore.so.4:_ZNK7QObject17senderSignalIndexEv
libQtCore.so.4:_ZNK7QObject20dynamicPropertyNamesEv
libQtCore.so.4:_ZNK7QObject5childEPKcS1_b
libQtCore.so.4:_ZNK7QObject6senderEv
libQtCore.so.4:_ZNK7QObject6threadEv
libQtCore.so.4:_ZNK7QObject8propertyEPKc
libQtCore.so.4:_ZNK7QObject8userDataEj
libQtCore.so.4:_ZNK7QObject9queryListEPKcS1_bb
libQtCore.so.4:_ZNK7QObject9receiversEPKc
libQtCore.so.4:_ZNK7QPointF15manhattanLengthEv
libQtCore.so.4:_ZNK7QRegExp10exactMatchERK7QString
libQtCore.so.4:_ZNK7QRegExp11errorStringEv
libQtCore.so.4:_ZNK7QRegExp11lastIndexInERK7QStringiNS_9CaretModeE
libQtCore.so.4:_ZNK7QRegExp11numCapturesEv
libQtCore.so.4:_ZNK7QRegExp12captureCountEv
libQtCore.so.4:_ZNK7QRegExp13capturedTextsEv
libQtCore.so.4:_ZNK7QRegExp13matchedLengthEv
libQtCore.so.4:_ZNK7QRegExp13patternSyntaxEv
libQtCore.so.4:_ZNK7QRegExp15caseSensitivityEv
libQtCore.so.4:_ZNK7QRegExp3capEi
libQtCore.so.4:_ZNK7QRegExp3posEi
libQtCore.so.4:_ZNK7QRegExp7indexInERK7QStringiNS_9CaretModeE
libQtCore.so.4:_ZNK7QRegExp7isEmptyEv
libQtCore.so.4:_ZNK7QRegExp7isValidEv
libQtCore.so.4:_ZNK7QRegExp7patternEv
libQtCore.so.4:_ZNK7QRegExp9isMinimalEv
libQtCore.so.4:_ZNK7QRegExpeqERKS_
libQtCore.so.4:_ZNK7QString10normalizedENS_17NormalizationFormE
libQtCore.so.4:_ZNK7QString10normalizedENS_17NormalizationFormEN5QChar14UnicodeVersionE
libQtCore.so.4:_ZNK7QString10simplifiedEv
libQtCore.so.4:_ZNK7QString10startsWithERK10QStringRefN2Qt15CaseSensitivityE
libQtCore.so.4:_ZNK7QString10startsWithERK13QLatin1StringN2Qt15CaseSensitivityE
libQtCore.so.4:_ZNK7QString10startsWithERK5QCharN2Qt15CaseSensitivityE
libQtCore.so.4:_ZNK7QString10startsWithERKS_N2Qt15CaseSensitivityE
libQtCore.so.4:_ZNK7QString10toLongLongEPbi
libQtCore.so.4:_ZNK7QString11lastIndexOfE5QChariN2Qt15CaseSensitivityE
libQtCore.so.4:_ZNK7QString11lastIndexOfER7QRegExpi
libQtCore.so.4:_ZNK7QString11lastIndexOfERK10QStringRefiN2Qt15CaseSensitivityE
libQtCore.so.4:_ZNK7QString11lastIndexOfERK13QLatin1StringiN2Qt15CaseSensitivityE
libQtCore.so.4:_ZNK7QString11lastIndexOfERK7QRegExpi
libQtCore.so.4:_ZNK7QString11lastIndexOfERKS_iN2Qt15CaseSensitivityE
libQtCore.so.4:_ZNK7QString11toLocal8BitEv
libQtCore.so.4:_ZNK7QString11toULongLongEPbi
libQtCore.so.4:_ZNK7QString12ascii_helperEv
libQtCore.so.4:_ZNK7QString12toCaseFoldedEv
libQtCore.so.4:_ZNK7QString12toWCharArrayEPw
libQtCore.so.4:_ZNK7QString13isRightToLeftEv
libQtCore.so.4:_ZNK7QString13latin1_helperEv
libQtCore.so.4:_ZNK7QString13leftJustifiedEi5QCharb
libQtCore.so.4:_ZNK7QString14rightJustifiedEi5QCharb
libQtCore.so.4:_ZNK7QString16updatePropertiesEv
libQtCore.so.4:_ZNK7QString18localeAwareCompareERKS_
libQtCore.so.4:_ZNK7QString3argE5QChariRKS0_
libQtCore.so.4:_ZNK7QString3argERKS_iRK5QChar
libQtCore.so.4:_ZNK7QString3argEciRK5QChar
libQtCore.so.4:_ZNK7QString3argEdiciRK5QChar
libQtCore.so.4:_ZNK7QString3argExiiRK5QChar
libQtCore.so.4:_ZNK7QString3argEyiiRK5QChar
libQtCore.so.4:_ZNK7QString3midEii
libQtCore.so.4:_ZNK7QString4leftEi
libQtCore.so.4:_ZNK7QString5countE5QCharN2Qt15CaseSensitivityE
libQtCore.so.4:_ZNK7QString5countERK10QStringRefN2Qt15CaseSensitivityE
libQtCore.so.4:_ZNK7QString5countERK7QRegExp
libQtCore.so.4:_ZNK7QString5countERKS_N2Qt15CaseSensitivityE
libQtCore.so.4:_ZNK7QString5rightEi
libQtCore.so.4:_ZNK7QString5splitERK5QCharNS_13SplitBehaviorEN2Qt15CaseSensitivityE
libQtCore.so.4:_ZNK7QString5splitERK7QRegExpNS_13SplitBehaviorE
libQtCore.so.4:_ZNK7QString5splitERKS_NS_13SplitBehaviorEN2Qt15CaseSensitivityE
libQtCore.so.4:_ZNK7QString5toIntEPbi
libQtCore.so.4:_ZNK7QString5utf16Ev
libQtCore.so.4:_ZNK7QString6midRefEii
libQtCore.so.4:_ZNK7QString6toLongEPbi
libQtCore.so.4:_ZNK7QString6toUIntEPbi
libQtCore.so.4:_ZNK7QString6toUcs4Ev
libQtCore.so.4:_ZNK7QString6toUtf8Ev
libQtCore.so.4:_ZNK7QString7compareERK13QLatin1StringN2Qt15CaseSensitivityE
libQtCore.so.4:_ZNK7QString7compareERKS_
libQtCore.so.4:_ZNK7QString7compareERKS_N2Qt15CaseSensitivityE
libQtCore.so.4:_ZNK7QString7indexOfE5QChariN2Qt15CaseSensitivityE
libQtCore.so.4:_ZNK7QString7indexOfER7QRegExpi
libQtCore.so.4:_ZNK7QString7indexOfERK10QStringRefiN2Qt15CaseSensitivityE
libQtCore.so.4:_ZNK7QString7indexOfERK13QLatin1StringiN2Qt15CaseSensitivityE
libQtCore.so.4:_ZNK7QString7indexOfERK7QRegExpi
libQtCore.so.4:_ZNK7QString7indexOfERKS_iN2Qt15CaseSensitivityE
libQtCore.so.4:_ZNK7QString7leftRefEi
libQtCore.so.4:_ZNK7QString7sectionERK7QRegExpii6QFlagsINS_11SectionFlagEE
libQtCore.so.4:_ZNK7QString7sectionERKS_ii6QFlagsINS_11SectionFlagEE
libQtCore.so.4:_ZNK7QString7toAsciiEv
libQtCore.so.4:_ZNK7QString7toFloatEPb
libQtCore.so.4:_ZNK7QString7toLowerEv
libQtCore.so.4:_ZNK7QString7toShortEPbi
libQtCore.so.4:_ZNK7QString7toULongEPbi
libQtCore.so.4:_ZNK7QString7toUpperEv
libQtCore.so.4:_ZNK7QString7trimmedEv
libQtCore.so.4:_ZNK7QString8endsWithERK10QStringRefN2Qt15CaseSensitivityE
libQtCore.so.4:_ZNK7QString8endsWithERK13QLatin1StringN2Qt15CaseSensitivityE
libQtCore.so.4:_ZNK7QString8endsWithERK5QCharN2Qt15CaseSensitivityE
libQtCore.so.4:_ZNK7QString8endsWithERKS_N2Qt15CaseSensitivityE
libQtCore.so.4:_ZNK7QString8multiArgEiPPKS_
libQtCore.so.4:_ZNK7QString8repeatedEi
libQtCore.so.4:_ZNK7QString8rightRefEi
libQtCore.so.4:_ZNK7QString8toDoubleEPb
libQtCore.so.4:_ZNK7QString8toLatin1Ev
libQtCore.so.4:_ZNK7QString8toUShortEPbi
libQtCore.so.4:_ZNK7QStringeqERK13QLatin1String
libQtCore.so.4:_ZNK7QStringeqERKS_
libQtCore.so.4:_ZNK7QStringgtERK13QLatin1String
libQtCore.so.4:_ZNK7QStringltERK13QLatin1String
libQtCore.so.4:_ZNK7QStringltERKS_
libQtCore.so.4:_ZNK7QThread10isFinishedEv
libQtCore.so.4:_ZNK7QThread10metaObjectEv
libQtCore.so.4:_ZNK7QThread8priorityEv
libQtCore.so.4:_ZNK7QThread9isRunningEv
libQtCore.so.4:_ZNK7QThread9stackSizeEv
libQtCore.so.4:_ZNK8QLibrary10metaObjectEv
libQtCore.so.4:_ZNK8QLibrary11errorStringEv
libQtCore.so.4:_ZNK8QLibrary8fileNameEv
libQtCore.so.4:_ZNK8QLibrary8isLoadedEv
libQtCore.so.4:_ZNK8QLibrary9loadHintsEv
libQtCore.so.4:_ZNK8QProcess10exitStatusEv
libQtCore.so.4:_ZNK8QProcess10metaObjectEv
libQtCore.so.4:_ZNK8QProcess11canReadLineEv
libQtCore.so.4:_ZNK8QProcess11environmentEv
libQtCore.so.4:_ZNK8QProcess11readChannelEv
libQtCore.so.4:_ZNK8QProcess12bytesToWriteEv
libQtCore.so.4:_ZNK8QProcess12isSequentialEv
libQtCore.so.4:_ZNK8QProcess14bytesAvailableEv
libQtCore.so.4:_ZNK8QProcess15readChannelModeEv
libQtCore.so.4:_ZNK8QProcess16workingDirectoryEv
libQtCore.so.4:_ZNK8QProcess18processChannelModeEv
libQtCore.so.4:_ZNK8QProcess18processEnvironmentEv
libQtCore.so.4:_ZNK8QProcess3pidEv
libQtCore.so.4:_ZNK8QProcess5atEndEv
libQtCore.so.4:_ZNK8QProcess5errorEv
libQtCore.so.4:_ZNK8QProcess5stateEv
libQtCore.so.4:_ZNK8QProcess8exitCodeEv
libQtCore.so.4:_ZNK8QVariant10canConvertENS_4TypeE
libQtCore.so.4:_ZNK8QVariant10toBitArrayEv
libQtCore.so.4:_ZNK8QVariant10toDateTimeEv
libQtCore.so.4:_ZNK8QVariant10toLongLongEPb
libQtCore.so.4:_ZNK8QVariant11toByteArrayEv
libQtCore.so.4:_ZNK8QVariant11toULongLongEPb
libQtCore.so.4:_ZNK8QVariant12toStringListEv
libQtCore.so.4:_ZNK8QVariant13toEasingCurveEv
libQtCore.so.4:_ZNK8QVariant3cmpERKS_
libQtCore.so.4:_ZNK8QVariant4saveER11QDataStream
libQtCore.so.4:_ZNK8QVariant4typeEv
libQtCore.so.4:_ZNK8QVariant5toIntEPb
libQtCore.so.4:_ZNK8QVariant5toMapEv
libQtCore.so.4:_ZNK8QVariant5toUrlEv
libQtCore.so.4:_ZNK8QVariant6isNullEv
libQtCore.so.4:_ZNK8QVariant6toBoolEv
libQtCore.so.4:_ZNK8QVariant6toCharEv
libQtCore.so.4:_ZNK8QVariant6toDateEv
libQtCore.so.4:_ZNK8QVariant6toHashEv
libQtCore.so.4:_ZNK8QVariant6toLineEv
libQtCore.so.4:_ZNK8QVariant6toListEv
libQtCore.so.4:_ZNK8QVariant6toRealEPb
libQtCore.so.4:_ZNK8QVariant6toRectEv
libQtCore.so.4:_ZNK8QVariant6toSizeEv
libQtCore.so.4:_ZNK8QVariant6toTimeEv
libQtCore.so.4:_ZNK8QVariant6toUIntEPb
libQtCore.so.4:_ZNK8QVariant7toFloatEPb
libQtCore.so.4:_ZNK8QVariant7toLineFEv
libQtCore.so.4:_ZNK8QVariant7toPointEv
libQtCore.so.4:_ZNK8QVariant7toRectFEv
libQtCore.so.4:_ZNK8QVariant7toSizeFEv
libQtCore.so.4:_ZNK8QVariant8toDoubleEPb
libQtCore.so.4:_ZNK8QVariant8toLocaleEv
libQtCore.so.4:_ZNK8QVariant8toPointFEv
libQtCore.so.4:_ZNK8QVariant8toRegExpEv
libQtCore.so.4:_ZNK8QVariant8toStringEv
libQtCore.so.4:_ZNK8QVariant8typeNameEv
libQtCore.so.4:_ZNK8QVariant8userTypeEv
libQtCore.so.4:_ZNK8QVariant9constDataEv
libQtCore.so.4:_ZNK9QBitArray5countEb
libQtCore.so.4:_ZNK9QBitArraycoEv
libQtCore.so.4:_ZNK9QDateTime10toTimeSpecEN2Qt8TimeSpecE
libQtCore.so.4:_ZNK9QDateTime17toMSecsSinceEpochEv
libQtCore.so.4:_ZNK9QDateTime4dateEv
libQtCore.so.4:_ZNK9QDateTime4timeEv
libQtCore.so.4:_ZNK9QDateTime6daysToERKS_
libQtCore.so.4:_ZNK9QDateTime6isNullEv
libQtCore.so.4:_ZNK9QDateTime6secsToERKS_
libQtCore.so.4:_ZNK9QDateTime7addDaysEi
libQtCore.so.4:_ZNK9QDateTime7addSecsEi
libQtCore.so.4:_ZNK9QDateTime7isValidEv
libQtCore.so.4:_ZNK9QDateTime7msecsToERKS_
libQtCore.so.4:_ZNK9QDateTime8addMSecsEx
libQtCore.so.4:_ZNK9QDateTime8addYearsEi
libQtCore.so.4:_ZNK9QDateTime8timeSpecEv
libQtCore.so.4:_ZNK9QDateTime8toStringEN2Qt10DateFormatE
libQtCore.so.4:_ZNK9QDateTime8toStringERK7QString
libQtCore.so.4:_ZNK9QDateTime8toTime_tEv
libQtCore.so.4:_ZNK9QDateTime9addMonthsEi
libQtCore.so.4:_ZNK9QDateTime9utcOffsetEv
libQtCore.so.4:_ZNK9QDateTimeeqERKS_
libQtCore.so.4:_ZNK9QDateTimeltERKS_
libQtCore.so.4:_ZNK9QFileInfo10bundleNameEv
libQtCore.so.4:_ZNK9QFileInfo10isReadableEv
libQtCore.so.4:_ZNK9QFileInfo10isRelativeEv
libQtCore.so.4:_ZNK9QFileInfo10isWritableEv
libQtCore.so.4:_ZNK9QFileInfo10permissionE6QFlagsIN5QFile10PermissionEE
libQtCore.so.4:_ZNK9QFileInfo11absoluteDirEv
libQtCore.so.4:_ZNK9QFileInfo11permissionsEv
libQtCore.so.4:_ZNK9QFileInfo12absolutePathEv
libQtCore.so.4:_ZNK9QFileInfo12isExecutableEv
libQtCore.so.4:_ZNK9QFileInfo12lastModifiedEv
libQtCore.so.4:_ZNK9QFileInfo13canonicalPathEv
libQtCore.so.4:_ZNK9QFileInfo14completeSuffixEv
libQtCore.so.4:_ZNK9QFileInfo16absoluteFilePathEv
libQtCore.so.4:_ZNK9QFileInfo16completeBaseNameEv
libQtCore.so.4:_ZNK9QFileInfo17canonicalFilePathEv
libQtCore.so.4:_ZNK9QFileInfo3dirEb
libQtCore.so.4:_ZNK9QFileInfo3dirEv
libQtCore.so.4:_ZNK9QFileInfo4pathEv
libQtCore.so.4:_ZNK9QFileInfo4sizeEv
libQtCore.so.4:_ZNK9QFileInfo5groupEv
libQtCore.so.4:_ZNK9QFileInfo5isDirEv
libQtCore.so.4:_ZNK9QFileInfo5ownerEv
libQtCore.so.4:_ZNK9QFileInfo6existsEv
libQtCore.so.4:_ZNK9QFileInfo6isFileEv
libQtCore.so.4:_ZNK9QFileInfo6isRootEv
libQtCore.so.4:_ZNK9QFileInfo6suffixEv
libQtCore.so.4:_ZNK9QFileInfo7cachingEv
libQtCore.so.4:_ZNK9QFileInfo7createdEv
libQtCore.so.4:_ZNK9QFileInfo7groupIdEv
libQtCore.so.4:_ZNK9QFileInfo7ownerIdEv
libQtCore.so.4:_ZNK9QFileInfo8baseNameEv
libQtCore.so.4:_ZNK9QFileInfo8fileNameEv
libQtCore.so.4:_ZNK9QFileInfo8filePathEv
libQtCore.so.4:_ZNK9QFileInfo8isBundleEv
libQtCore.so.4:_ZNK9QFileInfo8isHiddenEv
libQtCore.so.4:_ZNK9QFileInfo8lastReadEv
libQtCore.so.4:_ZNK9QFileInfo8readLinkEv
libQtCore.so.4:_ZNK9QFileInfo9isSymLinkEv
libQtCore.so.4:_ZNK9QFileInfoeqERKS_
libQtCore.so.4:_ZNK9QIODevice10isReadableEv
libQtCore.so.4:_ZNK9QIODevice10isWritableEv
libQtCore.so.4:_ZNK9QIODevice10metaObjectEv
libQtCore.so.4:_ZNK9QIODevice11canReadLineEv
libQtCore.so.4:_ZNK9QIODevice11errorStringEv
libQtCore.so.4:_ZNK9QIODevice12bytesToWriteEv
libQtCore.so.4:_ZNK9QIODevice12isSequentialEv
libQtCore.so.4:_ZNK9QIODevice14bytesAvailableEv
libQtCore.so.4:_ZNK9QIODevice17isTextModeEnabledEv
libQtCore.so.4:_ZNK9QIODevice3posEv
libQtCore.so.4:_ZNK9QIODevice4sizeEv
libQtCore.so.4:_ZNK9QIODevice5atEndEv
libQtCore.so.4:_ZNK9QIODevice6isOpenEv
libQtCore.so.4:_ZNK9QIODevice6statusEv
libQtCore.so.4:_ZNK9QIODevice8openModeEv
libQtCore.so.4:_ZNK9QMetaEnum10keyToValueEPKc
libQtCore.so.4:_ZNK9QMetaEnum10valueToKeyEi
libQtCore.so.4:_ZNK9QMetaEnum11keysToValueEPKc
libQtCore.so.4:_ZNK9QMetaEnum11valueToKeysEi
libQtCore.so.4:_ZNK9QMetaEnum3keyEi
libQtCore.so.4:_ZNK9QMetaEnum4nameEv
libQtCore.so.4:_ZNK9QMetaEnum5scopeEv
libQtCore.so.4:_ZNK9QMetaEnum5valueEi
libQtCore.so.4:_ZNK9QMetaEnum6isFlagEv
libQtCore.so.4:_ZNK9QMetaEnum8keyCountEv
libQtCore.so.4:_ZNK9QMimeData10metaObjectEv
libQtCore.so.4:_ZNK9QMimeData12retrieveDataERK7QStringN8QVariant4TypeE
libQtCore.so.4:_ZNK9QMimeData4dataERK7QString
libQtCore.so.4:_ZNK9QMimeData4htmlEv
libQtCore.so.4:_ZNK9QMimeData4textEv
libQtCore.so.4:_ZNK9QMimeData4urlsEv
libQtCore.so.4:_ZNK9QMimeData7formatsEv
libQtCore.so.4:_ZNK9QMimeData7hasHtmlEv
libQtCore.so.4:_ZNK9QMimeData7hasTextEv
libQtCore.so.4:_ZNK9QMimeData7hasUrlsEv
libQtCore.so.4:_ZNK9QMimeData8hasColorEv
libQtCore.so.4:_ZNK9QMimeData8hasImageEv
libQtCore.so.4:_ZNK9QMimeData9colorDataEv
libQtCore.so.4:_ZNK9QMimeData9hasFormatERK7QString
libQtCore.so.4:_ZNK9QMimeData9imageDataEv
libQtCore.so.4:_ZNK9QResource12isCompressedEv
libQtCore.so.4:_ZNK9QResource16absoluteFilePathEv
libQtCore.so.4:_ZNK9QResource4dataEv
libQtCore.so.4:_ZNK9QResource4sizeEv
libQtCore.so.4:_ZNK9QResource5isDirEv
libQtCore.so.4:_ZNK9QResource6localeEv
libQtCore.so.4:_ZNK9QResource7isValidEv
libQtCore.so.4:_ZNK9QResource8childrenEv
libQtCore.so.4:_ZNK9QResource8fileNameEv
libQtCore.so.4:_ZNK9QSettings10isWritableEv
libQtCore.so.4:_ZNK9QSettings10metaObjectEv
libQtCore.so.4:_ZNK9QSettings11childGroupsEv
libQtCore.so.4:_ZNK9QSettings15applicationNameEv
libQtCore.so.4:_ZNK9QSettings16fallbacksEnabledEv
libQtCore.so.4:_ZNK9QSettings16organizationNameEv
libQtCore.so.4:_ZNK9QSettings5groupEv
libQtCore.so.4:_ZNK9QSettings5scopeEv
libQtCore.so.4:_ZNK9QSettings5valueERK7QStringRK8QVariant
libQtCore.so.4:_ZNK9QSettings6formatEv
libQtCore.so.4:_ZNK9QSettings6statusEv
libQtCore.so.4:_ZNK9QSettings7allKeysEv
libQtCore.so.4:_ZNK9QSettings8containsERK7QString
libQtCore.so.4:_ZNK9QSettings8fileNameEv
libQtCore.so.4:_ZNK9QSettings8iniCodecEv
libQtCore.so.4:_ZNK9QSettings9childKeysEv
libQtCore.so.4:_ZNK9QTimeLine10curveShapeEv
libQtCore.so.4:_ZNK9QTimeLine10metaObjectEv
libQtCore.so.4:_ZNK9QTimeLine10startFrameEv
libQtCore.so.4:_ZNK9QTimeLine11currentTimeEv
libQtCore.so.4:_ZNK9QTimeLine11easingCurveEv
libQtCore.so.4:_ZNK9QTimeLine12currentFrameEv
libQtCore.so.4:_ZNK9QTimeLine12currentValueEv
libQtCore.so.4:_ZNK9QTimeLine12frameForTimeEi
libQtCore.so.4:_ZNK9QTimeLine12valueForTimeEi
libQtCore.so.4:_ZNK9QTimeLine14updateIntervalEv
libQtCore.so.4:_ZNK9QTimeLine5stateEv
libQtCore.so.4:_ZNK9QTimeLine8durationEv
libQtCore.so.4:_ZNK9QTimeLine8endFrameEv
libQtCore.so.4:_ZNK9QTimeLine9directionEv
libQtCore.so.4:_ZNK9QTimeLine9loopCountEv
libQtCore.so.4:_ZThn16_N16QTextCodecPlugin6createERK7QString
libQtCore.so.4:_ZThn16_N16QTextCodecPluginD0Ev
libQtCore.so.4:_ZThn16_N16QTextCodecPluginD1Ev
libQtCore.so.4:_ZThn16_NK16QTextCodecPlugin4keysEv
libQtCore.so.4:_ZanRK9QBitArrayS1_
libQtCore.so.4:_ZeoRK9QBitArrayS1_
libQtCore.so.4:_ZeqRK10QStringRefS1_
libQtCore.so.4:_ZeqRK13QLatin1StringRK10QStringRef
libQtCore.so.4:_ZeqRK7QStringRK10QStringRef
libQtCore.so.4:_ZeqRKN15QDateTimeParser11SectionNodeES2_
libQtCore.so.4:_Zls6QDebug6QFlagsIN4QDir6FilterEE
libQtCore.so.4:_Zls6QDebug6QFlagsIN9QIODevice12OpenModeFlagEE
libQtCore.so.4:_Zls6QDebugN8QVariant4TypeE
libQtCore.so.4:_Zls6QDebugPK7QObject
libQtCore.so.4:_Zls6QDebugRK11QModelIndex
libQtCore.so.4:_Zls6QDebugRK12QEasingCurve
libQtCore.so.4:_Zls6QDebugRK21QPersistentModelIndex
libQtCore.so.4:_Zls6QDebugRK4QDir
libQtCore.so.4:_Zls6QDebugRK4QUrl
libQtCore.so.4:_Zls6QDebugRK5QDate
libQtCore.so.4:_Zls6QDebugRK5QLine
libQtCore.so.4:_Zls6QDebugRK5QRect
libQtCore.so.4:_Zls6QDebugRK5QSize
libQtCore.so.4:_Zls6QDebugRK5QTime
libQtCore.so.4:_Zls6QDebugRK6QLineF
libQtCore.so.4:_Zls6QDebugRK6QPoint
libQtCore.so.4:_Zls6QDebugRK6QRectF
libQtCore.so.4:_Zls6QDebugRK6QSizeF
libQtCore.so.4:_Zls6QDebugRK7QPointF
libQtCore.so.4:_Zls6QDebugRK8QMargins
libQtCore.so.4:_Zls6QDebugRK8QVariant
libQtCore.so.4:_Zls6QDebugRK9QDateTime
libQtCore.so.4:_ZlsR11QDataStreamN8QVariant4TypeE
libQtCore.so.4:_ZlsR11QDataStreamRK10QByteArray
libQtCore.so.4:_ZlsR11QDataStreamRK12QEasingCurve
libQtCore.so.4:_ZlsR11QDataStreamRK4QUrl
libQtCore.so.4:_ZlsR11QDataStreamRK5QChar
libQtCore.so.4:_ZlsR11QDataStreamRK5QDate
libQtCore.so.4:_ZlsR11QDataStreamRK5QLine
libQtCore.so.4:_ZlsR11QDataStreamRK5QRect
libQtCore.so.4:_ZlsR11QDataStreamRK5QSize
libQtCore.so.4:_ZlsR11QDataStreamRK5QTime
libQtCore.so.4:_ZlsR11QDataStreamRK5QUuid
libQtCore.so.4:_ZlsR11QDataStreamRK6QLineF
libQtCore.so.4:_ZlsR11QDataStreamRK6QPoint
libQtCore.so.4:_ZlsR11QDataStreamRK6QRectF
libQtCore.so.4:_ZlsR11QDataStreamRK6QSizeF
libQtCore.so.4:_ZlsR11QDataStreamRK7QLocale
libQtCore.so.4:_ZlsR11QDataStreamRK7QPointF
libQtCore.so.4:_ZlsR11QDataStreamRK7QRegExp
libQtCore.so.4:_ZlsR11QDataStreamRK7QString
libQtCore.so.4:_ZlsR11QDataStreamRK8QVariant
libQtCore.so.4:_ZlsR11QDataStreamRK9QBitArray
libQtCore.so.4:_ZlsR11QDataStreamRK9QDateTime
libQtCore.so.4:_ZltRK10QStringRefS1_
libQtCore.so.4:_ZltRK13QElapsedTimerS1_
libQtCore.so.4:_ZorRK9QBitArrayS1_
libQtCore.so.4:_ZrsR11QDataStreamR10QByteArray
libQtCore.so.4:_ZrsR11QDataStreamR12QEasingCurve
libQtCore.so.4:_ZrsR11QDataStreamR4QUrl
libQtCore.so.4:_ZrsR11QDataStreamR5QChar
libQtCore.so.4:_ZrsR11QDataStreamR5QDate
libQtCore.so.4:_ZrsR11QDataStreamR5QLine
libQtCore.so.4:_ZrsR11QDataStreamR5QRect
libQtCore.so.4:_ZrsR11QDataStreamR5QSize
libQtCore.so.4:_ZrsR11QDataStreamR5QTime
libQtCore.so.4:_ZrsR11QDataStreamR5QUuid
libQtCore.so.4:_ZrsR11QDataStreamR6QLineF
libQtCore.so.4:_ZrsR11QDataStreamR6QPoint
libQtCore.so.4:_ZrsR11QDataStreamR6QRectF
libQtCore.so.4:_ZrsR11QDataStreamR6QSizeF
libQtCore.so.4:_ZrsR11QDataStreamR7QLocale
libQtCore.so.4:_ZrsR11QDataStreamR7QPointF
libQtCore.so.4:_ZrsR11QDataStreamR7QRegExp
libQtCore.so.4:_ZrsR11QDataStreamR7QString
libQtCore.so.4:_ZrsR11QDataStreamR8QVariant
libQtCore.so.4:_ZrsR11QDataStreamR9QBitArray
libQtCore.so.4:_ZrsR11QDataStreamR9QDateTime
libQtCore.so.4:_ZrsR11QDataStreamRN8QVariant4TypeE
libQtCore.so.4:qt_addObject
libQtCore.so.4:qt_removeObject
libQtCore.so.4:qt_startup_hook
libQtDBus.so.4:_Z14qDBusReplyFillRK12QDBusMessageR10QDBusErrorR8QVariant
libQtDBus.so.4:_Z15qDBusAddSpyHookPFvRK12QDBusMessageE
libQtDBus.so.4:_Z22qDBusBindToApplicationv
libQtDBus.so.4:_Z26qDBusGenerateMetaObjectXml7QStringPK11QMetaObjectS2_i
libQtDBus.so.4:_ZN10QDBusError11errorStringENS_9ErrorTypeE
libQtDBus.so.4:_ZN10QDBusErrorC1ENS_9ErrorTypeERK7QString
libQtDBus.so.4:_ZN10QDBusErrorC1EPK9DBusError
libQtDBus.so.4:_ZN10QDBusErrorC1ERK12QDBusMessage
libQtDBus.so.4:_ZN10QDBusErrorC1ERKS_
libQtDBus.so.4:_ZN10QDBusErrorC2ENS_9ErrorTypeERK7QString
libQtDBus.so.4:_ZN10QDBusErrorC2EPK9DBusError
libQtDBus.so.4:_ZN10QDBusErrorC2ERK12QDBusMessage
libQtDBus.so.4:_ZN10QDBusErrorC2ERKS_
libQtDBus.so.4:_ZN10QDBusErroraSERKS_
libQtDBus.so.4:_ZN11QDBusServer11qt_metacallEN11QMetaObject4CallEiPPv
libQtDBus.so.4:_ZN11QDBusServer11qt_metacastEPKc
libQtDBus.so.4:_ZN11QDBusServer13newConnectionERK15QDBusConnection
libQtDBus.so.4:_ZN11QDBusServerC1ERK7QStringP7QObject
libQtDBus.so.4:_ZN11QDBusServerC2ERK7QStringP7QObject
libQtDBus.so.4:_ZN11QDBusServerD0Ev
libQtDBus.so.4:_ZN11QDBusServerD1Ev
libQtDBus.so.4:_ZN11QDBusServerD2Ev
libQtDBus.so.4:_ZN12QDBusContextC1Ev
libQtDBus.so.4:_ZN12QDBusContextC2Ev
libQtDBus.so.4:_ZN12QDBusContextD1Ev
libQtDBus.so.4:_ZN12QDBusContextD2Ev
libQtDBus.so.4:_ZN12QDBusMessage11createErrorERK7QStringS2_
libQtDBus.so.4:_ZN12QDBusMessage12createSignalERK7QStringS2_S2_
libQtDBus.so.4:_ZN12QDBusMessage12setArgumentsERK5QListI8QVariantE
libQtDBus.so.4:_ZN12QDBusMessage16createMethodCallERK7QStringS2_S2_S2_
libQtDBus.so.4:_ZN12QDBusMessage19setAutoStartServiceEb
libQtDBus.so.4:_ZN12QDBusMessageC1ERKS_
libQtDBus.so.4:_ZN12QDBusMessageC1Ev
libQtDBus.so.4:_ZN12QDBusMessageC2ERKS_
libQtDBus.so.4:_ZN12QDBusMessageC2Ev
libQtDBus.so.4:_ZN12QDBusMessageD1Ev
libQtDBus.so.4:_ZN12QDBusMessageD2Ev
libQtDBus.so.4:_ZN12QDBusMessageaSERKS_
libQtDBus.so.4:_ZN12QDBusMessagelsERK8QVariant
libQtDBus.so.4:_ZN13QDBusArgument10beginArrayEi
libQtDBus.so.4:_ZN13QDBusArgument11endMapEntryEv
libQtDBus.so.4:_ZN13QDBusArgument12endStructureEv
libQtDBus.so.4:_ZN13QDBusArgument13appendVariantERK8QVariant
libQtDBus.so.4:_ZN13QDBusArgument13beginMapEntryEv
libQtDBus.so.4:_ZN13QDBusArgument14beginStructureEv
libQtDBus.so.4:_ZN13QDBusArgument6endMapEv
libQtDBus.so.4:_ZN13QDBusArgument8beginMapEii
libQtDBus.so.4:_ZN13QDBusArgument8endArrayEv
libQtDBus.so.4:_ZN13QDBusArgumentC1EP20QDBusArgumentPrivate
libQtDBus.so.4:_ZN13QDBusArgumentC1ERKS_
libQtDBus.so.4:_ZN13QDBusArgumentC1Ev
libQtDBus.so.4:_ZN13QDBusArgumentC2EP20QDBusArgumentPrivate
libQtDBus.so.4:_ZN13QDBusArgumentC2ERKS_
libQtDBus.so.4:_ZN13QDBusArgumentC2Ev
libQtDBus.so.4:_ZN13QDBusArgumentD1Ev
libQtDBus.so.4:_ZN13QDBusArgumentD2Ev
libQtDBus.so.4:_ZN13QDBusArgumentaSERKS_
libQtDBus.so.4:_ZN13QDBusArgumentlsERK10QByteArray
libQtDBus.so.4:_ZN13QDBusArgumentlsERK11QStringList
libQtDBus.so.4:_ZN13QDBusArgumentlsERK12QDBusVariant
libQtDBus.so.4:_ZN13QDBusArgumentlsERK14QDBusSignature
libQtDBus.so.4:_ZN13QDBusArgumentlsERK15QDBusObjectPath
